

Microchip MPLAB XC8 Assembler V2.41 build 20230208172133 
                                                                                               Sun Aug 20 18:27:59 2023

Microchip MPLAB XC8 C Compiler v2.41 (Free license) build 20230208172133 Og1 
     1                           	processor	16F887
     2                           	pagewidth 120
     3                           	opt	flic
     4                           	psect	strings,global,class=STRING,delta=2,noexec
     5                           	psect	cinit,global,class=CODE,merge=1,delta=2
     6                           	psect	bssBANK0,global,class=BANK0,space=1,delta=1,noexec
     7                           	psect	clrtext,global,class=CODE,delta=2
     8                           	psect	cstackCOMMON,global,class=COMMON,space=1,delta=1,noexec
     9                           	psect	cstackBANK0,global,class=BANK0,space=1,delta=1,noexec
    10                           	psect	maintext,global,class=CODE,split=1,delta=2
    11                           	psect	text1,local,class=CODE,merge=1,delta=2
    12                           	psect	text2,local,class=CODE,merge=1,delta=2
    13                           	psect	text3,local,class=CODE,merge=1,delta=2
    14                           	psect	text4,local,class=CODE,merge=1,delta=2
    15                           	psect	text5,local,class=CODE,merge=1,delta=2
    16                           	psect	text6,local,class=CODE,merge=1,delta=2
    17                           	psect	text7,local,class=CODE,merge=1,delta=2
    18                           	psect	text8,local,class=CODE,merge=1,delta=2
    19                           	psect	text9,local,class=CODE,merge=1,delta=2
    20                           	psect	text10,local,class=CODE,merge=1,delta=2
    21                           	psect	text11,local,class=CODE,merge=1,delta=2,group=2
    22                           	psect	text12,local,class=CODE,merge=1,delta=2
    23                           	psect	text13,local,class=CODE,merge=1,delta=2
    24                           	psect	text14,local,class=CODE,merge=1,delta=2
    25                           	psect	text15,local,class=CODE,merge=1,delta=2
    26                           	psect	text16,local,class=CODE,merge=1,delta=2
    27                           	psect	text17,local,class=CODE,merge=1,delta=2
    28                           	psect	text18,local,class=CODE,merge=1,delta=2,group=1
    29                           	psect	text19,local,class=CODE,merge=1,delta=2,group=3
    30                           	psect	text20,local,class=CODE,merge=1,delta=2,group=2
    31                           	psect	text21,local,class=CODE,merge=1,delta=2,group=2
    32                           	psect	text22,local,class=CODE,merge=1,delta=2,group=2
    33                           	psect	text23,local,class=CODE,merge=1,delta=2
    34                           	psect	text24,local,class=CODE,merge=1,delta=2
    35                           	psect	text25,local,class=CODE,merge=1,delta=2
    36                           	psect	idloc,global,abs,ovrld,class=IDLOC,space=5,delta=2,noexec
    37                           	psect	config,global,abs,ovrld,class=CONFIG,space=4,delta=2,noexec
    38                           	dabs	1,0x7E,2
    39     0000                     
    40                           ; Version 2.40
    41                           ; Generated 17/11/2021 GMT
    42                           ; 
    43                           ; Copyright © 2021, Microchip Technology Inc. and its subsidiaries ("Microchip")
    44                           ; All rights reserved.
    45                           ; 
    46                           ; This software is developed by Microchip Technology Inc. and its subsidiaries ("Microch
      +                          ip").
    47                           ; 
    48                           ; Redistribution and use in source and binary forms, with or without modification, are
    49                           ; permitted provided that the following conditions are met:
    50                           ; 
    51                           ;     1. Redistributions of source code must retain the above copyright notice, this lis
      +                          t of
    52                           ;        conditions and the following disclaimer.
    53                           ; 
    54                           ;     2. Redistributions in binary form must reproduce the above copyright notice, this 
      +                          list
    55                           ;        of conditions and the following disclaimer in the documentation and/or other
    56                           ;        materials provided with the distribution. Publication is not required when
    57                           ;        this file is used in an embedded application.
    58                           ; 
    59                           ;     3. Microchip's name may not be used to endorse or promote products derived from th
      +                          is
    60                           ;        software without specific prior written permission.
    61                           ; 
    62                           ; THIS SOFTWARE IS PROVIDED BY MICROCHIP "AS IS" AND ANY EXPRESS OR IMPLIED WARRANTIES,
    63                           ; INCLUDING, BUT NOT LIMITED TO, THE IMPLIED WARRANTIES OF MERCHANTABILITY AND FITNESS F
      +                          OR
    64                           ; PURPOSE ARE DISCLAIMED.  IN NO EVENT SHALL MICROCHIP BE LIABLE FOR ANY DIRECT, INDIREC
      +                          T,
    65                           ; INCIDENTAL, SPECIAL, EXEMPLARY, OR CONSEQUENTIAL DAMAGES (INCLUDING BUT NOT LIMITED TO
    66                           ; PROCUREMENT OF SUBSTITUTE GOODS OR SERVICES; LOSS OF USE, DATA OR PROFITS; OR BUSINESS
    67                           ; INTERRUPTION) HOWSOEVER CAUSED AND ON ANY THEORY OF LIABILITY, WHETHER IN CONTRACT, ST
      +                          RICT
    68                           ; LIABILITY, OR TORT (INCLUDING NEGLIGENCE OR OTHERWISE) ARISING IN ANY WAY OUT OF THE U
      +                          SE OF
    69                           ; THIS SOFTWARE, EVEN IF ADVISED OF THE POSSIBILITY OF SUCH DAMAGE.
    70                           ; 
    71                           ; 
    72                           ; Code-generator required, PIC16F887 Definitions
    73                           ; 
    74                           ; SFR Addresses
    75     0000                     	;# 
    76     0001                     	;# 
    77     0002                     	;# 
    78     0003                     	;# 
    79     0004                     	;# 
    80     0005                     	;# 
    81     0006                     	;# 
    82     0007                     	;# 
    83     0008                     	;# 
    84     0009                     	;# 
    85     000A                     	;# 
    86     000B                     	;# 
    87     000C                     	;# 
    88     000D                     	;# 
    89     000E                     	;# 
    90     000E                     	;# 
    91     000F                     	;# 
    92     0010                     	;# 
    93     0011                     	;# 
    94     0012                     	;# 
    95     0013                     	;# 
    96     0014                     	;# 
    97     0015                     	;# 
    98     0015                     	;# 
    99     0016                     	;# 
   100     0017                     	;# 
   101     0018                     	;# 
   102     0019                     	;# 
   103     001A                     	;# 
   104     001B                     	;# 
   105     001B                     	;# 
   106     001C                     	;# 
   107     001D                     	;# 
   108     001E                     	;# 
   109     001F                     	;# 
   110     0081                     	;# 
   111     0085                     	;# 
   112     0086                     	;# 
   113     0087                     	;# 
   114     0088                     	;# 
   115     0089                     	;# 
   116     008C                     	;# 
   117     008D                     	;# 
   118     008E                     	;# 
   119     008F                     	;# 
   120     0090                     	;# 
   121     0091                     	;# 
   122     0092                     	;# 
   123     0093                     	;# 
   124     0093                     	;# 
   125     0093                     	;# 
   126     0094                     	;# 
   127     0095                     	;# 
   128     0096                     	;# 
   129     0097                     	;# 
   130     0098                     	;# 
   131     0099                     	;# 
   132     009A                     	;# 
   133     009B                     	;# 
   134     009C                     	;# 
   135     009D                     	;# 
   136     009E                     	;# 
   137     009F                     	;# 
   138     0105                     	;# 
   139     0107                     	;# 
   140     0108                     	;# 
   141     0109                     	;# 
   142     010C                     	;# 
   143     010C                     	;# 
   144     010D                     	;# 
   145     010E                     	;# 
   146     010F                     	;# 
   147     0185                     	;# 
   148     0187                     	;# 
   149     0188                     	;# 
   150     0189                     	;# 
   151     018C                     	;# 
   152     018D                     	;# 
   153     0000                     	;# 
   154     0001                     	;# 
   155     0002                     	;# 
   156     0003                     	;# 
   157     0004                     	;# 
   158     0005                     	;# 
   159     0006                     	;# 
   160     0007                     	;# 
   161     0008                     	;# 
   162     0009                     	;# 
   163     000A                     	;# 
   164     000B                     	;# 
   165     000C                     	;# 
   166     000D                     	;# 
   167     000E                     	;# 
   168     000E                     	;# 
   169     000F                     	;# 
   170     0010                     	;# 
   171     0011                     	;# 
   172     0012                     	;# 
   173     0013                     	;# 
   174     0014                     	;# 
   175     0015                     	;# 
   176     0015                     	;# 
   177     0016                     	;# 
   178     0017                     	;# 
   179     0018                     	;# 
   180     0019                     	;# 
   181     001A                     	;# 
   182     001B                     	;# 
   183     001B                     	;# 
   184     001C                     	;# 
   185     001D                     	;# 
   186     001E                     	;# 
   187     001F                     	;# 
   188     0081                     	;# 
   189     0085                     	;# 
   190     0086                     	;# 
   191     0087                     	;# 
   192     0088                     	;# 
   193     0089                     	;# 
   194     008C                     	;# 
   195     008D                     	;# 
   196     008E                     	;# 
   197     008F                     	;# 
   198     0090                     	;# 
   199     0091                     	;# 
   200     0092                     	;# 
   201     0093                     	;# 
   202     0093                     	;# 
   203     0093                     	;# 
   204     0094                     	;# 
   205     0095                     	;# 
   206     0096                     	;# 
   207     0097                     	;# 
   208     0098                     	;# 
   209     0099                     	;# 
   210     009A                     	;# 
   211     009B                     	;# 
   212     009C                     	;# 
   213     009D                     	;# 
   214     009E                     	;# 
   215     009F                     	;# 
   216     0105                     	;# 
   217     0107                     	;# 
   218     0108                     	;# 
   219     0109                     	;# 
   220     010C                     	;# 
   221     010C                     	;# 
   222     010D                     	;# 
   223     010E                     	;# 
   224     010F                     	;# 
   225     0185                     	;# 
   226     0187                     	;# 
   227     0188                     	;# 
   228     0189                     	;# 
   229     018C                     	;# 
   230     018D                     	;# 
   231     0000                     	;# 
   232     0001                     	;# 
   233     0002                     	;# 
   234     0003                     	;# 
   235     0004                     	;# 
   236     0005                     	;# 
   237     0006                     	;# 
   238     0007                     	;# 
   239     0008                     	;# 
   240     0009                     	;# 
   241     000A                     	;# 
   242     000B                     	;# 
   243     000C                     	;# 
   244     000D                     	;# 
   245     000E                     	;# 
   246     000E                     	;# 
   247     000F                     	;# 
   248     0010                     	;# 
   249     0011                     	;# 
   250     0012                     	;# 
   251     0013                     	;# 
   252     0014                     	;# 
   253     0015                     	;# 
   254     0015                     	;# 
   255     0016                     	;# 
   256     0017                     	;# 
   257     0018                     	;# 
   258     0019                     	;# 
   259     001A                     	;# 
   260     001B                     	;# 
   261     001B                     	;# 
   262     001C                     	;# 
   263     001D                     	;# 
   264     001E                     	;# 
   265     001F                     	;# 
   266     0081                     	;# 
   267     0085                     	;# 
   268     0086                     	;# 
   269     0087                     	;# 
   270     0088                     	;# 
   271     0089                     	;# 
   272     008C                     	;# 
   273     008D                     	;# 
   274     008E                     	;# 
   275     008F                     	;# 
   276     0090                     	;# 
   277     0091                     	;# 
   278     0092                     	;# 
   279     0093                     	;# 
   280     0093                     	;# 
   281     0093                     	;# 
   282     0094                     	;# 
   283     0095                     	;# 
   284     0096                     	;# 
   285     0097                     	;# 
   286     0098                     	;# 
   287     0099                     	;# 
   288     009A                     	;# 
   289     009B                     	;# 
   290     009C                     	;# 
   291     009D                     	;# 
   292     009E                     	;# 
   293     009F                     	;# 
   294     0105                     	;# 
   295     0107                     	;# 
   296     0108                     	;# 
   297     0109                     	;# 
   298     010C                     	;# 
   299     010C                     	;# 
   300     010D                     	;# 
   301     010E                     	;# 
   302     010F                     	;# 
   303     0185                     	;# 
   304     0187                     	;# 
   305     0188                     	;# 
   306     0189                     	;# 
   307     018C                     	;# 
   308     018D                     	;# 
   309     0000                     	;# 
   310     0001                     	;# 
   311     0002                     	;# 
   312     0003                     	;# 
   313     0004                     	;# 
   314     0005                     	;# 
   315     0006                     	;# 
   316     0007                     	;# 
   317     0008                     	;# 
   318     0009                     	;# 
   319     000A                     	;# 
   320     000B                     	;# 
   321     000C                     	;# 
   322     000D                     	;# 
   323     000E                     	;# 
   324     000E                     	;# 
   325     000F                     	;# 
   326     0010                     	;# 
   327     0011                     	;# 
   328     0012                     	;# 
   329     0013                     	;# 
   330     0014                     	;# 
   331     0015                     	;# 
   332     0015                     	;# 
   333     0016                     	;# 
   334     0017                     	;# 
   335     0018                     	;# 
   336     0019                     	;# 
   337     001A                     	;# 
   338     001B                     	;# 
   339     001B                     	;# 
   340     001C                     	;# 
   341     001D                     	;# 
   342     001E                     	;# 
   343     001F                     	;# 
   344     0081                     	;# 
   345     0085                     	;# 
   346     0086                     	;# 
   347     0087                     	;# 
   348     0088                     	;# 
   349     0089                     	;# 
   350     008C                     	;# 
   351     008D                     	;# 
   352     008E                     	;# 
   353     008F                     	;# 
   354     0090                     	;# 
   355     0091                     	;# 
   356     0092                     	;# 
   357     0093                     	;# 
   358     0093                     	;# 
   359     0093                     	;# 
   360     0094                     	;# 
   361     0095                     	;# 
   362     0096                     	;# 
   363     0097                     	;# 
   364     0098                     	;# 
   365     0099                     	;# 
   366     009A                     	;# 
   367     009B                     	;# 
   368     009C                     	;# 
   369     009D                     	;# 
   370     009E                     	;# 
   371     009F                     	;# 
   372     0105                     	;# 
   373     0107                     	;# 
   374     0108                     	;# 
   375     0109                     	;# 
   376     010C                     	;# 
   377     010C                     	;# 
   378     010D                     	;# 
   379     010E                     	;# 
   380     010F                     	;# 
   381     0185                     	;# 
   382     0187                     	;# 
   383     0188                     	;# 
   384     0189                     	;# 
   385     018C                     	;# 
   386     018D                     	;# 
   387                           
   388                           	psect	strings
   389     0003                     __pstrings:
   390     0003                     stringtab:
   391     0003                     __stringtab:
   392                           
   393                           ;	String table - string pointers are 1 byte each
   394     0003  1BFF               	btfsc	btemp+1,7
   395     0004  280D               	ljmp	stringcode
   396     0005  1383               	bcf	3,7
   397     0006  187F               	btfsc	btemp+1,0
   398     0007  1783               	bsf	3,7
   399     0008  0800               	movf	0,w
   400     0009  0A84               	incf	4,f
   401     000A  1903               	skipnz
   402     000B  0AFF               	incf	btemp+1,f
   403     000C  0008               	return
   404     000D                     stringcode:
   405     000D                     stringdir:
   406     000D  3000               	movlw	high stringdir
   407     000E  008A               	movwf	10
   408     000F  0804               	movf	4,w
   409     0010  0A84               	incf	4,f
   410     0011  0782               	addwf	2,f
   411     0012                     __stringbase:
   412     0012  3400               	retlw	0
   413     0013                     __end_of__stringtab:
   414     0013                     _dpowers:
   415     0013  3401               	retlw	1
   416     0014  3400               	retlw	0
   417     0015  340A               	retlw	10
   418     0016  3400               	retlw	0
   419     0017  3464               	retlw	100
   420     0018  3400               	retlw	0
   421     0019  34E8               	retlw	232
   422     001A  3403               	retlw	3
   423     001B  3410               	retlw	16
   424     001C  3427               	retlw	39
   425     001D                     __end_of_dpowers:
   426     0008                     _PORTD	set	8
   427     0007                     _PORTC	set	7
   428     0005                     _PORTA	set	5
   429     0006                     _PORTB	set	6
   430     0013                     _SSPBUF	set	19
   431     0014                     _SSPCON	set	20
   432     0039                     _RC1	set	57
   433     0038                     _RC0	set	56
   434     0047                     _RD7	set	71
   435     0046                     _RD6	set	70
   436     0045                     _RD5	set	69
   437     0044                     _RD4	set	68
   438     0043                     _RD3	set	67
   439     0042                     _RD2	set	66
   440     0041                     _RD1	set	65
   441     0040                     _RD0	set	64
   442     002C                     _RA4	set	44
   443     002B                     _RA3	set	43
   444     002D                     _RA5	set	45
   445     002A                     _RA2	set	42
   446     0029                     _RA1	set	41
   447     0028                     _RA0	set	40
   448     0063                     _SSPIF	set	99
   449     005E                     _PEIE	set	94
   450     005F                     _GIE	set	95
   451     0088                     _TRISD	set	136
   452     0086                     _TRISB	set	134
   453     0085                     _TRISA	set	133
   454     0087                     _TRISC	set	135
   455     008F                     _OSCCONbits	set	143
   456     0091                     _SSPCON2bits	set	145
   457     0087                     _TRISCbits	set	135
   458     0094                     _SSPSTAT	set	148
   459     0093                     _SSPADD	set	147
   460     0091                     _SSPCON2	set	145
   461     0463                     _SSPIE	set	1123
   462     043C                     _TRISC4	set	1084
   463     043B                     _TRISC3	set	1083
   464     0189                     _ANSELH	set	393
   465     0188                     _ANSEL	set	392
   466     001D                     STR_1:
   467     001D  3444               	retlw	68	;'D'
   468     001E  3469               	retlw	105	;'i'
   469     001F  3473               	retlw	115	;'s'
   470     0020  3474               	retlw	116	;'t'
   471     0021  3461               	retlw	97	;'a'
   472     0022  346E               	retlw	110	;'n'
   473     0023  3463               	retlw	99	;'c'
   474     0024  3465               	retlw	101	;'e'
   475     0025  343A               	retlw	58	;':'
   476     0026  3420               	retlw	32	;' '
   477     0027  3425               	retlw	37	;'%'
   478     0028  342E               	retlw	46	;'.'
   479     0029  3432               	retlw	50	;'2'
   480     002A  3464               	retlw	100	;'d'
   481     002B  3400               	retlw	0
   482     002C                     STR_2:
   483     002C  3448               	retlw	72	;'H'
   484     002D  346F               	retlw	111	;'o'
   485     002E  346C               	retlw	108	;'l'
   486     002F  3461               	retlw	97	;'a'
   487     0030  3400               	retlw	0
   488     0031                     STR_4:
   489     0031  3420               	retlw	32	;' '
   490     0032  3420               	retlw	32	;' '
   491     0033  3400               	retlw	0
   492     0034                     STR_3:
   493     0034  3421               	retlw	33	;'!'
   494     0035  3421               	retlw	33	;'!'
   495     0036  3400               	retlw	0
   496                           
   497                           	psect	cinit
   498     07F3                     start_initialization:	
   499                           ; #config settings
   500                           
   501     07F3                     __initialization:
   502                           
   503                           ; Clear objects allocated to BANK0
   504     07F3  1383               	bcf	3,7	;select IRP bank0
   505     07F4  3020               	movlw	low __pbssBANK0
   506     07F5  0084               	movwf	4
   507     07F6  303C               	movlw	low (__pbssBANK0+28)
   508     07F7  120A  118A  2271  120A  118A  	fcall	clear_ram0
   509     07FC                     end_of_initialization:	
   510                           ;End of C runtime variable initialization code
   511                           
   512     07FC                     __end_of__initialization:
   513     07FC  0183               	clrf	3
   514     07FD  120A  118A  2B2F   	ljmp	_main	;jump to C main() function
   515                           
   516                           	psect	bssBANK0
   517     0020                     __pbssBANK0:
   518     0020                     _gyroData:
   519     0020                     	ds	6
   520     0026                     _OnOff:
   521     0026                     	ds	2
   522     0028                     _motor2:
   523     0028                     	ds	1
   524     0029                     _motor1:
   525     0029                     	ds	1
   526     002A                     _ultrasonicValue:
   527     002A                     	ds	1
   528     002B                     _a:
   529     002B                     	ds	1
   530     002C                     _lineLCD:
   531     002C                     	ds	16
   532                           
   533                           	psect	clrtext
   534     0271                     clear_ram0:	
   535                           ;	Called with FSR containing the base address, and
   536                           ;	W with the last address+1
   537                           
   538     0271  0064               	clrwdt	;clear the watchdog before getting into this loop
   539     0272                     clrloop0:
   540     0272  0180               	clrf	0	;clear RAM location pointed to by FSR
   541     0273  0A84               	incf	4,f	;increment pointer
   542     0274  0604               	xorwf	4,w	;XOR with final address
   543     0275  1903               	btfsc	3,2	;have we reached the end yet?
   544     0276  3400               	retlw	0	;all done for this memory range, return
   545     0277  0604               	xorwf	4,w	;XOR again to restore value
   546     0278  2A72               	goto	clrloop0	;do the next byte
   547                           
   548                           	psect	cstackCOMMON
   549     0070                     __pcstackCOMMON:
   550     0070                     ?_isdigit:
   551     0070                     ?_setup:	
   552                           ; 1 bit 
   553                           
   554     0070                     ?_dcForward:	
   555                           ; 1 bytes @ 0x0
   556                           
   557     0070                     ??_dcForward:	
   558                           ; 1 bytes @ 0x0
   559                           
   560     0070                     ?_slave1Communication:	
   561                           ; 1 bytes @ 0x0
   562                           
   563     0070                     ?_slave2Communication:	
   564                           ; 1 bytes @ 0x0
   565                           
   566     0070                     ?_LCDprint:	
   567                           ; 1 bytes @ 0x0
   568                           
   569     0070                     ?_Lcd_Init:	
   570                           ; 1 bytes @ 0x0
   571                           
   572     0070                     ?_Lcd_Clear:	
   573                           ; 1 bytes @ 0x0
   574                           
   575     0070                     ?_usSensor:	
   576                           ; 1 bytes @ 0x0
   577                           
   578     0070                     ??_isdigit:	
   579                           ; 1 bytes @ 0x0
   580                           
   581     0070                     ?_I2C_Master_Wait:	
   582                           ; 1 bytes @ 0x0
   583                           
   584     0070                     ??_I2C_Master_Wait:	
   585                           ; 1 bytes @ 0x0
   586                           
   587     0070                     ?_I2C_Master_Start:	
   588                           ; 1 bytes @ 0x0
   589                           
   590     0070                     ??_I2C_Master_Start:	
   591                           ; 1 bytes @ 0x0
   592                           
   593     0070                     ?_I2C_Master_Stop:	
   594                           ; 1 bytes @ 0x0
   595                           
   596     0070                     ??_I2C_Master_Stop:	
   597                           ; 1 bytes @ 0x0
   598                           
   599     0070                     ?_I2C_Master_Write:	
   600                           ; 1 bytes @ 0x0
   601                           
   602     0070                     ?_main:	
   603                           ; 1 bytes @ 0x0
   604                           
   605     0070                     ?_Lcd_Port:	
   606                           ; 1 bytes @ 0x0
   607                           
   608     0070                     ??_Lcd_Port:	
   609                           ; 1 bytes @ 0x0
   610                           
   611     0070                     ?_Lcd_Cmd:	
   612                           ; 1 bytes @ 0x0
   613                           
   614     0070                     ?_Lcd_Write_Char:	
   615                           ; 1 bytes @ 0x0
   616                           
   617     0070                     ?___bmul:	
   618                           ; 1 bytes @ 0x0
   619                           
   620     0070                     ?_I2C_Master_Read:	
   621                           ; 1 bytes @ 0x0
   622                           
   623     0070                     ?___lwdiv:	
   624                           ; 2 bytes @ 0x0
   625                           
   626     0070                     ?___lldiv:	
   627                           ; 2 bytes @ 0x0
   628                           
   629     0070                     Lcd_Port@a:	
   630                           ; 4 bytes @ 0x0
   631                           
   632     0070                     ___bmul@multiplicand:	
   633                           ; 1 bytes @ 0x0
   634                           
   635     0070                     _isdigit$754:	
   636                           ; 1 bytes @ 0x0
   637                           
   638     0070                     I2C_Master_Write@d:	
   639                           ; 1 bytes @ 0x0
   640                           
   641     0070                     I2C_Master_Read@a:	
   642                           ; 2 bytes @ 0x0
   643                           
   644     0070                     ___lwdiv@divisor:	
   645                           ; 2 bytes @ 0x0
   646                           
   647     0070                     ___lldiv@divisor:	
   648                           ; 2 bytes @ 0x0
   649                           
   650                           
   651                           ; 4 bytes @ 0x0
   652     0070                     	ds	1
   653     0071                     ??_Lcd_Cmd:
   654     0071                     ??_Lcd_Write_Char:	
   655                           ; 1 bytes @ 0x1
   656                           
   657     0071                     ??___bmul:	
   658                           ; 1 bytes @ 0x1
   659                           
   660     0071                     ___bmul@product:	
   661                           ; 1 bytes @ 0x1
   662                           
   663     0071                     isdigit@c:	
   664                           ; 1 bytes @ 0x1
   665                           
   666                           
   667                           ; 1 bytes @ 0x1
   668     0071                     	ds	1
   669     0072                     ??_I2C_Master_Write:
   670     0072                     ??_I2C_Master_Read:	
   671                           ; 1 bytes @ 0x2
   672                           
   673     0072                     Lcd_Write_Char@a:	
   674                           ; 1 bytes @ 0x2
   675                           
   676     0072                     ___bmul@multiplier:	
   677                           ; 1 bytes @ 0x2
   678                           
   679     0072                     ___lwdiv@dividend:	
   680                           ; 1 bytes @ 0x2
   681                           
   682                           
   683                           ; 2 bytes @ 0x2
   684     0072                     	ds	1
   685     0073                     ?_Lcd_Write_String:
   686     0073                     Lcd_Cmd@a:	
   687                           ; 1 bytes @ 0x3
   688                           
   689     0073                     Lcd_Write_String@a:	
   690                           ; 1 bytes @ 0x3
   691                           
   692                           
   693                           ; 2 bytes @ 0x3
   694     0073                     	ds	1
   695     0074                     ??_Lcd_Init:
   696     0074                     ??_Lcd_Clear:	
   697                           ; 1 bytes @ 0x4
   698                           
   699     0074                     ?_Lcd_Set_Cursor:	
   700                           ; 1 bytes @ 0x4
   701                           
   702     0074                     ??___lwdiv:	
   703                           ; 1 bytes @ 0x4
   704                           
   705     0074                     Lcd_Set_Cursor@b:	
   706                           ; 1 bytes @ 0x4
   707                           
   708     0074                     I2C_Master_Read@temp:	
   709                           ; 1 bytes @ 0x4
   710                           
   711     0074                     ___lwdiv@quotient:	
   712                           ; 2 bytes @ 0x4
   713                           
   714     0074                     ___lldiv@dividend:	
   715                           ; 2 bytes @ 0x4
   716                           
   717                           
   718                           ; 4 bytes @ 0x4
   719     0074                     	ds	1
   720     0075                     ??_Lcd_Set_Cursor:
   721     0075                     ??_Lcd_Write_String:	
   722                           ; 1 bytes @ 0x5
   723                           
   724     0075                     Lcd_Set_Cursor@a:	
   725                           ; 1 bytes @ 0x5
   726                           
   727                           
   728                           ; 1 bytes @ 0x5
   729     0075                     	ds	1
   730     0076                     ??_slave1Communication:
   731     0076                     ??_slave2Communication:	
   732                           ; 1 bytes @ 0x6
   733                           
   734     0076                     Lcd_Set_Cursor@temp:	
   735                           ; 1 bytes @ 0x6
   736                           
   737     0076                     ___lwdiv@counter:	
   738                           ; 1 bytes @ 0x6
   739                           
   740                           
   741                           ; 1 bytes @ 0x6
   742     0076                     	ds	1
   743     0077                     ?___lwmod:
   744     0077                     ___lwmod@divisor:	
   745                           ; 2 bytes @ 0x7
   746                           
   747                           
   748                           ; 2 bytes @ 0x7
   749     0077                     	ds	1
   750     0078                     ??___lldiv:
   751     0078                     Lcd_Write_String@i:	
   752                           ; 1 bytes @ 0x8
   753                           
   754                           
   755                           ; 2 bytes @ 0x8
   756     0078                     	ds	1
   757     0079                     slave1Communication@valueS1:
   758     0079                     slave2Communication@valueS2:	
   759                           ; 1 bytes @ 0x9
   760                           
   761     0079                     ___lwmod@dividend:	
   762                           ; 1 bytes @ 0x9
   763                           
   764     0079                     ___lldiv@quotient:	
   765                           ; 2 bytes @ 0x9
   766                           
   767                           
   768                           ; 4 bytes @ 0x9
   769     0079                     	ds	1
   770     007A                     ??_usSensor:
   771                           
   772                           ; 1 bytes @ 0xA
   773     007A                     	ds	1
   774     007B                     ??___lwmod:
   775     007B                     ___lwmod@counter:	
   776                           ; 1 bytes @ 0xB
   777                           
   778                           
   779                           ; 1 bytes @ 0xB
   780     007B                     	ds	1
   781     007C                     ??_LCDprint:
   782                           
   783                           ; 1 bytes @ 0xC
   784     007C                     	ds	1
   785     007D                     ___lldiv@counter:
   786                           
   787                           ; 1 bytes @ 0xD
   788     007D                     	ds	1
   789     007E                     ??_setup:
   790     007E                     ??_main:	
   791                           ; 1 bytes @ 0xE
   792                           
   793                           
   794                           	psect	cstackBANK0
   795     003C                     __pcstackBANK0:	
   796                           ; 1 bytes @ 0xE
   797                           
   798     003C                     ?_I2C_Master_Init:
   799     003C                     ?_sprintf:	
   800                           ; 1 bytes @ 0x0
   801                           
   802     003C                     sprintf@f:	
   803                           ; 2 bytes @ 0x0
   804                           
   805     003C                     I2C_Master_Init@c:	
   806                           ; 1 bytes @ 0x0
   807                           
   808                           
   809                           ; 4 bytes @ 0x0
   810     003C                     	ds	3
   811     003F                     ??_sprintf:
   812                           
   813                           ; 1 bytes @ 0x3
   814     003F                     	ds	1
   815     0040                     ??_I2C_Master_Init:
   816                           
   817                           ; 1 bytes @ 0x4
   818     0040                     	ds	2
   819     0042                     sprintf@ap:
   820                           
   821                           ; 1 bytes @ 0x6
   822     0042                     	ds	1
   823     0043                     sprintf@flag:
   824                           
   825                           ; 1 bytes @ 0x7
   826     0043                     	ds	1
   827     0044                     sprintf@sp:
   828                           
   829                           ; 1 bytes @ 0x8
   830     0044                     	ds	1
   831     0045                     sprintf@val:
   832                           
   833                           ; 2 bytes @ 0x9
   834     0045                     	ds	2
   835     0047                     sprintf@prec:
   836                           
   837                           ; 1 bytes @ 0xB
   838     0047                     	ds	1
   839     0048                     sprintf@c:
   840                           
   841                           ; 1 bytes @ 0xC
   842     0048                     	ds	1
   843                           
   844                           	psect	maintext
   845     032F                     __pmaintext:	
   846 ;;
   847 ;;Main: autosize = 0, tempsize = 0, incstack = 0, save=0
   848 ;;
   849 ;; *************** function _main *****************
   850 ;; Defined at:
   851 ;;		line 81 in file "E:/Universidad/Semestre2_2023/Digital-2/Proyecto1/Master/MasterPIC.X/MasterPIC.c"
   852 ;; Parameters:    Size  Location     Type
   853 ;;		None
   854 ;; Auto vars:     Size  Location     Type
   855 ;;		None
   856 ;; Return value:  Size  Location     Type
   857 ;;                  1    wreg      void 
   858 ;; Registers used:
   859 ;;		wreg, fsr0l, fsr0h, status,2, status,0, btemp+1, pclath, cstack
   860 ;; Tracked objects:
   861 ;;		On entry : B00/0
   862 ;;		On exit  : 0/0
   863 ;;		Unchanged: 0/0
   864 ;; Data sizes:     COMMON   BANK0   BANK1   BANK3   BANK2
   865 ;;      Params:         0       0       0       0       0
   866 ;;      Locals:         0       0       0       0       0
   867 ;;      Temps:          0       0       0       0       0
   868 ;;      Totals:         0       0       0       0       0
   869 ;;Total ram usage:        0 bytes
   870 ;; Hardware stack levels required when called: 5
   871 ;; This function calls:
   872 ;;		_LCDprint
   873 ;;		_dcForward
   874 ;;		_setup
   875 ;;		_slave1Communication
   876 ;;		_slave2Communication
   877 ;; This function is called by:
   878 ;;		Startup code after reset
   879 ;; This function uses a non-reentrant model
   880 ;;
   881                           
   882     032F                     _main:	
   883                           ;psect for function _main
   884                           
   885     032F                     l1779:	
   886                           ;incstack = 0
   887                           ; Regs used in _main: [wreg-fsr0h+status,2+status,0+btemp+1+pclath+cstack]
   888                           
   889                           
   890                           ;E:/Universidad/Semestre2_2023/Digital-2/Proyecto1/Master/MasterPIC.X/MasterPIC.c: 82:  
      +                             setup();
   891     032F  120A  118A  2374  120A  118A  	fcall	_setup
   892     0334                     l1781:
   893                           
   894                           ;E:/Universidad/Semestre2_2023/Digital-2/Proyecto1/Master/MasterPIC.X/MasterPIC.c: 85:  
      +                                 PORTB = motor1;
   895     0334  1283               	bcf	3,5	;RP0=0, select bank0
   896     0335  1303               	bcf	3,6	;RP1=0, select bank0
   897     0336  0829               	movf	_motor1,w
   898     0337  0086               	movwf	6	;volatile
   899     0338                     l1783:
   900                           
   901                           ;E:/Universidad/Semestre2_2023/Digital-2/Proyecto1/Master/MasterPIC.X/MasterPIC.c: 86:  
      +                                 dcForward();
   902     0338  120A  118A  2279  120A  118A  	fcall	_dcForward
   903     033D                     l1785:
   904                           
   905                           ;E:/Universidad/Semestre2_2023/Digital-2/Proyecto1/Master/MasterPIC.X/MasterPIC.c: 89:  
      +                                 slave1Communication();
   906     033D  120A  118A  2590  120A  118A  	fcall	_slave1Communication
   907     0342                     l1787:
   908                           
   909                           ;E:/Universidad/Semestre2_2023/Digital-2/Proyecto1/Master/MasterPIC.X/MasterPIC.c: 92:  
      +                                 slave2Communication();
   910     0342  120A  118A  25E6  120A  118A  	fcall	_slave2Communication
   911     0347                     l1789:
   912                           
   913                           ;E:/Universidad/Semestre2_2023/Digital-2/Proyecto1/Master/MasterPIC.X/MasterPIC.c: 100: 
      +                                  LCDprint();
   914     0347  120A  118A  247B  120A  118A  	fcall	_LCDprint
   915     034C  2B34               	goto	l1781
   916     034D  120A  118A  2800   	ljmp	start
   917     0350                     __end_of_main:
   918                           
   919                           	psect	text1
   920     05E6                     __ptext1:	
   921 ;; *************** function _slave2Communication *****************
   922 ;; Defined at:
   923 ;;		line 163 in file "E:/Universidad/Semestre2_2023/Digital-2/Proyecto1/Master/MasterPIC.X/MasterPIC.c"
   924 ;; Parameters:    Size  Location     Type
   925 ;;		None
   926 ;; Auto vars:     Size  Location     Type
   927 ;;  valueS2         1    9[COMMON] unsigned char 
   928 ;; Return value:  Size  Location     Type
   929 ;;                  1    wreg      void 
   930 ;; Registers used:
   931 ;;		wreg, status,2, status,0, pclath, cstack
   932 ;; Tracked objects:
   933 ;;		On entry : 0/0
   934 ;;		On exit  : 0/0
   935 ;;		Unchanged: 0/0
   936 ;; Data sizes:     COMMON   BANK0   BANK1   BANK3   BANK2
   937 ;;      Params:         0       0       0       0       0
   938 ;;      Locals:         1       0       0       0       0
   939 ;;      Temps:          3       0       0       0       0
   940 ;;      Totals:         4       0       0       0       0
   941 ;;Total ram usage:        4 bytes
   942 ;; Hardware stack levels used: 1
   943 ;; Hardware stack levels required when called: 2
   944 ;; This function calls:
   945 ;;		_I2C_Master_Read
   946 ;;		_I2C_Master_Start
   947 ;;		_I2C_Master_Stop
   948 ;;		_I2C_Master_Write
   949 ;; This function is called by:
   950 ;;		_main
   951 ;; This function uses a non-reentrant model
   952 ;;
   953                           
   954     05E6                     _slave2Communication:	
   955                           ;psect for function _slave2Communication
   956                           
   957     05E6                     l1745:	
   958                           ;incstack = 0
   959                           ; Regs used in _slave2Communication: [wreg+status,2+status,0+pclath+cstack]
   960                           
   961     05E6                     l1747:
   962                           
   963                           ;E:/Universidad/Semestre2_2023/Digital-2/Proyecto1/Master/MasterPIC.X/MasterPIC.c: 166: 
      +                                  I2C_Master_Start();
   964     05E6  120A  118A  2282  120A  118A  	fcall	_I2C_Master_Start
   965     05EB                     l1749:
   966                           
   967                           ;E:/Universidad/Semestre2_2023/Digital-2/Proyecto1/Master/MasterPIC.X/MasterPIC.c: 167: 
      +                                  I2C_Master_Write(0x60 + 1);
   968     05EB  3061               	movlw	97
   969     05EC  00F0               	movwf	I2C_Master_Write@d
   970     05ED  3000               	movlw	0
   971     05EE  00F1               	movwf	I2C_Master_Write@d+1
   972     05EF  120A  118A  2294  120A  118A  	fcall	_I2C_Master_Write
   973     05F4                     l1751:
   974                           
   975                           ;E:/Universidad/Semestre2_2023/Digital-2/Proyecto1/Master/MasterPIC.X/MasterPIC.c: 168: 
      +                                  valueS2 = I2C_Master_Read(0);
   976     05F4  3000               	movlw	0
   977     05F5  00F0               	movwf	I2C_Master_Read@a
   978     05F6  00F1               	movwf	I2C_Master_Read@a+1
   979     05F7  120A  118A  239D  120A  118A  	fcall	_I2C_Master_Read
   980     05FC  0870               	movf	?_I2C_Master_Read,w
   981     05FD  00F9               	movwf	slave2Communication@valueS2
   982     05FE                     l1753:
   983                           
   984                           ;E:/Universidad/Semestre2_2023/Digital-2/Proyecto1/Master/MasterPIC.X/MasterPIC.c: 169: 
      +                                  I2C_Master_Stop();
   985     05FE  120A  118A  228B  120A  118A  	fcall	_I2C_Master_Stop
   986     0603                     l1755:
   987                           
   988                           ;E:/Universidad/Semestre2_2023/Digital-2/Proyecto1/Master/MasterPIC.X/MasterPIC.c: 170: 
      +                                  _delay((unsigned long)((200)*(8000000/4000.0)));
   989     0603  3003               	movlw	3
   990     0604  00F8               	movwf	??_slave2Communication+2
   991     0605  3008               	movlw	8
   992     0606  00F7               	movwf	??_slave2Communication+1
   993     0607  3077               	movlw	119
   994     0608  00F6               	movwf	??_slave2Communication
   995     0609                     u1117:
   996     0609  0BF6               	decfsz	??_slave2Communication,f
   997     060A  2E09               	goto	u1117
   998     060B  0BF7               	decfsz	??_slave2Communication+1,f
   999     060C  2E09               	goto	u1117
  1000     060D  0BF8               	decfsz	??_slave2Communication+2,f
  1001     060E  2E09               	goto	u1117
  1002     060F                     l1757:
  1003                           
  1004                           ;E:/Universidad/Semestre2_2023/Digital-2/Proyecto1/Master/MasterPIC.X/MasterPIC.c: 172: 
      +                                  I2C_Master_Start();
  1005     060F  120A  118A  2282  120A  118A  	fcall	_I2C_Master_Start
  1006     0614                     l1759:
  1007                           
  1008                           ;E:/Universidad/Semestre2_2023/Digital-2/Proyecto1/Master/MasterPIC.X/MasterPIC.c: 173: 
      +                                  I2C_Master_Write(0x60);
  1009     0614  3060               	movlw	96
  1010     0615  00F0               	movwf	I2C_Master_Write@d
  1011     0616  3000               	movlw	0
  1012     0617  00F1               	movwf	I2C_Master_Write@d+1
  1013     0618  120A  118A  2294  120A  118A  	fcall	_I2C_Master_Write
  1014     061D                     l1761:
  1015                           
  1016                           ;E:/Universidad/Semestre2_2023/Digital-2/Proyecto1/Master/MasterPIC.X/MasterPIC.c: 174: 
      +                                  I2C_Master_Write(0b00011000);
  1017     061D  3018               	movlw	24
  1018     061E  00F0               	movwf	I2C_Master_Write@d
  1019     061F  3000               	movlw	0
  1020     0620  00F1               	movwf	I2C_Master_Write@d+1
  1021     0621  120A  118A  2294  120A  118A  	fcall	_I2C_Master_Write
  1022     0626                     l1763:
  1023                           
  1024                           ;E:/Universidad/Semestre2_2023/Digital-2/Proyecto1/Master/MasterPIC.X/MasterPIC.c: 175: 
      +                                  I2C_Master_Stop();
  1025     0626  120A  118A  228B  120A  118A  	fcall	_I2C_Master_Stop
  1026     062B                     l1765:
  1027                           
  1028                           ;E:/Universidad/Semestre2_2023/Digital-2/Proyecto1/Master/MasterPIC.X/MasterPIC.c: 176: 
      +                                  motor1 = valueS2;
  1029     062B  0879               	movf	slave2Communication@valueS2,w
  1030     062C  1283               	bcf	3,5	;RP0=0, select bank0
  1031     062D  1303               	bcf	3,6	;RP1=0, select bank0
  1032     062E  00A9               	movwf	_motor1
  1033     062F                     l1767:
  1034                           
  1035                           ;E:/Universidad/Semestre2_2023/Digital-2/Proyecto1/Master/MasterPIC.X/MasterPIC.c: 177: 
      +                                  _delay((unsigned long)((200)*(8000000/4000.0)));
  1036     062F  3003               	movlw	3
  1037     0630  00F8               	movwf	??_slave2Communication+2
  1038     0631  3008               	movlw	8
  1039     0632  00F7               	movwf	??_slave2Communication+1
  1040     0633  3077               	movlw	119
  1041     0634  00F6               	movwf	??_slave2Communication
  1042     0635                     u1127:
  1043     0635  0BF6               	decfsz	??_slave2Communication,f
  1044     0636  2E35               	goto	u1127
  1045     0637  0BF7               	decfsz	??_slave2Communication+1,f
  1046     0638  2E35               	goto	u1127
  1047     0639  0BF8               	decfsz	??_slave2Communication+2,f
  1048     063A  2E35               	goto	u1127
  1049     063B                     l159:
  1050     063B  0008               	return
  1051     063C                     __end_of_slave2Communication:
  1052                           
  1053                           	psect	text2
  1054     0590                     __ptext2:	
  1055 ;; *************** function _slave1Communication *****************
  1056 ;; Defined at:
  1057 ;;		line 145 in file "E:/Universidad/Semestre2_2023/Digital-2/Proyecto1/Master/MasterPIC.X/MasterPIC.c"
  1058 ;; Parameters:    Size  Location     Type
  1059 ;;		None
  1060 ;; Auto vars:     Size  Location     Type
  1061 ;;  valueS1         1    9[COMMON] unsigned char 
  1062 ;; Return value:  Size  Location     Type
  1063 ;;                  1    wreg      void 
  1064 ;; Registers used:
  1065 ;;		wreg, status,2, status,0, pclath, cstack
  1066 ;; Tracked objects:
  1067 ;;		On entry : 0/0
  1068 ;;		On exit  : 0/0
  1069 ;;		Unchanged: 0/0
  1070 ;; Data sizes:     COMMON   BANK0   BANK1   BANK3   BANK2
  1071 ;;      Params:         0       0       0       0       0
  1072 ;;      Locals:         1       0       0       0       0
  1073 ;;      Temps:          3       0       0       0       0
  1074 ;;      Totals:         4       0       0       0       0
  1075 ;;Total ram usage:        4 bytes
  1076 ;; Hardware stack levels used: 1
  1077 ;; Hardware stack levels required when called: 2
  1078 ;; This function calls:
  1079 ;;		_I2C_Master_Read
  1080 ;;		_I2C_Master_Start
  1081 ;;		_I2C_Master_Stop
  1082 ;;		_I2C_Master_Write
  1083 ;; This function is called by:
  1084 ;;		_main
  1085 ;; This function uses a non-reentrant model
  1086 ;;
  1087                           
  1088     0590                     _slave1Communication:	
  1089                           ;psect for function _slave1Communication
  1090                           
  1091     0590                     l1721:	
  1092                           ;incstack = 0
  1093                           ; Regs used in _slave1Communication: [wreg+status,2+status,0+pclath+cstack]
  1094                           
  1095     0590                     l1723:
  1096                           
  1097                           ;E:/Universidad/Semestre2_2023/Digital-2/Proyecto1/Master/MasterPIC.X/MasterPIC.c: 148: 
      +                                  I2C_Master_Start();
  1098     0590  120A  118A  2282  120A  118A  	fcall	_I2C_Master_Start
  1099     0595                     l1725:
  1100                           
  1101                           ;E:/Universidad/Semestre2_2023/Digital-2/Proyecto1/Master/MasterPIC.X/MasterPIC.c: 149: 
      +                                  I2C_Master_Write(0x50 + 1);
  1102     0595  3051               	movlw	81
  1103     0596  00F0               	movwf	I2C_Master_Write@d
  1104     0597  3000               	movlw	0
  1105     0598  00F1               	movwf	I2C_Master_Write@d+1
  1106     0599  120A  118A  2294  120A  118A  	fcall	_I2C_Master_Write
  1107     059E                     l1727:
  1108                           
  1109                           ;E:/Universidad/Semestre2_2023/Digital-2/Proyecto1/Master/MasterPIC.X/MasterPIC.c: 150: 
      +                                  valueS1 = I2C_Master_Read(0);
  1110     059E  3000               	movlw	0
  1111     059F  00F0               	movwf	I2C_Master_Read@a
  1112     05A0  00F1               	movwf	I2C_Master_Read@a+1
  1113     05A1  120A  118A  239D  120A  118A  	fcall	_I2C_Master_Read
  1114     05A6  0870               	movf	?_I2C_Master_Read,w
  1115     05A7  00F9               	movwf	slave1Communication@valueS1
  1116     05A8                     l1729:
  1117                           
  1118                           ;E:/Universidad/Semestre2_2023/Digital-2/Proyecto1/Master/MasterPIC.X/MasterPIC.c: 151: 
      +                                  I2C_Master_Stop();
  1119     05A8  120A  118A  228B  120A  118A  	fcall	_I2C_Master_Stop
  1120     05AD                     l1731:
  1121                           
  1122                           ;E:/Universidad/Semestre2_2023/Digital-2/Proyecto1/Master/MasterPIC.X/MasterPIC.c: 152: 
      +                                  _delay((unsigned long)((200)*(8000000/4000.0)));
  1123     05AD  3003               	movlw	3
  1124     05AE  00F8               	movwf	??_slave1Communication+2
  1125     05AF  3008               	movlw	8
  1126     05B0  00F7               	movwf	??_slave1Communication+1
  1127     05B1  3077               	movlw	119
  1128     05B2  00F6               	movwf	??_slave1Communication
  1129     05B3                     u1137:
  1130     05B3  0BF6               	decfsz	??_slave1Communication,f
  1131     05B4  2DB3               	goto	u1137
  1132     05B5  0BF7               	decfsz	??_slave1Communication+1,f
  1133     05B6  2DB3               	goto	u1137
  1134     05B7  0BF8               	decfsz	??_slave1Communication+2,f
  1135     05B8  2DB3               	goto	u1137
  1136     05B9                     l1733:
  1137                           
  1138                           ;E:/Universidad/Semestre2_2023/Digital-2/Proyecto1/Master/MasterPIC.X/MasterPIC.c: 154: 
      +                                  I2C_Master_Start();
  1139     05B9  120A  118A  2282  120A  118A  	fcall	_I2C_Master_Start
  1140     05BE                     l1735:
  1141                           
  1142                           ;E:/Universidad/Semestre2_2023/Digital-2/Proyecto1/Master/MasterPIC.X/MasterPIC.c: 155: 
      +                                  I2C_Master_Write(0x50);
  1143     05BE  3050               	movlw	80
  1144     05BF  00F0               	movwf	I2C_Master_Write@d
  1145     05C0  3000               	movlw	0
  1146     05C1  00F1               	movwf	I2C_Master_Write@d+1
  1147     05C2  120A  118A  2294  120A  118A  	fcall	_I2C_Master_Write
  1148     05C7                     l1737:
  1149                           
  1150                           ;E:/Universidad/Semestre2_2023/Digital-2/Proyecto1/Master/MasterPIC.X/MasterPIC.c: 156: 
      +                                  I2C_Master_Write(0b10000001);
  1151     05C7  3081               	movlw	129
  1152     05C8  00F0               	movwf	I2C_Master_Write@d
  1153     05C9  3000               	movlw	0
  1154     05CA  00F1               	movwf	I2C_Master_Write@d+1
  1155     05CB  120A  118A  2294  120A  118A  	fcall	_I2C_Master_Write
  1156     05D0                     l1739:
  1157                           
  1158                           ;E:/Universidad/Semestre2_2023/Digital-2/Proyecto1/Master/MasterPIC.X/MasterPIC.c: 157: 
      +                                  I2C_Master_Stop();
  1159     05D0  120A  118A  228B  120A  118A  	fcall	_I2C_Master_Stop
  1160     05D5                     l1741:
  1161                           
  1162                           ;E:/Universidad/Semestre2_2023/Digital-2/Proyecto1/Master/MasterPIC.X/MasterPIC.c: 158: 
      +                                  ultrasonicValue = valueS1;
  1163     05D5  0879               	movf	slave1Communication@valueS1,w
  1164     05D6  1283               	bcf	3,5	;RP0=0, select bank0
  1165     05D7  1303               	bcf	3,6	;RP1=0, select bank0
  1166     05D8  00AA               	movwf	_ultrasonicValue
  1167     05D9                     l1743:
  1168                           
  1169                           ;E:/Universidad/Semestre2_2023/Digital-2/Proyecto1/Master/MasterPIC.X/MasterPIC.c: 159: 
      +                                  _delay((unsigned long)((200)*(8000000/4000.0)));
  1170     05D9  3003               	movlw	3
  1171     05DA  00F8               	movwf	??_slave1Communication+2
  1172     05DB  3008               	movlw	8
  1173     05DC  00F7               	movwf	??_slave1Communication+1
  1174     05DD  3077               	movlw	119
  1175     05DE  00F6               	movwf	??_slave1Communication
  1176     05DF                     u1147:
  1177     05DF  0BF6               	decfsz	??_slave1Communication,f
  1178     05E0  2DDF               	goto	u1147
  1179     05E1  0BF7               	decfsz	??_slave1Communication+1,f
  1180     05E2  2DDF               	goto	u1147
  1181     05E3  0BF8               	decfsz	??_slave1Communication+2,f
  1182     05E4  2DDF               	goto	u1147
  1183     05E5                     l156:
  1184     05E5  0008               	return
  1185     05E6                     __end_of_slave1Communication:
  1186                           
  1187                           	psect	text3
  1188     0294                     __ptext3:	
  1189 ;; *************** function _I2C_Master_Write *****************
  1190 ;; Defined at:
  1191 ;;		line 65 in file "E:/Universidad/Semestre2_2023/Digital-2/Proyecto1/Master/MasterPIC.X/I2C.c"
  1192 ;; Parameters:    Size  Location     Type
  1193 ;;  d               2    0[COMMON] unsigned int 
  1194 ;; Auto vars:     Size  Location     Type
  1195 ;;		None
  1196 ;; Return value:  Size  Location     Type
  1197 ;;                  1    wreg      void 
  1198 ;; Registers used:
  1199 ;;		wreg, status,2, status,0, pclath, cstack
  1200 ;; Tracked objects:
  1201 ;;		On entry : 0/0
  1202 ;;		On exit  : 0/0
  1203 ;;		Unchanged: 0/0
  1204 ;; Data sizes:     COMMON   BANK0   BANK1   BANK3   BANK2
  1205 ;;      Params:         2       0       0       0       0
  1206 ;;      Locals:         0       0       0       0       0
  1207 ;;      Temps:          0       0       0       0       0
  1208 ;;      Totals:         2       0       0       0       0
  1209 ;;Total ram usage:        2 bytes
  1210 ;; Hardware stack levels used: 1
  1211 ;; Hardware stack levels required when called: 1
  1212 ;; This function calls:
  1213 ;;		_I2C_Master_Wait
  1214 ;; This function is called by:
  1215 ;;		_slave1Communication
  1216 ;;		_slave2Communication
  1217 ;;		_ReadGyroscopeData
  1218 ;; This function uses a non-reentrant model
  1219 ;;
  1220                           
  1221     0294                     _I2C_Master_Write:	
  1222                           ;psect for function _I2C_Master_Write
  1223                           
  1224     0294                     l1553:	
  1225                           ;incstack = 0
  1226                           ; Regs used in _I2C_Master_Write: [wreg+status,2+status,0+pclath+cstack]
  1227                           
  1228                           
  1229                           ;E:/Universidad/Semestre2_2023/Digital-2/Proyecto1/Master/MasterPIC.X/I2C.c: 65: void I2
      +                          C_Master_Write(unsigned d);E:/Universidad/Semestre2_2023/Digital-2/Proyecto1/Master/Mast
      +                          erPIC.X/I2C.c: 66: {;E:/Universidad/Semestre2_2023/Digital-2/Proyecto1/Master/MasterPIC.
      +                          X/I2C.c: 67:     I2C_Master_Wait();
  1230     0294  120A  118A  22AB  120A  118A  	fcall	_I2C_Master_Wait
  1231     0299                     l1555:
  1232                           
  1233                           ;E:/Universidad/Semestre2_2023/Digital-2/Proyecto1/Master/MasterPIC.X/I2C.c: 68:     SSP
      +                          BUF = d;
  1234     0299  0870               	movf	I2C_Master_Write@d,w
  1235     029A  1283               	bcf	3,5	;RP0=0, select bank0
  1236     029B  1303               	bcf	3,6	;RP1=0, select bank0
  1237     029C  0093               	movwf	19	;volatile
  1238     029D                     l47:
  1239     029D  0008               	return
  1240     029E                     __end_of_I2C_Master_Write:
  1241                           
  1242                           	psect	text4
  1243     028B                     __ptext4:	
  1244 ;; *************** function _I2C_Master_Stop *****************
  1245 ;; Defined at:
  1246 ;;		line 55 in file "E:/Universidad/Semestre2_2023/Digital-2/Proyecto1/Master/MasterPIC.X/I2C.c"
  1247 ;; Parameters:    Size  Location     Type
  1248 ;;		None
  1249 ;; Auto vars:     Size  Location     Type
  1250 ;;		None
  1251 ;; Return value:  Size  Location     Type
  1252 ;;                  1    wreg      void 
  1253 ;; Registers used:
  1254 ;;		wreg, status,2, status,0, pclath, cstack
  1255 ;; Tracked objects:
  1256 ;;		On entry : 0/0
  1257 ;;		On exit  : 0/0
  1258 ;;		Unchanged: 0/0
  1259 ;; Data sizes:     COMMON   BANK0   BANK1   BANK3   BANK2
  1260 ;;      Params:         0       0       0       0       0
  1261 ;;      Locals:         0       0       0       0       0
  1262 ;;      Temps:          0       0       0       0       0
  1263 ;;      Totals:         0       0       0       0       0
  1264 ;;Total ram usage:        0 bytes
  1265 ;; Hardware stack levels used: 1
  1266 ;; Hardware stack levels required when called: 1
  1267 ;; This function calls:
  1268 ;;		_I2C_Master_Wait
  1269 ;; This function is called by:
  1270 ;;		_slave1Communication
  1271 ;;		_slave2Communication
  1272 ;;		_ReadGyroscopeData
  1273 ;; This function uses a non-reentrant model
  1274 ;;
  1275                           
  1276     028B                     _I2C_Master_Stop:	
  1277                           ;psect for function _I2C_Master_Stop
  1278                           
  1279     028B                     l1549:	
  1280                           ;incstack = 0
  1281                           ; Regs used in _I2C_Master_Stop: [wreg+status,2+status,0+pclath+cstack]
  1282                           
  1283                           
  1284                           ;E:/Universidad/Semestre2_2023/Digital-2/Proyecto1/Master/MasterPIC.X/I2C.c: 57:     I2C
      +                          _Master_Wait();
  1285     028B  120A  118A  22AB  120A  118A  	fcall	_I2C_Master_Wait
  1286     0290                     l1551:
  1287                           
  1288                           ;E:/Universidad/Semestre2_2023/Digital-2/Proyecto1/Master/MasterPIC.X/I2C.c: 58:     SSP
      +                          CON2bits.PEN = 1;
  1289     0290  1683               	bsf	3,5	;RP0=1, select bank1
  1290     0291  1303               	bcf	3,6	;RP1=0, select bank1
  1291     0292  1511               	bsf	17,2	;volatile
  1292     0293                     l44:
  1293     0293  0008               	return
  1294     0294                     __end_of_I2C_Master_Stop:
  1295                           
  1296                           	psect	text5
  1297     0282                     __ptext5:	
  1298 ;; *************** function _I2C_Master_Start *****************
  1299 ;; Defined at:
  1300 ;;		line 39 in file "E:/Universidad/Semestre2_2023/Digital-2/Proyecto1/Master/MasterPIC.X/I2C.c"
  1301 ;; Parameters:    Size  Location     Type
  1302 ;;		None
  1303 ;; Auto vars:     Size  Location     Type
  1304 ;;		None
  1305 ;; Return value:  Size  Location     Type
  1306 ;;                  1    wreg      void 
  1307 ;; Registers used:
  1308 ;;		wreg, status,2, status,0, pclath, cstack
  1309 ;; Tracked objects:
  1310 ;;		On entry : 0/0
  1311 ;;		On exit  : 0/0
  1312 ;;		Unchanged: 0/0
  1313 ;; Data sizes:     COMMON   BANK0   BANK1   BANK3   BANK2
  1314 ;;      Params:         0       0       0       0       0
  1315 ;;      Locals:         0       0       0       0       0
  1316 ;;      Temps:          0       0       0       0       0
  1317 ;;      Totals:         0       0       0       0       0
  1318 ;;Total ram usage:        0 bytes
  1319 ;; Hardware stack levels used: 1
  1320 ;; Hardware stack levels required when called: 1
  1321 ;; This function calls:
  1322 ;;		_I2C_Master_Wait
  1323 ;; This function is called by:
  1324 ;;		_slave1Communication
  1325 ;;		_slave2Communication
  1326 ;;		_ReadGyroscopeData
  1327 ;; This function uses a non-reentrant model
  1328 ;;
  1329                           
  1330     0282                     _I2C_Master_Start:	
  1331                           ;psect for function _I2C_Master_Start
  1332                           
  1333     0282                     l1545:	
  1334                           ;incstack = 0
  1335                           ; Regs used in _I2C_Master_Start: [wreg+status,2+status,0+pclath+cstack]
  1336                           
  1337                           
  1338                           ;E:/Universidad/Semestre2_2023/Digital-2/Proyecto1/Master/MasterPIC.X/I2C.c: 41:     I2C
      +                          _Master_Wait();
  1339     0282  120A  118A  22AB  120A  118A  	fcall	_I2C_Master_Wait
  1340     0287                     l1547:
  1341                           
  1342                           ;E:/Universidad/Semestre2_2023/Digital-2/Proyecto1/Master/MasterPIC.X/I2C.c: 42:     SSP
      +                          CON2bits.SEN = 1;
  1343     0287  1683               	bsf	3,5	;RP0=1, select bank1
  1344     0288  1303               	bcf	3,6	;RP1=0, select bank1
  1345     0289  1411               	bsf	17,0	;volatile
  1346     028A                     l38:
  1347     028A  0008               	return
  1348     028B                     __end_of_I2C_Master_Start:
  1349                           
  1350                           	psect	text6
  1351     039D                     __ptext6:	
  1352 ;; *************** function _I2C_Master_Read *****************
  1353 ;; Defined at:
  1354 ;;		line 74 in file "E:/Universidad/Semestre2_2023/Digital-2/Proyecto1/Master/MasterPIC.X/I2C.c"
  1355 ;; Parameters:    Size  Location     Type
  1356 ;;  a               2    0[COMMON] unsigned short 
  1357 ;; Auto vars:     Size  Location     Type
  1358 ;;  temp            2    4[COMMON] unsigned short 
  1359 ;; Return value:  Size  Location     Type
  1360 ;;                  2    0[COMMON] unsigned short 
  1361 ;; Registers used:
  1362 ;;		wreg, status,2, status,0, pclath, cstack
  1363 ;; Tracked objects:
  1364 ;;		On entry : 0/0
  1365 ;;		On exit  : 0/0
  1366 ;;		Unchanged: 0/0
  1367 ;; Data sizes:     COMMON   BANK0   BANK1   BANK3   BANK2
  1368 ;;      Params:         2       0       0       0       0
  1369 ;;      Locals:         2       0       0       0       0
  1370 ;;      Temps:          2       0       0       0       0
  1371 ;;      Totals:         6       0       0       0       0
  1372 ;;Total ram usage:        6 bytes
  1373 ;; Hardware stack levels used: 1
  1374 ;; Hardware stack levels required when called: 1
  1375 ;; This function calls:
  1376 ;;		_I2C_Master_Wait
  1377 ;; This function is called by:
  1378 ;;		_slave1Communication
  1379 ;;		_slave2Communication
  1380 ;;		_ReadGyroscopeData
  1381 ;; This function uses a non-reentrant model
  1382 ;;
  1383                           
  1384     039D                     _I2C_Master_Read:	
  1385                           ;psect for function _I2C_Master_Read
  1386                           
  1387     039D                     l1557:	
  1388                           ;incstack = 0
  1389                           ; Regs used in _I2C_Master_Read: [wreg+status,2+status,0+pclath+cstack]
  1390                           
  1391                           
  1392                           ;E:/Universidad/Semestre2_2023/Digital-2/Proyecto1/Master/MasterPIC.X/I2C.c: 74: unsigne
      +                          d short I2C_Master_Read(unsigned short a);E:/Universidad/Semestre2_2023/Digital-2/Proyec
      +                          to1/Master/MasterPIC.X/I2C.c: 75: {;E:/Universidad/Semestre2_2023/Digital-2/Proyecto1/Ma
      +                          ster/MasterPIC.X/I2C.c: 76:     unsigned short temp;;E:/Universidad/Semestre2_2023/Digit
      +                          al-2/Proyecto1/Master/MasterPIC.X/I2C.c: 77:     I2C_Master_Wait();
  1393     039D  120A  118A  22AB  120A  118A  	fcall	_I2C_Master_Wait
  1394     03A2                     l1559:
  1395                           
  1396                           ;E:/Universidad/Semestre2_2023/Digital-2/Proyecto1/Master/MasterPIC.X/I2C.c: 78:     SSP
      +                          CON2bits.RCEN = 1;
  1397     03A2  1683               	bsf	3,5	;RP0=1, select bank1
  1398     03A3  1303               	bcf	3,6	;RP1=0, select bank1
  1399     03A4  1591               	bsf	17,3	;volatile
  1400                           
  1401                           ;E:/Universidad/Semestre2_2023/Digital-2/Proyecto1/Master/MasterPIC.X/I2C.c: 79:     I2C
      +                          _Master_Wait();
  1402     03A5  120A  118A  22AB  120A  118A  	fcall	_I2C_Master_Wait
  1403     03AA                     l1561:
  1404                           
  1405                           ;E:/Universidad/Semestre2_2023/Digital-2/Proyecto1/Master/MasterPIC.X/I2C.c: 80:     tem
      +                          p = SSPBUF;
  1406     03AA  1283               	bcf	3,5	;RP0=0, select bank0
  1407     03AB  1303               	bcf	3,6	;RP1=0, select bank0
  1408     03AC  0813               	movf	19,w	;volatile
  1409     03AD  00F2               	movwf	??_I2C_Master_Read
  1410     03AE  01F3               	clrf	??_I2C_Master_Read+1
  1411     03AF  0872               	movf	??_I2C_Master_Read,w
  1412     03B0  00F4               	movwf	I2C_Master_Read@temp
  1413     03B1  0873               	movf	??_I2C_Master_Read+1,w
  1414     03B2  00F5               	movwf	I2C_Master_Read@temp+1
  1415     03B3                     l1563:
  1416                           
  1417                           ;E:/Universidad/Semestre2_2023/Digital-2/Proyecto1/Master/MasterPIC.X/I2C.c: 81:     I2C
      +                          _Master_Wait();
  1418     03B3  120A  118A  22AB  120A  118A  	fcall	_I2C_Master_Wait
  1419     03B8                     l1565:
  1420                           
  1421                           ;E:/Universidad/Semestre2_2023/Digital-2/Proyecto1/Master/MasterPIC.X/I2C.c: 82:     if(
      +                          a == 1){
  1422     03B8  0370               	decf	I2C_Master_Read@a,w
  1423     03B9  0471               	iorwf	I2C_Master_Read@a+1,w
  1424     03BA  1D03               	btfss	3,2
  1425     03BB  2BBD               	goto	u961
  1426     03BC  2BBE               	goto	u960
  1427     03BD                     u961:
  1428     03BD  2BC2               	goto	l50
  1429     03BE                     u960:
  1430     03BE                     l1567:
  1431                           
  1432                           ;E:/Universidad/Semestre2_2023/Digital-2/Proyecto1/Master/MasterPIC.X/I2C.c: 83:        
      +                           SSPCON2bits.ACKDT = 0;
  1433     03BE  1683               	bsf	3,5	;RP0=1, select bank1
  1434     03BF  1303               	bcf	3,6	;RP1=0, select bank1
  1435     03C0  1291               	bcf	17,5	;volatile
  1436                           
  1437                           ;E:/Universidad/Semestre2_2023/Digital-2/Proyecto1/Master/MasterPIC.X/I2C.c: 84:     }el
      +                          se{
  1438     03C1  2BC5               	goto	l51
  1439     03C2                     l50:
  1440                           
  1441                           ;E:/Universidad/Semestre2_2023/Digital-2/Proyecto1/Master/MasterPIC.X/I2C.c: 85:        
      +                           SSPCON2bits.ACKDT = 1;
  1442     03C2  1683               	bsf	3,5	;RP0=1, select bank1
  1443     03C3  1303               	bcf	3,6	;RP1=0, select bank1
  1444     03C4  1691               	bsf	17,5	;volatile
  1445     03C5                     l51:	
  1446                           ;E:/Universidad/Semestre2_2023/Digital-2/Proyecto1/Master/MasterPIC.X/I2C.c: 86:     }
  1447                           
  1448                           
  1449                           ;E:/Universidad/Semestre2_2023/Digital-2/Proyecto1/Master/MasterPIC.X/I2C.c: 87:     SSP
      +                          CON2bits.ACKEN = 1;
  1450     03C5  1611               	bsf	17,4	;volatile
  1451     03C6                     l1569:
  1452                           
  1453                           ;E:/Universidad/Semestre2_2023/Digital-2/Proyecto1/Master/MasterPIC.X/I2C.c: 88:     ret
      +                          urn temp;
  1454     03C6  0875               	movf	I2C_Master_Read@temp+1,w
  1455     03C7  00F1               	movwf	?_I2C_Master_Read+1
  1456     03C8  0874               	movf	I2C_Master_Read@temp,w
  1457     03C9  00F0               	movwf	?_I2C_Master_Read
  1458     03CA                     l52:
  1459     03CA  0008               	return
  1460     03CB                     __end_of_I2C_Master_Read:
  1461                           
  1462                           	psect	text7
  1463     02AB                     __ptext7:	
  1464 ;; *************** function _I2C_Master_Wait *****************
  1465 ;; Defined at:
  1466 ;;		line 32 in file "E:/Universidad/Semestre2_2023/Digital-2/Proyecto1/Master/MasterPIC.X/I2C.c"
  1467 ;; Parameters:    Size  Location     Type
  1468 ;;		None
  1469 ;; Auto vars:     Size  Location     Type
  1470 ;;		None
  1471 ;; Return value:  Size  Location     Type
  1472 ;;                  1    wreg      void 
  1473 ;; Registers used:
  1474 ;;		wreg, status,2
  1475 ;; Tracked objects:
  1476 ;;		On entry : 0/0
  1477 ;;		On exit  : 0/0
  1478 ;;		Unchanged: 0/0
  1479 ;; Data sizes:     COMMON   BANK0   BANK1   BANK3   BANK2
  1480 ;;      Params:         0       0       0       0       0
  1481 ;;      Locals:         0       0       0       0       0
  1482 ;;      Temps:          0       0       0       0       0
  1483 ;;      Totals:         0       0       0       0       0
  1484 ;;Total ram usage:        0 bytes
  1485 ;; Hardware stack levels used: 1
  1486 ;; This function calls:
  1487 ;;		Nothing
  1488 ;; This function is called by:
  1489 ;;		_I2C_Master_Start
  1490 ;;		_I2C_Master_Stop
  1491 ;;		_I2C_Master_Write
  1492 ;;		_I2C_Master_Read
  1493 ;;		_I2C_Master_RepeatedStart
  1494 ;; This function uses a non-reentrant model
  1495 ;;
  1496                           
  1497     02AB                     _I2C_Master_Wait:	
  1498                           ;psect for function _I2C_Master_Wait
  1499                           
  1500     02AB                     l1407:	
  1501                           ;incstack = 0
  1502                           ; Regs used in _I2C_Master_Wait: [wreg+status,2]
  1503                           
  1504     02AB                     l32:	
  1505                           ;E:/Universidad/Semestre2_2023/Digital-2/Proyecto1/Master/MasterPIC.X/I2C.c: 34:     whi
      +                          le ((SSPSTAT & 0x04) || (SSPCON2 & 0x1F));
  1506                           
  1507     02AB  1683               	bsf	3,5	;RP0=1, select bank1
  1508     02AC  1303               	bcf	3,6	;RP1=0, select bank1
  1509     02AD  1914               	btfsc	20,2	;volatile
  1510     02AE  2AB0               	goto	u641
  1511     02AF  2AB1               	goto	u640
  1512     02B0                     u641:
  1513     02B0  2AAB               	goto	l32
  1514     02B1                     u640:
  1515     02B1                     l1409:
  1516     02B1  0811               	movf	17,w	;volatile
  1517     02B2  391F               	andlw	31
  1518     02B3  1D03               	btfss	3,2
  1519     02B4  2AB6               	goto	u651
  1520     02B5  2AB7               	goto	u650
  1521     02B6                     u651:
  1522     02B6  2AAB               	goto	l32
  1523     02B7                     u650:
  1524     02B7                     l35:
  1525     02B7  0008               	return
  1526     02B8                     __end_of_I2C_Master_Wait:
  1527                           
  1528                           	psect	text8
  1529     0374                     __ptext8:	
  1530 ;; *************** function _setup *****************
  1531 ;; Defined at:
  1532 ;;		line 106 in file "E:/Universidad/Semestre2_2023/Digital-2/Proyecto1/Master/MasterPIC.X/MasterPIC.c"
  1533 ;; Parameters:    Size  Location     Type
  1534 ;;		None
  1535 ;; Auto vars:     Size  Location     Type
  1536 ;;		None
  1537 ;; Return value:  Size  Location     Type
  1538 ;;                  1    wreg      void 
  1539 ;; Registers used:
  1540 ;;		wreg, status,2, status,0, btemp+1, pclath, cstack
  1541 ;; Tracked objects:
  1542 ;;		On entry : 0/0
  1543 ;;		On exit  : 0/0
  1544 ;;		Unchanged: 0/0
  1545 ;; Data sizes:     COMMON   BANK0   BANK1   BANK3   BANK2
  1546 ;;      Params:         0       0       0       0       0
  1547 ;;      Locals:         0       0       0       0       0
  1548 ;;      Temps:          0       0       0       0       0
  1549 ;;      Totals:         0       0       0       0       0
  1550 ;;Total ram usage:        0 bytes
  1551 ;; Hardware stack levels used: 1
  1552 ;; Hardware stack levels required when called: 3
  1553 ;; This function calls:
  1554 ;;		_I2C_Master_Init
  1555 ;;		_Lcd_Init
  1556 ;; This function is called by:
  1557 ;;		_main
  1558 ;; This function uses a non-reentrant model
  1559 ;;
  1560                           
  1561     0374                     _setup:	
  1562                           ;psect for function _setup
  1563                           
  1564     0374                     l1691:	
  1565                           ;incstack = 0
  1566                           ; Regs used in _setup: [wreg+status,2+status,0+btemp+1+pclath+cstack]
  1567                           
  1568                           
  1569                           ;E:/Universidad/Semestre2_2023/Digital-2/Proyecto1/Master/MasterPIC.X/MasterPIC.c: 107: 
      +                                  OSCCONbits.IRCF = 0b111;
  1570     0374  3070               	movlw	112
  1571     0375  1683               	bsf	3,5	;RP0=1, select bank1
  1572     0376  1303               	bcf	3,6	;RP1=0, select bank1
  1573     0377  048F               	iorwf	15,f	;volatile
  1574     0378                     l1693:
  1575                           
  1576                           ;E:/Universidad/Semestre2_2023/Digital-2/Proyecto1/Master/MasterPIC.X/MasterPIC.c: 108: 
      +                                  OSCCONbits.SCS = 1;
  1577     0378  140F               	bsf	15,0	;volatile
  1578     0379                     l1695:
  1579                           
  1580                           ;E:/Universidad/Semestre2_2023/Digital-2/Proyecto1/Master/MasterPIC.X/MasterPIC.c: 110: 
      +                                  ANSEL = 0;
  1581     0379  1683               	bsf	3,5	;RP0=1, select bank3
  1582     037A  1703               	bsf	3,6	;RP1=1, select bank3
  1583     037B  0188               	clrf	8	;volatile
  1584     037C                     l1697:
  1585                           
  1586                           ;E:/Universidad/Semestre2_2023/Digital-2/Proyecto1/Master/MasterPIC.X/MasterPIC.c: 111: 
      +                                  ANSELH = 0;
  1587     037C  0189               	clrf	9	;volatile
  1588     037D                     l1699:
  1589                           
  1590                           ;E:/Universidad/Semestre2_2023/Digital-2/Proyecto1/Master/MasterPIC.X/MasterPIC.c: 113: 
      +                                  TRISC = 128;
  1591     037D  3080               	movlw	128
  1592     037E  1683               	bsf	3,5	;RP0=1, select bank1
  1593     037F  1303               	bcf	3,6	;RP1=0, select bank1
  1594     0380  0087               	movwf	7	;volatile
  1595     0381                     l1701:
  1596                           
  1597                           ;E:/Universidad/Semestre2_2023/Digital-2/Proyecto1/Master/MasterPIC.X/MasterPIC.c: 114: 
      +                                  TRISA = 0;
  1598     0381  0185               	clrf	5	;volatile
  1599     0382                     l1703:
  1600                           
  1601                           ;E:/Universidad/Semestre2_2023/Digital-2/Proyecto1/Master/MasterPIC.X/MasterPIC.c: 115: 
      +                                  TRISB = 0;
  1602     0382  0186               	clrf	6	;volatile
  1603     0383                     l1705:
  1604                           
  1605                           ;E:/Universidad/Semestre2_2023/Digital-2/Proyecto1/Master/MasterPIC.X/MasterPIC.c: 116: 
      +                                  TRISD = 0;
  1606     0383  0188               	clrf	8	;volatile
  1607     0384                     l1707:
  1608                           
  1609                           ;E:/Universidad/Semestre2_2023/Digital-2/Proyecto1/Master/MasterPIC.X/MasterPIC.c: 118: 
      +                                  PORTA = 0;
  1610     0384  1283               	bcf	3,5	;RP0=0, select bank0
  1611     0385  1303               	bcf	3,6	;RP1=0, select bank0
  1612     0386  0185               	clrf	5	;volatile
  1613     0387                     l1709:
  1614                           
  1615                           ;E:/Universidad/Semestre2_2023/Digital-2/Proyecto1/Master/MasterPIC.X/MasterPIC.c: 119: 
      +                                  PORTB = 0;
  1616     0387  0186               	clrf	6	;volatile
  1617     0388                     l1711:
  1618                           
  1619                           ;E:/Universidad/Semestre2_2023/Digital-2/Proyecto1/Master/MasterPIC.X/MasterPIC.c: 120: 
      +                                  PORTC = 0;
  1620     0388  0187               	clrf	7	;volatile
  1621     0389                     l1713:
  1622                           
  1623                           ;E:/Universidad/Semestre2_2023/Digital-2/Proyecto1/Master/MasterPIC.X/MasterPIC.c: 121: 
      +                                  PORTD = 0;
  1624     0389  0188               	clrf	8	;volatile
  1625     038A                     l1715:
  1626                           
  1627                           ;E:/Universidad/Semestre2_2023/Digital-2/Proyecto1/Master/MasterPIC.X/MasterPIC.c: 122: 
      +                                  I2C_Master_Init(100000);
  1628     038A  3000               	movlw	0
  1629     038B  00BF               	movwf	I2C_Master_Init@c+3
  1630     038C  3001               	movlw	1
  1631     038D  00BE               	movwf	I2C_Master_Init@c+2
  1632     038E  3086               	movlw	134
  1633     038F  00BD               	movwf	I2C_Master_Init@c+1
  1634     0390  30A0               	movlw	160
  1635     0391  00BC               	movwf	I2C_Master_Init@c
  1636     0392  120A  118A  23CB  120A  118A  	fcall	_I2C_Master_Init
  1637     0397                     l1717:
  1638                           
  1639                           ;E:/Universidad/Semestre2_2023/Digital-2/Proyecto1/Master/MasterPIC.X/MasterPIC.c: 123: 
      +                                  Lcd_Init();
  1640     0397  120A  118A  253F  120A  118A  	fcall	_Lcd_Init
  1641     039C                     l150:
  1642     039C  0008               	return
  1643     039D                     __end_of_setup:
  1644                           
  1645                           	psect	text9
  1646     053F                     __ptext9:	
  1647 ;; *************** function _Lcd_Init *****************
  1648 ;; Defined at:
  1649 ;;		line 80 in file "E:/Universidad/Semestre2_2023/Digital-2/Proyecto1/Master/MasterPIC.X/LCD.c"
  1650 ;; Parameters:    Size  Location     Type
  1651 ;;		None
  1652 ;; Auto vars:     Size  Location     Type
  1653 ;;		None
  1654 ;; Return value:  Size  Location     Type
  1655 ;;                  1    wreg      void 
  1656 ;; Registers used:
  1657 ;;		wreg, status,2, status,0, pclath, cstack
  1658 ;; Tracked objects:
  1659 ;;		On entry : 0/0
  1660 ;;		On exit  : 0/0
  1661 ;;		Unchanged: 0/0
  1662 ;; Data sizes:     COMMON   BANK0   BANK1   BANK3   BANK2
  1663 ;;      Params:         0       0       0       0       0
  1664 ;;      Locals:         0       0       0       0       0
  1665 ;;      Temps:          2       0       0       0       0
  1666 ;;      Totals:         2       0       0       0       0
  1667 ;;Total ram usage:        2 bytes
  1668 ;; Hardware stack levels used: 1
  1669 ;; Hardware stack levels required when called: 2
  1670 ;; This function calls:
  1671 ;;		_Lcd_Cmd
  1672 ;;		_Lcd_Port
  1673 ;; This function is called by:
  1674 ;;		_setup
  1675 ;; This function uses a non-reentrant model
  1676 ;;
  1677                           
  1678     053F                     _Lcd_Init:	
  1679                           ;psect for function _Lcd_Init
  1680                           
  1681     053F                     l1573:	
  1682                           ;incstack = 0
  1683                           ; Regs used in _Lcd_Init: [wreg+status,2+status,0+pclath+cstack]
  1684                           
  1685                           
  1686                           ;E:/Universidad/Semestre2_2023/Digital-2/Proyecto1/Master/MasterPIC.X/LCD.c: 81:     Lcd
      +                          _Port(0);
  1687     053F  3000               	movlw	0
  1688     0540  120A  118A  243D  120A  118A  	fcall	_Lcd_Port
  1689     0545                     l1575:
  1690                           
  1691                           ;E:/Universidad/Semestre2_2023/Digital-2/Proyecto1/Master/MasterPIC.X/LCD.c: 82:     _de
      +                          lay((unsigned long)((20)*(8000000/4000.0)));
  1692     0545  3034               	movlw	52
  1693     0546  00F5               	movwf	??_Lcd_Init+1
  1694     0547  30F1               	movlw	241
  1695     0548  00F4               	movwf	??_Lcd_Init
  1696     0549                     u1157:
  1697     0549  0BF4               	decfsz	??_Lcd_Init,f
  1698     054A  2D49               	goto	u1157
  1699     054B  0BF5               	decfsz	??_Lcd_Init+1,f
  1700     054C  2D49               	goto	u1157
  1701     054D  2D4E               	nop2
  1702     054E                     l1577:
  1703                           
  1704                           ;E:/Universidad/Semestre2_2023/Digital-2/Proyecto1/Master/MasterPIC.X/LCD.c: 83:     Lcd
      +                          _Cmd(48);
  1705     054E  3030               	movlw	48
  1706     054F  120A  118A  22F5  120A  118A  	fcall	_Lcd_Cmd
  1707                           
  1708                           ;E:/Universidad/Semestre2_2023/Digital-2/Proyecto1/Master/MasterPIC.X/LCD.c: 84:     _de
      +                          lay((unsigned long)((5)*(8000000/4000.0)));
  1709     0554  300D               	movlw	13
  1710     0555  00F5               	movwf	??_Lcd_Init+1
  1711     0556  30FB               	movlw	251
  1712     0557  00F4               	movwf	??_Lcd_Init
  1713     0558                     u1167:
  1714     0558  0BF4               	decfsz	??_Lcd_Init,f
  1715     0559  2D58               	goto	u1167
  1716     055A  0BF5               	decfsz	??_Lcd_Init+1,f
  1717     055B  2D58               	goto	u1167
  1718     055C  2D5D               	nop2
  1719     055D                     l1579:
  1720                           
  1721                           ;E:/Universidad/Semestre2_2023/Digital-2/Proyecto1/Master/MasterPIC.X/LCD.c: 85:     Lcd
      +                          _Cmd(48);
  1722     055D  3030               	movlw	48
  1723     055E  120A  118A  22F5  120A  118A  	fcall	_Lcd_Cmd
  1724     0563                     l1581:
  1725                           
  1726                           ;E:/Universidad/Semestre2_2023/Digital-2/Proyecto1/Master/MasterPIC.X/LCD.c: 86:     _de
      +                          lay((unsigned long)((11)*(8000000/4000.0)));
  1727     0563  301D               	movlw	29
  1728     0564  00F5               	movwf	??_Lcd_Init+1
  1729     0565  3091               	movlw	145
  1730     0566  00F4               	movwf	??_Lcd_Init
  1731     0567                     u1177:
  1732     0567  0BF4               	decfsz	??_Lcd_Init,f
  1733     0568  2D67               	goto	u1177
  1734     0569  0BF5               	decfsz	??_Lcd_Init+1,f
  1735     056A  2D67               	goto	u1177
  1736                           
  1737                           ;E:/Universidad/Semestre2_2023/Digital-2/Proyecto1/Master/MasterPIC.X/LCD.c: 87:     Lcd
      +                          _Cmd(48);
  1738     056B  3030               	movlw	48
  1739     056C  120A  118A  22F5  120A  118A  	fcall	_Lcd_Cmd
  1740                           
  1741                           ;E:/Universidad/Semestre2_2023/Digital-2/Proyecto1/Master/MasterPIC.X/LCD.c: 89:     Lcd
      +                          _Cmd(56);
  1742     0571  3038               	movlw	56
  1743     0572  120A  118A  22F5  120A  118A  	fcall	_Lcd_Cmd
  1744                           
  1745                           ;E:/Universidad/Semestre2_2023/Digital-2/Proyecto1/Master/MasterPIC.X/LCD.c: 90:     Lcd
      +                          _Cmd(8);
  1746     0577  3008               	movlw	8
  1747     0578  120A  118A  22F5  120A  118A  	fcall	_Lcd_Cmd
  1748                           
  1749                           ;E:/Universidad/Semestre2_2023/Digital-2/Proyecto1/Master/MasterPIC.X/LCD.c: 91:     Lcd
      +                          _Cmd(1);
  1750     057D  3001               	movlw	1
  1751     057E  120A  118A  22F5  120A  118A  	fcall	_Lcd_Cmd
  1752                           
  1753                           ;E:/Universidad/Semestre2_2023/Digital-2/Proyecto1/Master/MasterPIC.X/LCD.c: 92:     Lcd
      +                          _Cmd(6);
  1754     0583  3006               	movlw	6
  1755     0584  120A  118A  22F5  120A  118A  	fcall	_Lcd_Cmd
  1756                           
  1757                           ;E:/Universidad/Semestre2_2023/Digital-2/Proyecto1/Master/MasterPIC.X/LCD.c: 93:     Lcd
      +                          _Cmd(12);
  1758     0589  300C               	movlw	12
  1759     058A  120A  118A  22F5  120A  118A  	fcall	_Lcd_Cmd
  1760     058F                     l234:
  1761     058F  0008               	return
  1762     0590                     __end_of_Lcd_Init:
  1763                           
  1764                           	psect	text10
  1765     03CB                     __ptext10:	
  1766 ;; *************** function _I2C_Master_Init *****************
  1767 ;; Defined at:
  1768 ;;		line 16 in file "E:/Universidad/Semestre2_2023/Digital-2/Proyecto1/Master/MasterPIC.X/I2C.c"
  1769 ;; Parameters:    Size  Location     Type
  1770 ;;  c               4    0[BANK0 ] const unsigned long 
  1771 ;; Auto vars:     Size  Location     Type
  1772 ;;		None
  1773 ;; Return value:  Size  Location     Type
  1774 ;;                  1    wreg      void 
  1775 ;; Registers used:
  1776 ;;		wreg, status,2, status,0, btemp+1, pclath, cstack
  1777 ;; Tracked objects:
  1778 ;;		On entry : 0/0
  1779 ;;		On exit  : 0/0
  1780 ;;		Unchanged: 0/0
  1781 ;; Data sizes:     COMMON   BANK0   BANK1   BANK3   BANK2
  1782 ;;      Params:         0       4       0       0       0
  1783 ;;      Locals:         0       0       0       0       0
  1784 ;;      Temps:          0       4       0       0       0
  1785 ;;      Totals:         0       8       0       0       0
  1786 ;;Total ram usage:        8 bytes
  1787 ;; Hardware stack levels used: 1
  1788 ;; Hardware stack levels required when called: 1
  1789 ;; This function calls:
  1790 ;;		___lldiv
  1791 ;; This function is called by:
  1792 ;;		_setup
  1793 ;; This function uses a non-reentrant model
  1794 ;;
  1795                           
  1796     03CB                     _I2C_Master_Init:	
  1797                           ;psect for function _I2C_Master_Init
  1798                           
  1799     03CB                     l1533:	
  1800                           ;incstack = 0
  1801                           ; Regs used in _I2C_Master_Init: [wreg+status,2+status,0+btemp+1+pclath+cstack]
  1802                           
  1803                           
  1804                           ;E:/Universidad/Semestre2_2023/Digital-2/Proyecto1/Master/MasterPIC.X/I2C.c: 16: void I2
      +                          C_Master_Init(const unsigned long c);E:/Universidad/Semestre2_2023/Digital-2/Proyecto1/M
      +                          aster/MasterPIC.X/I2C.c: 17: {;E:/Universidad/Semestre2_2023/Digital-2/Proyecto1/Master/
      +                          MasterPIC.X/I2C.c: 18:     SSPCON = 0b00101000;
  1805     03CB  3028               	movlw	40
  1806     03CC  1283               	bcf	3,5	;RP0=0, select bank0
  1807     03CD  1303               	bcf	3,6	;RP1=0, select bank0
  1808     03CE  0094               	movwf	20	;volatile
  1809     03CF                     l1535:
  1810                           
  1811                           ;E:/Universidad/Semestre2_2023/Digital-2/Proyecto1/Master/MasterPIC.X/I2C.c: 19:     SSP
      +                          CON2 = 0;
  1812     03CF  1683               	bsf	3,5	;RP0=1, select bank1
  1813     03D0  1303               	bcf	3,6	;RP1=0, select bank1
  1814     03D1  0191               	clrf	17	;volatile
  1815     03D2                     l1537:
  1816                           
  1817                           ;E:/Universidad/Semestre2_2023/Digital-2/Proyecto1/Master/MasterPIC.X/I2C.c: 20:     SSP
      +                          ADD = (8000000/(4*c))-1;
  1818     03D2  1283               	bcf	3,5	;RP0=0, select bank0
  1819     03D3  1303               	bcf	3,6	;RP1=0, select bank0
  1820     03D4  083C               	movf	I2C_Master_Init@c,w
  1821     03D5  00C0               	movwf	??_I2C_Master_Init
  1822     03D6  083D               	movf	I2C_Master_Init@c+1,w
  1823     03D7  00C1               	movwf	??_I2C_Master_Init+1
  1824     03D8  083E               	movf	I2C_Master_Init@c+2,w
  1825     03D9  00C2               	movwf	??_I2C_Master_Init+2
  1826     03DA  083F               	movf	I2C_Master_Init@c+3,w
  1827     03DB  00C3               	movwf	??_I2C_Master_Init+3
  1828     03DC  3002               	movlw	2
  1829     03DD                     u955:
  1830     03DD  1003               	clrc
  1831     03DE  0DC0               	rlf	??_I2C_Master_Init,f
  1832     03DF  0DC1               	rlf	??_I2C_Master_Init+1,f
  1833     03E0  0DC2               	rlf	??_I2C_Master_Init+2,f
  1834     03E1  0DC3               	rlf	??_I2C_Master_Init+3,f
  1835     03E2                     u950:
  1836     03E2  3EFF               	addlw	-1
  1837     03E3  1D03               	skipz
  1838     03E4  2BDD               	goto	u955
  1839     03E5  0843               	movf	??_I2C_Master_Init+3,w
  1840     03E6  00F3               	movwf	___lldiv@divisor+3
  1841     03E7  0842               	movf	??_I2C_Master_Init+2,w
  1842     03E8  00F2               	movwf	___lldiv@divisor+2
  1843     03E9  0841               	movf	??_I2C_Master_Init+1,w
  1844     03EA  00F1               	movwf	___lldiv@divisor+1
  1845     03EB  0840               	movf	??_I2C_Master_Init,w
  1846     03EC  00F0               	movwf	___lldiv@divisor
  1847     03ED  3000               	movlw	0
  1848     03EE  00F7               	movwf	___lldiv@dividend+3
  1849     03EF  307A               	movlw	122
  1850     03F0  00F6               	movwf	___lldiv@dividend+2
  1851     03F1  3012               	movlw	18
  1852     03F2  00F5               	movwf	___lldiv@dividend+1
  1853     03F3  3000               	movlw	0
  1854     03F4  00F4               	movwf	___lldiv@dividend
  1855     03F5  120A  118A  263C  120A  118A  	fcall	___lldiv
  1856     03FA  0870               	movf	?___lldiv,w
  1857     03FB  3EFF               	addlw	255
  1858     03FC  1683               	bsf	3,5	;RP0=1, select bank1
  1859     03FD  1303               	bcf	3,6	;RP1=0, select bank1
  1860     03FE  0093               	movwf	19	;volatile
  1861     03FF                     l1539:
  1862                           
  1863                           ;E:/Universidad/Semestre2_2023/Digital-2/Proyecto1/Master/MasterPIC.X/I2C.c: 21:     SSP
      +                          STAT = 0;
  1864     03FF  0194               	clrf	20	;volatile
  1865     0400                     l1541:
  1866                           
  1867                           ;E:/Universidad/Semestre2_2023/Digital-2/Proyecto1/Master/MasterPIC.X/I2C.c: 22:     TRI
      +                          SCbits.TRISC3 = 1;
  1868     0400  1587               	bsf	7,3	;volatile
  1869     0401                     l1543:
  1870                           
  1871                           ;E:/Universidad/Semestre2_2023/Digital-2/Proyecto1/Master/MasterPIC.X/I2C.c: 23:     TRI
      +                          SCbits.TRISC4 = 1;
  1872     0401  1607               	bsf	7,4	;volatile
  1873     0402                     l29:
  1874     0402  0008               	return
  1875     0403                     __end_of_I2C_Master_Init:
  1876                           
  1877                           	psect	text11
  1878     063C                     __ptext11:	
  1879 ;; *************** function ___lldiv *****************
  1880 ;; Defined at:
  1881 ;;		line 5 in file "C:\Program Files\Microchip\xc8\v2.41\pic\sources\c90\common\__lldiv.c"
  1882 ;; Parameters:    Size  Location     Type
  1883 ;;  divisor         4    0[COMMON] unsigned long 
  1884 ;;  dividend        4    4[COMMON] unsigned long 
  1885 ;; Auto vars:     Size  Location     Type
  1886 ;;  quotient        4    9[COMMON] unsigned long 
  1887 ;;  counter         1   13[COMMON] unsigned char 
  1888 ;; Return value:  Size  Location     Type
  1889 ;;                  4    0[COMMON] unsigned long 
  1890 ;; Registers used:
  1891 ;;		wreg, status,2, status,0, btemp+1
  1892 ;; Tracked objects:
  1893 ;;		On entry : 0/0
  1894 ;;		On exit  : 0/0
  1895 ;;		Unchanged: 0/0
  1896 ;; Data sizes:     COMMON   BANK0   BANK1   BANK3   BANK2
  1897 ;;      Params:         8       0       0       0       0
  1898 ;;      Locals:         5       0       0       0       0
  1899 ;;      Temps:          1       0       0       0       0
  1900 ;;      Totals:        14       0       0       0       0
  1901 ;;Total ram usage:       14 bytes
  1902 ;; Hardware stack levels used: 1
  1903 ;; This function calls:
  1904 ;;		Nothing
  1905 ;; This function is called by:
  1906 ;;		_I2C_Master_Init
  1907 ;; This function uses a non-reentrant model
  1908 ;;
  1909                           
  1910     063C                     ___lldiv:	
  1911                           ;psect for function ___lldiv
  1912                           
  1913     063C                     l1459:	
  1914                           ;incstack = 0
  1915                           ; Regs used in ___lldiv: [wreg+status,2+status,0+btemp+1]
  1916                           
  1917     063C  3000               	movlw	0
  1918     063D  00FC               	movwf	___lldiv@quotient+3
  1919     063E  3000               	movlw	0
  1920     063F  00FB               	movwf	___lldiv@quotient+2
  1921     0640  3000               	movlw	0
  1922     0641  00FA               	movwf	___lldiv@quotient+1
  1923     0642  3000               	movlw	0
  1924     0643  00F9               	movwf	___lldiv@quotient
  1925     0644  0873               	movf	___lldiv@divisor+3,w
  1926     0645  0472               	iorwf	___lldiv@divisor+2,w
  1927     0646  0471               	iorwf	___lldiv@divisor+1,w
  1928     0647  0470               	iorwf	___lldiv@divisor,w
  1929     0648  1903               	skipnz
  1930     0649  2E4B               	goto	u751
  1931     064A  2E4C               	goto	u750
  1932     064B                     u751:
  1933     064B  2E99               	goto	l1481
  1934     064C                     u750:
  1935     064C                     l1461:
  1936     064C  01FD               	clrf	___lldiv@counter
  1937     064D  0AFD               	incf	___lldiv@counter,f
  1938     064E  2E5C               	goto	l1467
  1939     064F                     l1463:
  1940     064F  3001               	movlw	1
  1941     0650  00F8               	movwf	??___lldiv
  1942     0651                     u765:
  1943     0651  1003               	clrc
  1944     0652  0DF0               	rlf	___lldiv@divisor,f
  1945     0653  0DF1               	rlf	___lldiv@divisor+1,f
  1946     0654  0DF2               	rlf	___lldiv@divisor+2,f
  1947     0655  0DF3               	rlf	___lldiv@divisor+3,f
  1948     0656  0BF8               	decfsz	??___lldiv,f
  1949     0657  2E51               	goto	u765
  1950     0658                     l1465:
  1951     0658  3001               	movlw	1
  1952     0659  00FF               	movwf	btemp+1
  1953     065A  087F               	movf	btemp+1,w
  1954     065B  07FD               	addwf	___lldiv@counter,f
  1955     065C                     l1467:
  1956     065C  1FF3               	btfss	___lldiv@divisor+3,7
  1957     065D  2E5F               	goto	u771
  1958     065E  2E60               	goto	u770
  1959     065F                     u771:
  1960     065F  2E4F               	goto	l1463
  1961     0660                     u770:
  1962     0660                     l1469:
  1963     0660  3001               	movlw	1
  1964     0661  00F8               	movwf	??___lldiv
  1965     0662                     u785:
  1966     0662  1003               	clrc
  1967     0663  0DF9               	rlf	___lldiv@quotient,f
  1968     0664  0DFA               	rlf	___lldiv@quotient+1,f
  1969     0665  0DFB               	rlf	___lldiv@quotient+2,f
  1970     0666  0DFC               	rlf	___lldiv@quotient+3,f
  1971     0667  0BF8               	decfsz	??___lldiv,f
  1972     0668  2E62               	goto	u785
  1973     0669                     l1471:
  1974     0669  0873               	movf	___lldiv@divisor+3,w
  1975     066A  0277               	subwf	___lldiv@dividend+3,w
  1976     066B  1D03               	skipz
  1977     066C  2E77               	goto	u795
  1978     066D  0872               	movf	___lldiv@divisor+2,w
  1979     066E  0276               	subwf	___lldiv@dividend+2,w
  1980     066F  1D03               	skipz
  1981     0670  2E77               	goto	u795
  1982     0671  0871               	movf	___lldiv@divisor+1,w
  1983     0672  0275               	subwf	___lldiv@dividend+1,w
  1984     0673  1D03               	skipz
  1985     0674  2E77               	goto	u795
  1986     0675  0870               	movf	___lldiv@divisor,w
  1987     0676  0274               	subwf	___lldiv@dividend,w
  1988     0677                     u795:
  1989     0677  1C03               	skipc
  1990     0678  2E7A               	goto	u791
  1991     0679  2E7B               	goto	u790
  1992     067A                     u791:
  1993     067A  2E8A               	goto	l1477
  1994     067B                     u790:
  1995     067B                     l1473:
  1996     067B  0870               	movf	___lldiv@divisor,w
  1997     067C  02F4               	subwf	___lldiv@dividend,f
  1998     067D  0871               	movf	___lldiv@divisor+1,w
  1999     067E  1C03               	skipc
  2000     067F  0F71               	incfsz	___lldiv@divisor+1,w
  2001     0680  02F5               	subwf	___lldiv@dividend+1,f
  2002     0681  0872               	movf	___lldiv@divisor+2,w
  2003     0682  1C03               	skipc
  2004     0683  0F72               	incfsz	___lldiv@divisor+2,w
  2005     0684  02F6               	subwf	___lldiv@dividend+2,f
  2006     0685  0873               	movf	___lldiv@divisor+3,w
  2007     0686  1C03               	skipc
  2008     0687  0F73               	incfsz	___lldiv@divisor+3,w
  2009     0688  02F7               	subwf	___lldiv@dividend+3,f
  2010     0689                     l1475:
  2011     0689  1479               	bsf	___lldiv@quotient,0
  2012     068A                     l1477:
  2013     068A  3001               	movlw	1
  2014     068B                     u805:
  2015     068B  1003               	clrc
  2016     068C  0CF3               	rrf	___lldiv@divisor+3,f
  2017     068D  0CF2               	rrf	___lldiv@divisor+2,f
  2018     068E  0CF1               	rrf	___lldiv@divisor+1,f
  2019     068F  0CF0               	rrf	___lldiv@divisor,f
  2020     0690  3EFF               	addlw	-1
  2021     0691  1D03               	skipz
  2022     0692  2E8B               	goto	u805
  2023     0693                     l1479:
  2024     0693  3001               	movlw	1
  2025     0694  02FD               	subwf	___lldiv@counter,f
  2026     0695  1D03               	btfss	3,2
  2027     0696  2E98               	goto	u811
  2028     0697  2E99               	goto	u810
  2029     0698                     u811:
  2030     0698  2E60               	goto	l1469
  2031     0699                     u810:
  2032     0699                     l1481:
  2033     0699  087C               	movf	___lldiv@quotient+3,w
  2034     069A  00F3               	movwf	?___lldiv+3
  2035     069B  087B               	movf	___lldiv@quotient+2,w
  2036     069C  00F2               	movwf	?___lldiv+2
  2037     069D  087A               	movf	___lldiv@quotient+1,w
  2038     069E  00F1               	movwf	?___lldiv+1
  2039     069F  0879               	movf	___lldiv@quotient,w
  2040     06A0  00F0               	movwf	?___lldiv
  2041     06A1                     l410:
  2042     06A1  0008               	return
  2043     06A2                     __end_of___lldiv:
  2044                           
  2045                           	psect	text12
  2046     0279                     __ptext12:	
  2047 ;; *************** function _dcForward *****************
  2048 ;; Defined at:
  2049 ;;		line 207 in file "E:/Universidad/Semestre2_2023/Digital-2/Proyecto1/Master/MasterPIC.X/MasterPIC.c"
  2050 ;; Parameters:    Size  Location     Type
  2051 ;;		None
  2052 ;; Auto vars:     Size  Location     Type
  2053 ;;		None
  2054 ;; Return value:  Size  Location     Type
  2055 ;;                  1    wreg      void 
  2056 ;; Registers used:
  2057 ;;		None
  2058 ;; Tracked objects:
  2059 ;;		On entry : 0/0
  2060 ;;		On exit  : 0/0
  2061 ;;		Unchanged: 0/0
  2062 ;; Data sizes:     COMMON   BANK0   BANK1   BANK3   BANK2
  2063 ;;      Params:         0       0       0       0       0
  2064 ;;      Locals:         0       0       0       0       0
  2065 ;;      Temps:          0       0       0       0       0
  2066 ;;      Totals:         0       0       0       0       0
  2067 ;;Total ram usage:        0 bytes
  2068 ;; Hardware stack levels used: 1
  2069 ;; This function calls:
  2070 ;;		Nothing
  2071 ;; This function is called by:
  2072 ;;		_main
  2073 ;; This function uses a non-reentrant model
  2074 ;;
  2075                           
  2076     0279                     _dcForward:	
  2077                           ;psect for function _dcForward
  2078                           
  2079     0279                     l1719:	
  2080                           ;incstack = 0
  2081                           ; Regs used in _dcForward: []
  2082                           
  2083                           
  2084                           ;E:/Universidad/Semestre2_2023/Digital-2/Proyecto1/Master/MasterPIC.X/MasterPIC.c: 208: 
      +                              RA0 = 1;
  2085     0279  1283               	bcf	3,5	;RP0=0, select bank0
  2086     027A  1303               	bcf	3,6	;RP1=0, select bank0
  2087     027B  1405               	bsf	5,0	;volatile
  2088                           
  2089                           ;E:/Universidad/Semestre2_2023/Digital-2/Proyecto1/Master/MasterPIC.X/MasterPIC.c: 209: 
      +                              RA1 = 0;
  2090     027C  1085               	bcf	5,1	;volatile
  2091                           
  2092                           ;E:/Universidad/Semestre2_2023/Digital-2/Proyecto1/Master/MasterPIC.X/MasterPIC.c: 210: 
      +                              RA2 = 1;
  2093     027D  1505               	bsf	5,2	;volatile
  2094                           
  2095                           ;E:/Universidad/Semestre2_2023/Digital-2/Proyecto1/Master/MasterPIC.X/MasterPIC.c: 212: 
      +                              RA5 = 1;
  2096     027E  1685               	bsf	5,5	;volatile
  2097                           
  2098                           ;E:/Universidad/Semestre2_2023/Digital-2/Proyecto1/Master/MasterPIC.X/MasterPIC.c: 213: 
      +                              RA3 = 1;
  2099     027F  1585               	bsf	5,3	;volatile
  2100                           
  2101                           ;E:/Universidad/Semestre2_2023/Digital-2/Proyecto1/Master/MasterPIC.X/MasterPIC.c: 214: 
      +                              RA4 = 0;
  2102     0280  1205               	bcf	5,4	;volatile
  2103     0281                     l170:
  2104     0281  0008               	return
  2105     0282                     __end_of_dcForward:
  2106                           
  2107                           	psect	text13
  2108     047B                     __ptext13:	
  2109 ;; *************** function _LCDprint *****************
  2110 ;; Defined at:
  2111 ;;		line 182 in file "E:/Universidad/Semestre2_2023/Digital-2/Proyecto1/Master/MasterPIC.X/MasterPIC.c"
  2112 ;; Parameters:    Size  Location     Type
  2113 ;;		None
  2114 ;; Auto vars:     Size  Location     Type
  2115 ;;		None
  2116 ;; Return value:  Size  Location     Type
  2117 ;;                  1    wreg      void 
  2118 ;; Registers used:
  2119 ;;		wreg, fsr0l, fsr0h, status,2, status,0, btemp+1, pclath, cstack
  2120 ;; Tracked objects:
  2121 ;;		On entry : 0/0
  2122 ;;		On exit  : 0/0
  2123 ;;		Unchanged: 0/0
  2124 ;; Data sizes:     COMMON   BANK0   BANK1   BANK3   BANK2
  2125 ;;      Params:         0       0       0       0       0
  2126 ;;      Locals:         0       0       0       0       0
  2127 ;;      Temps:          2       0       0       0       0
  2128 ;;      Totals:         2       0       0       0       0
  2129 ;;Total ram usage:        2 bytes
  2130 ;; Hardware stack levels used: 1
  2131 ;; Hardware stack levels required when called: 4
  2132 ;; This function calls:
  2133 ;;		_Lcd_Clear
  2134 ;;		_Lcd_Set_Cursor
  2135 ;;		_Lcd_Write_String
  2136 ;;		_sprintf
  2137 ;;		_usSensor
  2138 ;; This function is called by:
  2139 ;;		_main
  2140 ;; This function uses a non-reentrant model
  2141 ;;
  2142                           
  2143     047B                     _LCDprint:	
  2144                           ;psect for function _LCDprint
  2145                           
  2146     047B                     l1769:	
  2147                           ;incstack = 0
  2148                           ; Regs used in _LCDprint: [wreg-fsr0h+status,2+status,0+btemp+1+pclath+cstack]
  2149                           
  2150                           
  2151                           ;E:/Universidad/Semestre2_2023/Digital-2/Proyecto1/Master/MasterPIC.X/MasterPIC.c: 184: 
      +                                  Lcd_Clear();
  2152     047B  120A  118A  229E  120A  118A  	fcall	_Lcd_Clear
  2153                           
  2154                           ;E:/Universidad/Semestre2_2023/Digital-2/Proyecto1/Master/MasterPIC.X/MasterPIC.c: 185: 
      +                                  Lcd_Set_Cursor(1,1);
  2155     0480  01F4               	clrf	Lcd_Set_Cursor@b
  2156     0481  0AF4               	incf	Lcd_Set_Cursor@b,f
  2157     0482  3001               	movlw	1
  2158     0483  120A  118A  230F  120A  118A  	fcall	_Lcd_Set_Cursor
  2159     0488                     l1771:
  2160                           
  2161                           ;E:/Universidad/Semestre2_2023/Digital-2/Proyecto1/Master/MasterPIC.X/MasterPIC.c: 186: 
      +                                  sprintf(lineLCD, "Distance: %.2d", ultrasonicValue);
  2162     0488  300B               	movlw	(low ((STR_1-__stringbase)| (0+32768)))& (0+255)
  2163     0489  1283               	bcf	3,5	;RP0=0, select bank0
  2164     048A  1303               	bcf	3,6	;RP1=0, select bank0
  2165     048B  00BC               	movwf	sprintf@f
  2166     048C  082A               	movf	_ultrasonicValue,w
  2167     048D  00FC               	movwf	??_LCDprint
  2168     048E  01FD               	clrf	??_LCDprint+1
  2169     048F  087C               	movf	??_LCDprint,w
  2170     0490  00BD               	movwf	?_sprintf+1
  2171     0491  087D               	movf	??_LCDprint+1,w
  2172     0492  00BE               	movwf	?_sprintf+2
  2173     0493  302C               	movlw	(low (_lineLCD| 0))& (0+255)
  2174     0494  120A  118A  26A2  120A  118A  	fcall	_sprintf
  2175     0499                     l1773:
  2176                           
  2177                           ;E:/Universidad/Semestre2_2023/Digital-2/Proyecto1/Master/MasterPIC.X/MasterPIC.c: 187: 
      +                                  Lcd_Write_String(lineLCD);
  2178     0499  302C               	movlw	(low (_lineLCD| 0))& (0+255)
  2179     049A  00F3               	movwf	Lcd_Write_String@a
  2180     049B  3000               	movlw	0
  2181     049C  00F4               	movwf	Lcd_Write_String@a+1
  2182     049D  120A  118A  24B9  120A  118A  	fcall	_Lcd_Write_String
  2183     04A2                     l1775:
  2184                           
  2185                           ;E:/Universidad/Semestre2_2023/Digital-2/Proyecto1/Master/MasterPIC.X/MasterPIC.c: 188: 
      +                                  usSensor();
  2186     04A2  120A  118A  2350  120A  118A  	fcall	_usSensor
  2187     04A7                     l1777:
  2188                           
  2189                           ;E:/Universidad/Semestre2_2023/Digital-2/Proyecto1/Master/MasterPIC.X/MasterPIC.c: 190: 
      +                                  Lcd_Set_Cursor(2,1);
  2190     04A7  01F4               	clrf	Lcd_Set_Cursor@b
  2191     04A8  0AF4               	incf	Lcd_Set_Cursor@b,f
  2192     04A9  3002               	movlw	2
  2193     04AA  120A  118A  230F  120A  118A  	fcall	_Lcd_Set_Cursor
  2194                           
  2195                           ;E:/Universidad/Semestre2_2023/Digital-2/Proyecto1/Master/MasterPIC.X/MasterPIC.c: 192: 
      +                                  Lcd_Write_String("Hola");
  2196     04AF  301A               	movlw	(low ((STR_2-__stringbase)| (0+32768)))& (0+255)
  2197     04B0  00F3               	movwf	Lcd_Write_String@a
  2198     04B1  3080               	movlw	128
  2199     04B2  00F4               	movwf	Lcd_Write_String@a+1
  2200     04B3  120A  118A  24B9  120A  118A  	fcall	_Lcd_Write_String
  2201     04B8                     l162:
  2202     04B8  0008               	return
  2203     04B9                     __end_of_LCDprint:
  2204                           
  2205                           	psect	text14
  2206     0350                     __ptext14:	
  2207 ;; *************** function _usSensor *****************
  2208 ;; Defined at:
  2209 ;;		line 197 in file "E:/Universidad/Semestre2_2023/Digital-2/Proyecto1/Master/MasterPIC.X/MasterPIC.c"
  2210 ;; Parameters:    Size  Location     Type
  2211 ;;		None
  2212 ;; Auto vars:     Size  Location     Type
  2213 ;;		None
  2214 ;; Return value:  Size  Location     Type
  2215 ;;                  1    wreg      void 
  2216 ;; Registers used:
  2217 ;;		wreg, fsr0l, fsr0h, status,2, status,0, btemp+1, pclath, cstack
  2218 ;; Tracked objects:
  2219 ;;		On entry : 0/0
  2220 ;;		On exit  : 0/0
  2221 ;;		Unchanged: 0/0
  2222 ;; Data sizes:     COMMON   BANK0   BANK1   BANK3   BANK2
  2223 ;;      Params:         0       0       0       0       0
  2224 ;;      Locals:         0       0       0       0       0
  2225 ;;      Temps:          0       0       0       0       0
  2226 ;;      Totals:         0       0       0       0       0
  2227 ;;Total ram usage:        0 bytes
  2228 ;; Hardware stack levels used: 1
  2229 ;; Hardware stack levels required when called: 3
  2230 ;; This function calls:
  2231 ;;		_Lcd_Set_Cursor
  2232 ;;		_Lcd_Write_String
  2233 ;; This function is called by:
  2234 ;;		_LCDprint
  2235 ;; This function uses a non-reentrant model
  2236 ;;
  2237                           
  2238     0350                     _usSensor:	
  2239                           ;psect for function _usSensor
  2240                           
  2241     0350                     l1679:	
  2242                           ;incstack = 0
  2243                           ; Regs used in _usSensor: [wreg-fsr0h+status,2+status,0+btemp+1+pclath+cstack]
  2244                           
  2245                           
  2246                           ;E:/Universidad/Semestre2_2023/Digital-2/Proyecto1/Master/MasterPIC.X/MasterPIC.c: 198: 
      +                              Lcd_Set_Cursor(1,15);
  2247     0350  300F               	movlw	15
  2248     0351  00F4               	movwf	Lcd_Set_Cursor@b
  2249     0352  3001               	movlw	1
  2250     0353  120A  118A  230F  120A  118A  	fcall	_Lcd_Set_Cursor
  2251     0358                     l1681:
  2252                           
  2253                           ;E:/Universidad/Semestre2_2023/Digital-2/Proyecto1/Master/MasterPIC.X/MasterPIC.c: 200: 
      +                              if (ultrasonicValue < 4) Lcd_Write_String("!!");
  2254     0358  3004               	movlw	4
  2255     0359  1283               	bcf	3,5	;RP0=0, select bank0
  2256     035A  1303               	bcf	3,6	;RP1=0, select bank0
  2257     035B  022A               	subwf	_ultrasonicValue,w
  2258     035C  1803               	skipnc
  2259     035D  2B5F               	goto	u1101
  2260     035E  2B60               	goto	u1100
  2261     035F                     u1101:
  2262     035F  2B6A               	goto	l1685
  2263     0360                     u1100:
  2264     0360                     l1683:
  2265     0360  3022               	movlw	(low ((STR_3-__stringbase)| (0+32768)))& (0+255)
  2266     0361  00F3               	movwf	Lcd_Write_String@a
  2267     0362  3080               	movlw	128
  2268     0363  00F4               	movwf	Lcd_Write_String@a+1
  2269     0364  120A  118A  24B9  120A  118A  	fcall	_Lcd_Write_String
  2270     0369  2B73               	goto	l167
  2271     036A                     l1685:
  2272     036A  301F               	movlw	(low ((STR_4-__stringbase)| (0+32768)))& (0+255)
  2273     036B  00F3               	movwf	Lcd_Write_String@a
  2274     036C  3080               	movlw	128
  2275     036D  00F4               	movwf	Lcd_Write_String@a+1
  2276     036E  120A  118A  24B9  120A  118A  	fcall	_Lcd_Write_String
  2277     0373                     l167:
  2278     0373  0008               	return
  2279     0374                     __end_of_usSensor:
  2280                           
  2281                           	psect	text15
  2282     04B9                     __ptext15:	
  2283 ;; *************** function _Lcd_Write_String *****************
  2284 ;; Defined at:
  2285 ;;		line 104 in file "E:/Universidad/Semestre2_2023/Digital-2/Proyecto1/Master/MasterPIC.X/LCD.c"
  2286 ;; Parameters:    Size  Location     Type
  2287 ;;  a               2    3[COMMON] PTR unsigned char 
  2288 ;;		 -> STR_4(3), STR_3(3), STR_2(5), lineLCD(16), 
  2289 ;; Auto vars:     Size  Location     Type
  2290 ;;  i               2    8[COMMON] int 
  2291 ;; Return value:  Size  Location     Type
  2292 ;;                  1    wreg      void 
  2293 ;; Registers used:
  2294 ;;		wreg, fsr0l, fsr0h, status,2, status,0, btemp+1, pclath, cstack
  2295 ;; Tracked objects:
  2296 ;;		On entry : 0/0
  2297 ;;		On exit  : 0/0
  2298 ;;		Unchanged: 0/0
  2299 ;; Data sizes:     COMMON   BANK0   BANK1   BANK3   BANK2
  2300 ;;      Params:         2       0       0       0       0
  2301 ;;      Locals:         2       0       0       0       0
  2302 ;;      Temps:          3       0       0       0       0
  2303 ;;      Totals:         7       0       0       0       0
  2304 ;;Total ram usage:        7 bytes
  2305 ;; Hardware stack levels used: 1
  2306 ;; Hardware stack levels required when called: 2
  2307 ;; This function calls:
  2308 ;;		_Lcd_Write_Char
  2309 ;; This function is called by:
  2310 ;;		_LCDprint
  2311 ;;		_usSensor
  2312 ;; This function uses a non-reentrant model
  2313 ;;
  2314                           
  2315     04B9                     _Lcd_Write_String:	
  2316                           ;psect for function _Lcd_Write_String
  2317                           
  2318     04B9                     l1423:	
  2319                           ;incstack = 0
  2320                           ; Regs used in _Lcd_Write_String: [wreg-fsr0h+status,2+status,0+btemp+1+pclath+cstack]
  2321                           
  2322                           
  2323                           ;E:/Universidad/Semestre2_2023/Digital-2/Proyecto1/Master/MasterPIC.X/LCD.c: 105:     in
      +                          t i;;E:/Universidad/Semestre2_2023/Digital-2/Proyecto1/Master/MasterPIC.X/LCD.c: 106:   
      +                            for (i = 0; a[i] != '\0'; i++)
  2324     04B9  01F8               	clrf	Lcd_Write_String@i
  2325     04BA  01F9               	clrf	Lcd_Write_String@i+1
  2326     04BB  2CDE               	goto	l1429
  2327     04BC                     l1425:
  2328                           
  2329                           ;E:/Universidad/Semestre2_2023/Digital-2/Proyecto1/Master/MasterPIC.X/LCD.c: 107:       
      +                            Lcd_Write_Char(a[i]);
  2330     04BC  0878               	movf	Lcd_Write_String@i,w
  2331     04BD  0773               	addwf	Lcd_Write_String@a,w
  2332     04BE  00F6               	movwf	??_Lcd_Write_String+1
  2333     04BF  0874               	movf	Lcd_Write_String@a+1,w
  2334     04C0  00F5               	movwf	??_Lcd_Write_String
  2335     04C1  1803               	skipnc
  2336     04C2  0AF5               	incf	??_Lcd_Write_String,f
  2337     04C3  1FF8               	btfss	Lcd_Write_String@i,7
  2338     04C4  2CC6               	goto	u680
  2339     04C5  03F5               	decf	??_Lcd_Write_String,f
  2340     04C6                     u680:
  2341     04C6  0875               	movf	??_Lcd_Write_String,w
  2342     04C7  00F7               	movwf	??_Lcd_Write_String+2
  2343     04C8  0877               	movf	??_Lcd_Write_String+2,w
  2344     04C9  1283               	bcf	3,5	;RP0=0, select bank0
  2345     04CA  1303               	bcf	3,6	;RP1=0, select bank0
  2346     04CB  00FF               	movwf	btemp+1
  2347     04CC  0876               	movf	??_Lcd_Write_String+1,w
  2348     04CD  0084               	movwf	4
  2349     04CE  120A  118A  2003  120A  118A  	fcall	stringtab
  2350     04D3  120A  118A  22DF  120A  118A  	fcall	_Lcd_Write_Char
  2351     04D8                     l1427:
  2352     04D8  3001               	movlw	1
  2353     04D9  07F8               	addwf	Lcd_Write_String@i,f
  2354     04DA  1803               	skipnc
  2355     04DB  0AF9               	incf	Lcd_Write_String@i+1,f
  2356     04DC  3000               	movlw	0
  2357     04DD  07F9               	addwf	Lcd_Write_String@i+1,f
  2358     04DE                     l1429:
  2359     04DE  0878               	movf	Lcd_Write_String@i,w
  2360     04DF  0773               	addwf	Lcd_Write_String@a,w
  2361     04E0  00F6               	movwf	??_Lcd_Write_String+1
  2362     04E1  0874               	movf	Lcd_Write_String@a+1,w
  2363     04E2  00F5               	movwf	??_Lcd_Write_String
  2364     04E3  1803               	skipnc
  2365     04E4  0AF5               	incf	??_Lcd_Write_String,f
  2366     04E5  1FF8               	btfss	Lcd_Write_String@i,7
  2367     04E6  2CE8               	goto	u690
  2368     04E7  03F5               	decf	??_Lcd_Write_String,f
  2369     04E8                     u690:
  2370     04E8  0875               	movf	??_Lcd_Write_String,w
  2371     04E9  00F7               	movwf	??_Lcd_Write_String+2
  2372     04EA  0877               	movf	??_Lcd_Write_String+2,w
  2373     04EB  1283               	bcf	3,5	;RP0=0, select bank0
  2374     04EC  1303               	bcf	3,6	;RP1=0, select bank0
  2375     04ED  00FF               	movwf	btemp+1
  2376     04EE  0876               	movf	??_Lcd_Write_String+1,w
  2377     04EF  0084               	movwf	4
  2378     04F0  120A  118A  2003  120A  118A  	fcall	stringtab
  2379     04F5  3A00               	xorlw	0
  2380     04F6  1D03               	skipz
  2381     04F7  2CF9               	goto	u701
  2382     04F8  2CFA               	goto	u700
  2383     04F9                     u701:
  2384     04F9  2CBC               	goto	l1425
  2385     04FA                     u700:
  2386     04FA                     l243:
  2387     04FA  0008               	return
  2388     04FB                     __end_of_Lcd_Write_String:
  2389                           
  2390                           	psect	text16
  2391     02DF                     __ptext16:	
  2392 ;; *************** function _Lcd_Write_Char *****************
  2393 ;; Defined at:
  2394 ;;		line 96 in file "E:/Universidad/Semestre2_2023/Digital-2/Proyecto1/Master/MasterPIC.X/LCD.c"
  2395 ;; Parameters:    Size  Location     Type
  2396 ;;  a               1    wreg     unsigned char 
  2397 ;; Auto vars:     Size  Location     Type
  2398 ;;  a               1    2[COMMON] unsigned char 
  2399 ;; Return value:  Size  Location     Type
  2400 ;;                  1    wreg      void 
  2401 ;; Registers used:
  2402 ;;		wreg, status,2, status,0, pclath, cstack
  2403 ;; Tracked objects:
  2404 ;;		On entry : 0/0
  2405 ;;		On exit  : 0/0
  2406 ;;		Unchanged: 0/0
  2407 ;; Data sizes:     COMMON   BANK0   BANK1   BANK3   BANK2
  2408 ;;      Params:         0       0       0       0       0
  2409 ;;      Locals:         1       0       0       0       0
  2410 ;;      Temps:          1       0       0       0       0
  2411 ;;      Totals:         2       0       0       0       0
  2412 ;;Total ram usage:        2 bytes
  2413 ;; Hardware stack levels used: 1
  2414 ;; Hardware stack levels required when called: 1
  2415 ;; This function calls:
  2416 ;;		_Lcd_Port
  2417 ;; This function is called by:
  2418 ;;		_Lcd_Write_String
  2419 ;; This function uses a non-reentrant model
  2420 ;;
  2421                           
  2422     02DF                     _Lcd_Write_Char:	
  2423                           ;psect for function _Lcd_Write_Char
  2424                           
  2425                           
  2426                           ;incstack = 0
  2427                           ; Regs used in _Lcd_Write_Char: [wreg+status,2+status,0+pclath+cstack]
  2428                           ;Lcd_Write_Char@a stored from wreg
  2429     02DF  00F2               	movwf	Lcd_Write_Char@a
  2430     02E0                     l1397:
  2431                           
  2432                           ;E:/Universidad/Semestre2_2023/Digital-2/Proyecto1/Master/MasterPIC.X/LCD.c: 97:     RC0
      +                           = 1;
  2433     02E0  1283               	bcf	3,5	;RP0=0, select bank0
  2434     02E1  1303               	bcf	3,6	;RP1=0, select bank0
  2435     02E2  1407               	bsf	7,0	;volatile
  2436     02E3                     l1399:
  2437                           
  2438                           ;E:/Universidad/Semestre2_2023/Digital-2/Proyecto1/Master/MasterPIC.X/LCD.c: 98:     Lcd
      +                          _Port(a);
  2439     02E3  0872               	movf	Lcd_Write_Char@a,w
  2440     02E4  120A  118A  243D  120A  118A  	fcall	_Lcd_Port
  2441     02E9                     l1401:
  2442                           
  2443                           ;E:/Universidad/Semestre2_2023/Digital-2/Proyecto1/Master/MasterPIC.X/LCD.c: 99:     RC1
      +                           = 1;
  2444     02E9  1283               	bcf	3,5	;RP0=0, select bank0
  2445     02EA  1303               	bcf	3,6	;RP1=0, select bank0
  2446     02EB  1487               	bsf	7,1	;volatile
  2447     02EC                     l1403:
  2448                           
  2449                           ;E:/Universidad/Semestre2_2023/Digital-2/Proyecto1/Master/MasterPIC.X/LCD.c: 100:     _d
      +                          elay((unsigned long)((40)*(8000000/4000000.0)));
  2450     02EC  301A               	movlw	26
  2451     02ED  00F1               	movwf	??_Lcd_Write_Char
  2452     02EE                     u1187:
  2453     02EE  0BF1               	decfsz	??_Lcd_Write_Char,f
  2454     02EF  2AEE               	goto	u1187
  2455     02F0  0000               	nop
  2456     02F1                     l1405:
  2457                           
  2458                           ;E:/Universidad/Semestre2_2023/Digital-2/Proyecto1/Master/MasterPIC.X/LCD.c: 101:     RC
      +                          1 = 0;
  2459     02F1  1283               	bcf	3,5	;RP0=0, select bank0
  2460     02F2  1303               	bcf	3,6	;RP1=0, select bank0
  2461     02F3  1087               	bcf	7,1	;volatile
  2462     02F4                     l237:
  2463     02F4  0008               	return
  2464     02F5                     __end_of_Lcd_Write_Char:
  2465                           
  2466                           	psect	text17
  2467     030F                     __ptext17:	
  2468 ;; *************** function _Lcd_Set_Cursor *****************
  2469 ;; Defined at:
  2470 ;;		line 68 in file "E:/Universidad/Semestre2_2023/Digital-2/Proyecto1/Master/MasterPIC.X/LCD.c"
  2471 ;; Parameters:    Size  Location     Type
  2472 ;;  a               1    wreg     unsigned char 
  2473 ;;  b               1    4[COMMON] unsigned char 
  2474 ;; Auto vars:     Size  Location     Type
  2475 ;;  a               1    5[COMMON] unsigned char 
  2476 ;;  temp            1    6[COMMON] unsigned char 
  2477 ;; Return value:  Size  Location     Type
  2478 ;;                  1    wreg      void 
  2479 ;; Registers used:
  2480 ;;		wreg, status,2, status,0, pclath, cstack
  2481 ;; Tracked objects:
  2482 ;;		On entry : 0/0
  2483 ;;		On exit  : 0/0
  2484 ;;		Unchanged: 0/0
  2485 ;; Data sizes:     COMMON   BANK0   BANK1   BANK3   BANK2
  2486 ;;      Params:         1       0       0       0       0
  2487 ;;      Locals:         2       0       0       0       0
  2488 ;;      Temps:          0       0       0       0       0
  2489 ;;      Totals:         3       0       0       0       0
  2490 ;;Total ram usage:        3 bytes
  2491 ;; Hardware stack levels used: 1
  2492 ;; Hardware stack levels required when called: 2
  2493 ;; This function calls:
  2494 ;;		_Lcd_Cmd
  2495 ;; This function is called by:
  2496 ;;		_LCDprint
  2497 ;;		_usSensor
  2498 ;; This function uses a non-reentrant model
  2499 ;;
  2500                           
  2501     030F                     _Lcd_Set_Cursor:	
  2502                           ;psect for function _Lcd_Set_Cursor
  2503                           
  2504                           
  2505                           ;incstack = 0
  2506                           ; Regs used in _Lcd_Set_Cursor: [wreg+status,2+status,0+pclath+cstack]
  2507                           ;Lcd_Set_Cursor@a stored from wreg
  2508     030F  00F5               	movwf	Lcd_Set_Cursor@a
  2509     0310                     l1411:
  2510                           
  2511                           ;E:/Universidad/Semestre2_2023/Digital-2/Proyecto1/Master/MasterPIC.X/LCD.c: 69:     uns
      +                          igned char temp;;E:/Universidad/Semestre2_2023/Digital-2/Proyecto1/Master/MasterPIC.X/LC
      +                          D.c: 70:     if (a == 1) {
  2512     0310  0375               	decf	Lcd_Set_Cursor@a,w
  2513     0311  1D03               	btfss	3,2
  2514     0312  2B14               	goto	u661
  2515     0313  2B15               	goto	u660
  2516     0314                     u661:
  2517     0314  2B1F               	goto	l1417
  2518     0315                     u660:
  2519     0315                     l1413:
  2520                           
  2521                           ;E:/Universidad/Semestre2_2023/Digital-2/Proyecto1/Master/MasterPIC.X/LCD.c: 71:        
      +                           temp = 0x80 + b - 1;
  2522     0315  0874               	movf	Lcd_Set_Cursor@b,w
  2523     0316  3E7F               	addlw	127
  2524     0317  00F6               	movwf	Lcd_Set_Cursor@temp
  2525     0318                     l1415:
  2526                           
  2527                           ;E:/Universidad/Semestre2_2023/Digital-2/Proyecto1/Master/MasterPIC.X/LCD.c: 72:        
      +                           Lcd_Cmd(temp);
  2528     0318  0876               	movf	Lcd_Set_Cursor@temp,w
  2529     0319  120A  118A  22F5  120A  118A  	fcall	_Lcd_Cmd
  2530                           
  2531                           ;E:/Universidad/Semestre2_2023/Digital-2/Proyecto1/Master/MasterPIC.X/LCD.c: 74:     } e
      +                          lse if (a == 2) {
  2532     031E  2B2E               	goto	l231
  2533     031F                     l1417:
  2534     031F  3002               	movlw	2
  2535     0320  0675               	xorwf	Lcd_Set_Cursor@a,w
  2536     0321  1D03               	btfss	3,2
  2537     0322  2B24               	goto	u671
  2538     0323  2B25               	goto	u670
  2539     0324                     u671:
  2540     0324  2B2E               	goto	l231
  2541     0325                     u670:
  2542     0325                     l1419:
  2543                           
  2544                           ;E:/Universidad/Semestre2_2023/Digital-2/Proyecto1/Master/MasterPIC.X/LCD.c: 75:        
      +                           temp = 0xC0 + b - 1;
  2545     0325  0874               	movf	Lcd_Set_Cursor@b,w
  2546     0326  3EBF               	addlw	191
  2547     0327  00F6               	movwf	Lcd_Set_Cursor@temp
  2548     0328                     l1421:
  2549                           
  2550                           ;E:/Universidad/Semestre2_2023/Digital-2/Proyecto1/Master/MasterPIC.X/LCD.c: 76:        
      +                           Lcd_Cmd(temp);
  2551     0328  0876               	movf	Lcd_Set_Cursor@temp,w
  2552     0329  120A  118A  22F5  120A  118A  	fcall	_Lcd_Cmd
  2553     032E                     l231:
  2554     032E  0008               	return
  2555     032F                     __end_of_Lcd_Set_Cursor:
  2556                           
  2557                           	psect	text18
  2558     06A2                     __ptext18:	
  2559 ;; *************** function _sprintf *****************
  2560 ;; Defined at:
  2561 ;;		line 505 in file "C:\Program Files\Microchip\xc8\v2.41\pic\sources\c90\common\doprnt.c"
  2562 ;; Parameters:    Size  Location     Type
  2563 ;;  sp              1    wreg     PTR unsigned char 
  2564 ;;		 -> lineLCD(16), 
  2565 ;;  f               1    0[BANK0 ] PTR const unsigned char 
  2566 ;;		 -> STR_1(15), 
  2567 ;; Auto vars:     Size  Location     Type
  2568 ;;  sp              1    8[BANK0 ] PTR unsigned char 
  2569 ;;		 -> lineLCD(16), 
  2570 ;;  tmpval          4    0        struct .
  2571 ;;  val             2    9[BANK0 ] unsigned int 
  2572 ;;  cp              2    0        PTR const unsigned char 
  2573 ;;  len             2    0        unsigned int 
  2574 ;;  c               1   12[BANK0 ] unsigned char 
  2575 ;;  prec            1   11[BANK0 ] char 
  2576 ;;  flag            1    7[BANK0 ] unsigned char 
  2577 ;;  ap              1    6[BANK0 ] PTR void [1]
  2578 ;;		 -> ?_sprintf(2), 
  2579 ;; Return value:  Size  Location     Type
  2580 ;;                  2    0[BANK0 ] int 
  2581 ;; Registers used:
  2582 ;;		wreg, fsr0l, fsr0h, status,2, status,0, btemp+1, pclath, cstack
  2583 ;; Tracked objects:
  2584 ;;		On entry : 0/0
  2585 ;;		On exit  : 0/0
  2586 ;;		Unchanged: 0/0
  2587 ;; Data sizes:     COMMON   BANK0   BANK1   BANK3   BANK2
  2588 ;;      Params:         0       3       0       0       0
  2589 ;;      Locals:         0       7       0       0       0
  2590 ;;      Temps:          0       3       0       0       0
  2591 ;;      Totals:         0      13       0       0       0
  2592 ;;Total ram usage:       13 bytes
  2593 ;; Hardware stack levels used: 1
  2594 ;; Hardware stack levels required when called: 1
  2595 ;; This function calls:
  2596 ;;		___bmul
  2597 ;;		___lwdiv
  2598 ;;		___lwmod
  2599 ;;		_isdigit
  2600 ;; This function is called by:
  2601 ;;		_LCDprint
  2602 ;; This function uses a non-reentrant model
  2603 ;;
  2604                           
  2605     06A2                     _sprintf:	
  2606                           ;psect for function _sprintf
  2607                           
  2608                           
  2609                           ;incstack = 0
  2610                           ; Regs used in _sprintf: [wreg-fsr0h+status,2+status,0+btemp+1+pclath+cstack]
  2611                           ;sprintf@sp stored from wreg
  2612     06A2  1283               	bcf	3,5	;RP0=0, select bank0
  2613     06A3  1303               	bcf	3,6	;RP1=0, select bank0
  2614     06A4  00C4               	movwf	sprintf@sp
  2615     06A5                     l1585:
  2616                           
  2617                           ;C:\Program Files\Microchip\xc8\v2.41\pic\sources\c90\common\doprnt.c: 505: sprintf(char
      +                           * sp, const char * f, ...);C:\Program Files\Microchip\xc8\v2.41\pic\sources\c90\common\
      +                          doprnt.c: 506: {;C:\Program Files\Microchip\xc8\v2.41\pic\sources\c90\common\doprnt.c: 5
      +                          07:  va_list ap;;C:\Program Files\Microchip\xc8\v2.41\pic\sources\c90\common\doprnt.c: 5
      +                          12:  char c;;C:\Program Files\Microchip\xc8\v2.41\pic\sources\c90\common\doprnt.c: 521: 
      +                           signed char prec;;C:\Program Files\Microchip\xc8\v2.41\pic\sources\c90\common\doprnt.c:
      +                           525:  unsigned char flag;
  2618     06A5  303D               	movlw	(low ((?_sprintf| 0+1)))& (0+255)
  2619     06A6  00C2               	movwf	sprintf@ap
  2620                           
  2621                           ;C:\Program Files\Microchip\xc8\v2.41\pic\sources\c90\common\doprnt.c: 553:  while((c = 
      +                          *f++)) {
  2622     06A7  2FDE               	goto	l1667
  2623     06A8                     l1587:
  2624                           
  2625                           ;C:\Program Files\Microchip\xc8\v2.41\pic\sources\c90\common\doprnt.c: 555:   if(c != '%
      +                          ')
  2626     06A8  3025               	movlw	37
  2627     06A9  0648               	xorwf	sprintf@c,w
  2628     06AA  1903               	btfsc	3,2
  2629     06AB  2EAD               	goto	u971
  2630     06AC  2EAE               	goto	u970
  2631     06AD                     u971:
  2632     06AD  2EB8               	goto	l1593
  2633     06AE                     u970:
  2634     06AE                     l1589:
  2635                           
  2636                           ;C:\Program Files\Microchip\xc8\v2.41\pic\sources\c90\common\doprnt.c: 557:   {;C:\Progr
      +                          am Files\Microchip\xc8\v2.41\pic\sources\c90\common\doprnt.c: 558:    ((*sp++ = (c)));
  2637     06AE  0844               	movf	sprintf@sp,w
  2638     06AF  0084               	movwf	4
  2639     06B0  0848               	movf	sprintf@c,w
  2640     06B1  1383               	bcf	3,7	;select IRP bank0
  2641     06B2  0080               	movwf	0
  2642     06B3                     l1591:
  2643     06B3  3001               	movlw	1
  2644     06B4  00FF               	movwf	btemp+1
  2645     06B5  087F               	movf	btemp+1,w
  2646     06B6  07C4               	addwf	sprintf@sp,f
  2647                           
  2648                           ;C:\Program Files\Microchip\xc8\v2.41\pic\sources\c90\common\doprnt.c: 559:    continue;
  2649     06B7  2FDE               	goto	l1667
  2650     06B8                     l1593:
  2651                           
  2652                           ;C:\Program Files\Microchip\xc8\v2.41\pic\sources\c90\common\doprnt.c: 565:   flag = 0;
  2653     06B8  01C3               	clrf	sprintf@flag
  2654     06B9                     l1595:
  2655                           
  2656                           ;C:\Program Files\Microchip\xc8\v2.41\pic\sources\c90\common\doprnt.c: 628:   if(*f == '
      +                          .') {
  2657     06B9  083C               	movf	sprintf@f,w
  2658     06BA  0084               	movwf	4
  2659     06BB  120A  118A  200D  120A  118A  	fcall	stringdir
  2660     06C0  3A2E               	xorlw	46
  2661     06C1  1D03               	skipz
  2662     06C2  2EC4               	goto	u981
  2663     06C3  2EC5               	goto	u980
  2664     06C4                     u981:
  2665     06C4  2EF8               	goto	l1609
  2666     06C5                     u980:
  2667     06C5                     l1597:
  2668                           
  2669                           ;C:\Program Files\Microchip\xc8\v2.41\pic\sources\c90\common\doprnt.c: 630:    f++;
  2670     06C5  3001               	movlw	1
  2671     06C6  00FF               	movwf	btemp+1
  2672     06C7  087F               	movf	btemp+1,w
  2673     06C8  07BC               	addwf	sprintf@f,f
  2674     06C9                     l1599:
  2675                           
  2676                           ;C:\Program Files\Microchip\xc8\v2.41\pic\sources\c90\common\doprnt.c: 644:    {;C:\Prog
      +                          ram Files\Microchip\xc8\v2.41\pic\sources\c90\common\doprnt.c: 645:     prec = 0;
  2677     06C9  01C7               	clrf	sprintf@prec
  2678                           
  2679                           ;C:\Program Files\Microchip\xc8\v2.41\pic\sources\c90\common\doprnt.c: 646:     while(is
      +                          digit((unsigned)*f)) {
  2680     06CA  2EE7               	goto	l1607
  2681     06CB                     l1601:
  2682                           
  2683                           ;C:\Program Files\Microchip\xc8\v2.41\pic\sources\c90\common\doprnt.c: 647:      prec *=
      +                           10;
  2684     06CB  1283               	bcf	3,5	;RP0=0, select bank0
  2685     06CC  1303               	bcf	3,6	;RP1=0, select bank0
  2686     06CD  0847               	movf	sprintf@prec,w
  2687     06CE  00F0               	movwf	___bmul@multiplicand
  2688     06CF  300A               	movlw	10
  2689     06D0  120A  118A  22CA  120A  118A  	fcall	___bmul
  2690     06D5  1283               	bcf	3,5	;RP0=0, select bank0
  2691     06D6  1303               	bcf	3,6	;RP1=0, select bank0
  2692     06D7  00C7               	movwf	sprintf@prec
  2693     06D8                     l1603:
  2694                           
  2695                           ;C:\Program Files\Microchip\xc8\v2.41\pic\sources\c90\common\doprnt.c: 648:         prec
      +                           += *f++ - '0';
  2696     06D8  083C               	movf	sprintf@f,w
  2697     06D9  0084               	movwf	4
  2698     06DA  120A  118A  200D  120A  118A  	fcall	stringdir
  2699     06DF  3ED0               	addlw	-48
  2700     06E0  00FF               	movwf	btemp+1
  2701     06E1  087F               	movf	btemp+1,w
  2702     06E2  07C7               	addwf	sprintf@prec,f
  2703     06E3                     l1605:
  2704     06E3  3001               	movlw	1
  2705     06E4  00FF               	movwf	btemp+1
  2706     06E5  087F               	movf	btemp+1,w
  2707     06E6  07BC               	addwf	sprintf@f,f
  2708     06E7                     l1607:
  2709                           
  2710                           ;C:\Program Files\Microchip\xc8\v2.41\pic\sources\c90\common\doprnt.c: 646:     while(is
      +                          digit((unsigned)*f)) {
  2711     06E7  083C               	movf	sprintf@f,w
  2712     06E8  0084               	movwf	4
  2713     06E9  120A  118A  200D  120A  118A  	fcall	stringdir
  2714     06EE  120A  118A  22B8  120A  118A  	fcall	_isdigit
  2715     06F3  1803               	btfsc	3,0
  2716     06F4  2EF6               	goto	u991
  2717     06F5  2EF7               	goto	u990
  2718     06F6                     u991:
  2719     06F6  2ECB               	goto	l1601
  2720     06F7                     u990:
  2721     06F7  2EF9               	goto	l1613
  2722     06F8                     l1609:
  2723                           
  2724                           ;C:\Program Files\Microchip\xc8\v2.41\pic\sources\c90\common\doprnt.c: 652:    prec = 0;
  2725     06F8  01C7               	clrf	sprintf@prec
  2726     06F9                     l1613:
  2727     06F9  3001               	movlw	1
  2728     06FA  1283               	bcf	3,5	;RP0=0, select bank0
  2729     06FB  1303               	bcf	3,6	;RP1=0, select bank0
  2730     06FC  07BC               	addwf	sprintf@f,f
  2731     06FD  30FF               	movlw	-1
  2732     06FE  073C               	addwf	sprintf@f,w
  2733     06FF  0084               	movwf	4
  2734     0700  120A  118A  200D  120A  118A  	fcall	stringdir
  2735     0705  00C8               	movwf	sprintf@c
  2736     0706  00BF               	movwf	??_sprintf
  2737     0707  01C0               	clrf	??_sprintf+1
  2738                           
  2739                           ; Switch on 2 bytes has been partitioned into a top level switch of size 1, and 1 sub-sw
      +                          itches
  2740                           ; Switch size 1, requested type "simple"
  2741                           ; Number of cases is 1, Range of values is 0 to 0
  2742                           ; switch strategies available:
  2743                           ; Name         Instructions Cycles
  2744                           ; simple_byte            4     3 (average)
  2745                           ; direct_byte           11     8 (fixed)
  2746                           ; jumptable            260     6 (fixed)
  2747                           ;	Chosen strategy is simple_byte
  2748     0708  0840               	movf	??_sprintf+1,w
  2749     0709  3A00               	xorlw	0	; case 0
  2750     070A  1903               	skipnz
  2751     070B  2F0D               	goto	l1835
  2752     070C  2FDE               	goto	l1667
  2753     070D                     l1835:
  2754                           
  2755                           ; Switch size 1, requested type "simple"
  2756                           ; Number of cases is 3, Range of values is 0 to 105
  2757                           ; switch strategies available:
  2758                           ; Name         Instructions Cycles
  2759                           ; simple_byte           10     6 (average)
  2760                           ; jumptable            260     6 (fixed)
  2761                           ;	Chosen strategy is simple_byte
  2762     070D  083F               	movf	??_sprintf,w
  2763     070E  3A00               	xorlw	0	; case 0
  2764     070F  1903               	skipnz
  2765     0710  2FEE               	goto	l1669
  2766     0711  3A64               	xorlw	100	; case 100
  2767     0712  1903               	skipnz
  2768     0713  2F18               	goto	l1615
  2769     0714  3A0D               	xorlw	13	; case 105
  2770     0715  1903               	skipnz
  2771     0716  2F18               	goto	l1615
  2772     0717  2FDE               	goto	l1667
  2773     0718                     l1615:
  2774                           
  2775                           ;C:\Program Files\Microchip\xc8\v2.41\pic\sources\c90\common\doprnt.c: 1279:   {;C:\Prog
      +                          ram Files\Microchip\xc8\v2.41\pic\sources\c90\common\doprnt.c: 1285:     val = (unsigned
      +                           int)(*(int *)__va_arg((*(int **)ap), (int)0));
  2776     0718  0842               	movf	sprintf@ap,w
  2777     0719  0084               	movwf	4
  2778     071A  1383               	bcf	3,7	;select IRP bank0
  2779     071B  0800               	movf	0,w
  2780     071C  00C5               	movwf	sprintf@val
  2781     071D  0A84               	incf	4,f
  2782     071E  0800               	movf	0,w
  2783     071F  00C6               	movwf	sprintf@val+1
  2784     0720                     l1617:
  2785     0720  3002               	movlw	2
  2786     0721  00FF               	movwf	btemp+1
  2787     0722  087F               	movf	btemp+1,w
  2788     0723  07C2               	addwf	sprintf@ap,f
  2789     0724                     l1619:
  2790                           
  2791                           ;C:\Program Files\Microchip\xc8\v2.41\pic\sources\c90\common\doprnt.c: 1287:    if((int)
      +                          val < 0) {
  2792     0724  1FC6               	btfss	sprintf@val+1,7
  2793     0725  2F27               	goto	u1001
  2794     0726  2F28               	goto	u1000
  2795     0727                     u1001:
  2796     0727  2F31               	goto	l1625
  2797     0728                     u1000:
  2798     0728                     l1621:
  2799                           
  2800                           ;C:\Program Files\Microchip\xc8\v2.41\pic\sources\c90\common\doprnt.c: 1288:     flag |=
      +                           0x03;
  2801     0728  3003               	movlw	3
  2802     0729  00FF               	movwf	btemp+1
  2803     072A  087F               	movf	btemp+1,w
  2804     072B  04C3               	iorwf	sprintf@flag,f
  2805     072C                     l1623:
  2806                           
  2807                           ;C:\Program Files\Microchip\xc8\v2.41\pic\sources\c90\common\doprnt.c: 1289:     val = -
      +                          val;
  2808     072C  09C5               	comf	sprintf@val,f
  2809     072D  09C6               	comf	sprintf@val+1,f
  2810     072E  0AC5               	incf	sprintf@val,f
  2811     072F  1903               	skipnz
  2812     0730  0AC6               	incf	sprintf@val+1,f
  2813     0731                     l1625:
  2814                           
  2815                           ;C:\Program Files\Microchip\xc8\v2.41\pic\sources\c90\common\doprnt.c: 1292:   };C:\Prog
      +                          ram Files\Microchip\xc8\v2.41\pic\sources\c90\common\doprnt.c: 1316:   if(prec == 0 && v
      +                          al == 0)
  2816     0731  0847               	movf	sprintf@prec,w
  2817     0732  1D03               	btfss	3,2
  2818     0733  2F35               	goto	u1011
  2819     0734  2F36               	goto	u1010
  2820     0735                     u1011:
  2821     0735  2F40               	goto	l1631
  2822     0736                     u1010:
  2823     0736                     l1627:
  2824     0736  0845               	movf	sprintf@val,w
  2825     0737  0446               	iorwf	sprintf@val+1,w
  2826     0738  1D03               	btfss	3,2
  2827     0739  2F3B               	goto	u1021
  2828     073A  2F3C               	goto	u1020
  2829     073B                     u1021:
  2830     073B  2F40               	goto	l1631
  2831     073C                     u1020:
  2832     073C                     l1629:
  2833                           
  2834                           ;C:\Program Files\Microchip\xc8\v2.41\pic\sources\c90\common\doprnt.c: 1317:    prec++;
  2835     073C  3001               	movlw	1
  2836     073D  00FF               	movwf	btemp+1
  2837     073E  087F               	movf	btemp+1,w
  2838     073F  07C7               	addwf	sprintf@prec,f
  2839     0740                     l1631:
  2840                           
  2841                           ;C:\Program Files\Microchip\xc8\v2.41\pic\sources\c90\common\doprnt.c: 1331:    for(c = 
      +                          1 ; c != sizeof dpowers/sizeof dpowers[0] ; c++)
  2842     0740  01C8               	clrf	sprintf@c
  2843     0741  0AC8               	incf	sprintf@c,f
  2844     0742                     l1637:
  2845                           
  2846                           ;C:\Program Files\Microchip\xc8\v2.41\pic\sources\c90\common\doprnt.c: 1332:     if(val 
      +                          < dpowers[c])
  2847     0742  0848               	movf	sprintf@c,w
  2848     0743  00BF               	movwf	??_sprintf
  2849     0744  073F               	addwf	??_sprintf,w
  2850     0745  3E01               	addlw	low ((_dpowers-__stringbase)| (0+32768))
  2851     0746  0084               	movwf	4
  2852     0747  120A  118A  200D  120A  118A  	fcall	stringdir
  2853     074C  00C0               	movwf	??_sprintf+1
  2854     074D  120A  118A  200D  120A  118A  	fcall	stringdir
  2855     0752  00C1               	movwf	??_sprintf+2
  2856     0753  0841               	movf	??_sprintf+2,w
  2857     0754  0246               	subwf	sprintf@val+1,w
  2858     0755  1D03               	skipz
  2859     0756  2F59               	goto	u1035
  2860     0757  0840               	movf	??_sprintf+1,w
  2861     0758  0245               	subwf	sprintf@val,w
  2862     0759                     u1035:
  2863     0759  1803               	skipnc
  2864     075A  2F5C               	goto	u1031
  2865     075B  2F5D               	goto	u1030
  2866     075C                     u1031:
  2867     075C  2F5E               	goto	l1641
  2868     075D                     u1030:
  2869     075D  2F68               	goto	l1645
  2870     075E                     l1641:
  2871     075E  3001               	movlw	1
  2872     075F  00FF               	movwf	btemp+1
  2873     0760  087F               	movf	btemp+1,w
  2874     0761  07C8               	addwf	sprintf@c,f
  2875     0762                     l1643:
  2876     0762  3005               	movlw	5
  2877     0763  0648               	xorwf	sprintf@c,w
  2878     0764  1D03               	btfss	3,2
  2879     0765  2F67               	goto	u1041
  2880     0766  2F68               	goto	u1040
  2881     0767                     u1041:
  2882     0767  2F42               	goto	l1637
  2883     0768                     u1040:
  2884     0768                     l1645:
  2885                           
  2886                           ;C:\Program Files\Microchip\xc8\v2.41\pic\sources\c90\common\doprnt.c: 1365:   if(c < pr
      +                          ec)
  2887     0768  0847               	movf	sprintf@prec,w
  2888     0769  00BF               	movwf	??_sprintf
  2889     076A  01C0               	clrf	??_sprintf+1
  2890     076B  1BBF               	btfsc	??_sprintf,7
  2891     076C  03C0               	decf	??_sprintf+1,f
  2892     076D  0840               	movf	??_sprintf+1,w
  2893     076E  3A80               	xorlw	128
  2894     076F  3C80               	sublw	128
  2895     0770  1D03               	skipz
  2896     0771  2F74               	goto	u1055
  2897     0772  083F               	movf	??_sprintf,w
  2898     0773  0248               	subwf	sprintf@c,w
  2899     0774                     u1055:
  2900     0774  1803               	skipnc
  2901     0775  2F77               	goto	u1051
  2902     0776  2F78               	goto	u1050
  2903     0777                     u1051:
  2904     0777  2F79               	goto	l1649
  2905     0778                     u1050:
  2906     0778                     l1647:
  2907     0778  2F91               	goto	l1653
  2908     0779                     l1649:
  2909     0779  1283               	bcf	3,5	;RP0=0, select bank0
  2910     077A  1303               	bcf	3,6	;RP1=0, select bank0
  2911     077B  0847               	movf	sprintf@prec,w
  2912     077C  00BF               	movwf	??_sprintf
  2913     077D  01C0               	clrf	??_sprintf+1
  2914     077E  1BBF               	btfsc	??_sprintf,7
  2915     077F  03C0               	decf	??_sprintf+1,f
  2916     0780  0840               	movf	??_sprintf+1,w
  2917     0781  3A80               	xorlw	128
  2918     0782  00C1               	movwf	??_sprintf+2
  2919     0783  3080               	movlw	128
  2920     0784  0241               	subwf	??_sprintf+2,w
  2921     0785  1D03               	skipz
  2922     0786  2F89               	goto	u1065
  2923     0787  0848               	movf	sprintf@c,w
  2924     0788  023F               	subwf	??_sprintf,w
  2925     0789                     u1065:
  2926     0789  1803               	skipnc
  2927     078A  2F8C               	goto	u1061
  2928     078B  2F8D               	goto	u1060
  2929     078C                     u1061:
  2930     078C  2F91               	goto	l1653
  2931     078D                     u1060:
  2932     078D                     l1651:
  2933                           
  2934                           ;C:\Program Files\Microchip\xc8\v2.41\pic\sources\c90\common\doprnt.c: 1368:    prec = c
      +                          ;
  2935     078D  1283               	bcf	3,5	;RP0=0, select bank0
  2936     078E  1303               	bcf	3,6	;RP1=0, select bank0
  2937     078F  0848               	movf	sprintf@c,w
  2938     0790  00C7               	movwf	sprintf@prec
  2939     0791                     l1653:
  2940                           
  2941                           ;C:\Program Files\Microchip\xc8\v2.41\pic\sources\c90\common\doprnt.c: 1448:   {;C:\Prog
      +                          ram Files\Microchip\xc8\v2.41\pic\sources\c90\common\doprnt.c: 1464:    if(flag & 0x03)
  2942     0791  1283               	bcf	3,5	;RP0=0, select bank0
  2943     0792  1303               	bcf	3,6	;RP1=0, select bank0
  2944     0793  0843               	movf	sprintf@flag,w
  2945     0794  3903               	andlw	3
  2946     0795  1903               	btfsc	3,2
  2947     0796  2F98               	goto	u1071
  2948     0797  2F99               	goto	u1070
  2949     0798                     u1071:
  2950     0798  2FD5               	goto	l1665
  2951     0799                     u1070:
  2952     0799                     l1655:
  2953                           
  2954                           ;C:\Program Files\Microchip\xc8\v2.41\pic\sources\c90\common\doprnt.c: 1465:     ((*sp++
      +                           = ('-')));
  2955     0799  0844               	movf	sprintf@sp,w
  2956     079A  0084               	movwf	4
  2957     079B  302D               	movlw	45
  2958     079C  1383               	bcf	3,7	;select IRP bank0
  2959     079D  0080               	movwf	0
  2960     079E                     l1657:
  2961     079E  3001               	movlw	1
  2962     079F  00FF               	movwf	btemp+1
  2963     07A0  087F               	movf	btemp+1,w
  2964     07A1  07C4               	addwf	sprintf@sp,f
  2965     07A2  2FD5               	goto	l1665
  2966     07A3                     l1659:
  2967                           
  2968                           ;C:\Program Files\Microchip\xc8\v2.41\pic\sources\c90\common\doprnt.c: 1504:    {;C:\Pro
      +                          gram Files\Microchip\xc8\v2.41\pic\sources\c90\common\doprnt.c: 1515:     c = (val / dpo
      +                          wers[(unsigned char)prec]) % 10 + '0';
  2969     07A3  300A               	movlw	10
  2970     07A4  00F7               	movwf	___lwmod@divisor
  2971     07A5  3000               	movlw	0
  2972     07A6  00F8               	movwf	___lwmod@divisor+1
  2973     07A7  0847               	movf	sprintf@prec,w
  2974     07A8  00BF               	movwf	??_sprintf
  2975     07A9  073F               	addwf	??_sprintf,w
  2976     07AA  3E01               	addlw	low ((_dpowers-__stringbase)| (0+32768))
  2977     07AB  0084               	movwf	4
  2978     07AC  120A  118A  200D  120A  118A  	fcall	stringdir
  2979     07B1  00F0               	movwf	___lwdiv@divisor
  2980     07B2  120A  118A  200D  120A  118A  	fcall	stringdir
  2981     07B7  00F1               	movwf	___lwdiv@divisor+1
  2982     07B8  0846               	movf	sprintf@val+1,w
  2983     07B9  00F3               	movwf	___lwdiv@dividend+1
  2984     07BA  0845               	movf	sprintf@val,w
  2985     07BB  00F2               	movwf	___lwdiv@dividend
  2986     07BC  120A  118A  24FB  120A  118A  	fcall	___lwdiv
  2987     07C1  0871               	movf	?___lwdiv+1,w
  2988     07C2  00FA               	movwf	___lwmod@dividend+1
  2989     07C3  0870               	movf	?___lwdiv,w
  2990     07C4  00F9               	movwf	___lwmod@dividend
  2991     07C5  120A  118A  2403  120A  118A  	fcall	___lwmod
  2992     07CA  0877               	movf	?___lwmod,w
  2993     07CB  3E30               	addlw	48
  2994     07CC  1283               	bcf	3,5	;RP0=0, select bank0
  2995     07CD  1303               	bcf	3,6	;RP1=0, select bank0
  2996     07CE  00C8               	movwf	sprintf@c
  2997     07CF                     l1661:
  2998                           
  2999                           ;C:\Program Files\Microchip\xc8\v2.41\pic\sources\c90\common\doprnt.c: 1549:    };C:\Pro
      +                          gram Files\Microchip\xc8\v2.41\pic\sources\c90\common\doprnt.c: 1550:    ((*sp++ = (c)))
      +                          ;
  3000     07CF  0844               	movf	sprintf@sp,w
  3001     07D0  0084               	movwf	4
  3002     07D1  0848               	movf	sprintf@c,w
  3003     07D2  1383               	bcf	3,7	;select IRP bank0
  3004     07D3  0080               	movwf	0
  3005     07D4  2F9E               	goto	l1657
  3006     07D5                     l1665:
  3007                           
  3008                           ;C:\Program Files\Microchip\xc8\v2.41\pic\sources\c90\common\doprnt.c: 1500:   while(pre
      +                          c--) {
  3009     07D5  30FF               	movlw	255
  3010     07D6  00FF               	movwf	btemp+1
  3011     07D7  087F               	movf	btemp+1,w
  3012     07D8  07C7               	addwf	sprintf@prec,f
  3013     07D9  0A47               	incf	sprintf@prec,w
  3014     07DA  1D03               	btfss	3,2
  3015     07DB  2FDD               	goto	u1081
  3016     07DC  2FDE               	goto	u1080
  3017     07DD                     u1081:
  3018     07DD  2FA3               	goto	l1659
  3019     07DE                     u1080:
  3020     07DE                     l1667:
  3021                           
  3022                           ;C:\Program Files\Microchip\xc8\v2.41\pic\sources\c90\common\doprnt.c: 553:  while((c = 
      +                          *f++)) {
  3023     07DE  3001               	movlw	1
  3024     07DF  07BC               	addwf	sprintf@f,f
  3025     07E0  30FF               	movlw	-1
  3026     07E1  073C               	addwf	sprintf@f,w
  3027     07E2  0084               	movwf	4
  3028     07E3  120A  118A  200D  120A  118A  	fcall	stringdir
  3029     07E8  00C8               	movwf	sprintf@c
  3030     07E9  0848               	movf	sprintf@c,w
  3031     07EA  1D03               	btfss	3,2
  3032     07EB  2FED               	goto	u1091
  3033     07EC  2FEE               	goto	u1090
  3034     07ED                     u1091:
  3035     07ED  2EA8               	goto	l1587
  3036     07EE                     u1090:
  3037     07EE                     l1669:
  3038                           
  3039                           ;C:\Program Files\Microchip\xc8\v2.41\pic\sources\c90\common\doprnt.c: 1564:  *sp = 0;
  3040     07EE  0844               	movf	sprintf@sp,w
  3041     07EF  0084               	movwf	4
  3042     07F0  1383               	bcf	3,7	;select IRP bank0
  3043     07F1  0180               	clrf	0
  3044     07F2                     l370:
  3045     07F2  0008               	return
  3046     07F3                     __end_of_sprintf:
  3047                           
  3048                           	psect	text19
  3049     02B8                     __ptext19:	
  3050 ;; *************** function _isdigit *****************
  3051 ;; Defined at:
  3052 ;;		line 8 in file "C:\Program Files\Microchip\xc8\v2.41\pic\sources\c90\common\isdigit.c"
  3053 ;; Parameters:    Size  Location     Type
  3054 ;;  c               1    wreg     unsigned char 
  3055 ;; Auto vars:     Size  Location     Type
  3056 ;;  c               1    1[COMMON] unsigned char 
  3057 ;; Return value:  Size  Location     Type
  3058 ;;		None               void
  3059 ;; Registers used:
  3060 ;;		wreg, status,2, status,0
  3061 ;; Tracked objects:
  3062 ;;		On entry : 0/0
  3063 ;;		On exit  : 0/0
  3064 ;;		Unchanged: 0/0
  3065 ;; Data sizes:     COMMON   BANK0   BANK1   BANK3   BANK2
  3066 ;;      Params:         0       0       0       0       0
  3067 ;;      Locals:         2       0       0       0       0
  3068 ;;      Temps:          0       0       0       0       0
  3069 ;;      Totals:         2       0       0       0       0
  3070 ;;Total ram usage:        2 bytes
  3071 ;; Hardware stack levels used: 1
  3072 ;; This function calls:
  3073 ;;		Nothing
  3074 ;; This function is called by:
  3075 ;;		_sprintf
  3076 ;; This function uses a non-reentrant model
  3077 ;;
  3078                           
  3079     02B8                     _isdigit:	
  3080                           ;psect for function _isdigit
  3081                           
  3082                           
  3083                           ;incstack = 0
  3084                           ; Regs used in _isdigit: [wreg+status,2+status,0]
  3085                           ;isdigit@c stored from wreg
  3086     02B8  00F1               	movwf	isdigit@c
  3087     02B9                     l1431:
  3088     02B9  01F0               	clrf	_isdigit$754
  3089     02BA                     l1433:
  3090     02BA  303A               	movlw	58
  3091     02BB  0271               	subwf	isdigit@c,w
  3092     02BC  1803               	skipnc
  3093     02BD  2ABF               	goto	u711
  3094     02BE  2AC0               	goto	u710
  3095     02BF                     u711:
  3096     02BF  2AC8               	goto	l1439
  3097     02C0                     u710:
  3098     02C0                     l1435:
  3099     02C0  3030               	movlw	48
  3100     02C1  0271               	subwf	isdigit@c,w
  3101     02C2  1C03               	skipc
  3102     02C3  2AC5               	goto	u721
  3103     02C4  2AC6               	goto	u720
  3104     02C5                     u721:
  3105     02C5  2AC8               	goto	l1439
  3106     02C6                     u720:
  3107     02C6                     l1437:
  3108     02C6  01F0               	clrf	_isdigit$754
  3109     02C7  0AF0               	incf	_isdigit$754,f
  3110     02C8                     l1439:
  3111     02C8  0C70               	rrf	_isdigit$754,w
  3112     02C9                     l827:
  3113     02C9  0008               	return
  3114     02CA                     __end_of_isdigit:
  3115                           
  3116                           	psect	text20
  3117     0403                     __ptext20:	
  3118 ;; *************** function ___lwmod *****************
  3119 ;; Defined at:
  3120 ;;		line 5 in file "C:\Program Files\Microchip\xc8\v2.41\pic\sources\c90\common\lwmod.c"
  3121 ;; Parameters:    Size  Location     Type
  3122 ;;  divisor         2    7[COMMON] unsigned int 
  3123 ;;  dividend        2    9[COMMON] unsigned int 
  3124 ;; Auto vars:     Size  Location     Type
  3125 ;;  counter         1   11[COMMON] unsigned char 
  3126 ;; Return value:  Size  Location     Type
  3127 ;;                  2    7[COMMON] unsigned int 
  3128 ;; Registers used:
  3129 ;;		wreg, status,2, status,0, btemp+1
  3130 ;; Tracked objects:
  3131 ;;		On entry : 0/0
  3132 ;;		On exit  : 0/0
  3133 ;;		Unchanged: 0/0
  3134 ;; Data sizes:     COMMON   BANK0   BANK1   BANK3   BANK2
  3135 ;;      Params:         4       0       0       0       0
  3136 ;;      Locals:         1       0       0       0       0
  3137 ;;      Temps:          0       0       0       0       0
  3138 ;;      Totals:         5       0       0       0       0
  3139 ;;Total ram usage:        5 bytes
  3140 ;; Hardware stack levels used: 1
  3141 ;; This function calls:
  3142 ;;		Nothing
  3143 ;; This function is called by:
  3144 ;;		_sprintf
  3145 ;; This function uses a non-reentrant model
  3146 ;;
  3147                           
  3148     0403                     ___lwmod:	
  3149                           ;psect for function ___lwmod
  3150                           
  3151     0403                     l1511:	
  3152                           ;incstack = 0
  3153                           ; Regs used in ___lwmod: [wreg+status,2+status,0+btemp+1]
  3154                           
  3155     0403  0877               	movf	___lwmod@divisor,w
  3156     0404  0478               	iorwf	___lwmod@divisor+1,w
  3157     0405  1903               	btfsc	3,2
  3158     0406  2C08               	goto	u891
  3159     0407  2C09               	goto	u890
  3160     0408                     u891:
  3161     0408  2C38               	goto	l1529
  3162     0409                     u890:
  3163     0409                     l1513:
  3164     0409  01FB               	clrf	___lwmod@counter
  3165     040A  0AFB               	incf	___lwmod@counter,f
  3166     040B  2C17               	goto	l1519
  3167     040C                     l1515:
  3168     040C  3001               	movlw	1
  3169     040D                     u905:
  3170     040D  1003               	clrc
  3171     040E  0DF7               	rlf	___lwmod@divisor,f
  3172     040F  0DF8               	rlf	___lwmod@divisor+1,f
  3173     0410  3EFF               	addlw	-1
  3174     0411  1D03               	skipz
  3175     0412  2C0D               	goto	u905
  3176     0413                     l1517:
  3177     0413  3001               	movlw	1
  3178     0414  00FF               	movwf	btemp+1
  3179     0415  087F               	movf	btemp+1,w
  3180     0416  07FB               	addwf	___lwmod@counter,f
  3181     0417                     l1519:
  3182     0417  1FF8               	btfss	___lwmod@divisor+1,7
  3183     0418  2C1A               	goto	u911
  3184     0419  2C1B               	goto	u910
  3185     041A                     u911:
  3186     041A  2C0C               	goto	l1515
  3187     041B                     u910:
  3188     041B                     l1521:
  3189     041B  0878               	movf	___lwmod@divisor+1,w
  3190     041C  027A               	subwf	___lwmod@dividend+1,w
  3191     041D  1D03               	skipz
  3192     041E  2C21               	goto	u925
  3193     041F  0877               	movf	___lwmod@divisor,w
  3194     0420  0279               	subwf	___lwmod@dividend,w
  3195     0421                     u925:
  3196     0421  1C03               	skipc
  3197     0422  2C24               	goto	u921
  3198     0423  2C25               	goto	u920
  3199     0424                     u921:
  3200     0424  2C2B               	goto	l1525
  3201     0425                     u920:
  3202     0425                     l1523:
  3203     0425  0877               	movf	___lwmod@divisor,w
  3204     0426  02F9               	subwf	___lwmod@dividend,f
  3205     0427  0878               	movf	___lwmod@divisor+1,w
  3206     0428  1C03               	skipc
  3207     0429  03FA               	decf	___lwmod@dividend+1,f
  3208     042A  02FA               	subwf	___lwmod@dividend+1,f
  3209     042B                     l1525:
  3210     042B  3001               	movlw	1
  3211     042C                     u935:
  3212     042C  1003               	clrc
  3213     042D  0CF8               	rrf	___lwmod@divisor+1,f
  3214     042E  0CF7               	rrf	___lwmod@divisor,f
  3215     042F  3EFF               	addlw	-1
  3216     0430  1D03               	skipz
  3217     0431  2C2C               	goto	u935
  3218     0432                     l1527:
  3219     0432  3001               	movlw	1
  3220     0433  02FB               	subwf	___lwmod@counter,f
  3221     0434  1D03               	btfss	3,2
  3222     0435  2C37               	goto	u941
  3223     0436  2C38               	goto	u940
  3224     0437                     u941:
  3225     0437  2C1B               	goto	l1521
  3226     0438                     u940:
  3227     0438                     l1529:
  3228     0438  087A               	movf	___lwmod@dividend+1,w
  3229     0439  00F8               	movwf	?___lwmod+1
  3230     043A  0879               	movf	___lwmod@dividend,w
  3231     043B  00F7               	movwf	?___lwmod
  3232     043C                     l656:
  3233     043C  0008               	return
  3234     043D                     __end_of___lwmod:
  3235                           
  3236                           	psect	text21
  3237     04FB                     __ptext21:	
  3238 ;; *************** function ___lwdiv *****************
  3239 ;; Defined at:
  3240 ;;		line 5 in file "C:\Program Files\Microchip\xc8\v2.41\pic\sources\c90\common\lwdiv.c"
  3241 ;; Parameters:    Size  Location     Type
  3242 ;;  divisor         2    0[COMMON] unsigned int 
  3243 ;;  dividend        2    2[COMMON] unsigned int 
  3244 ;; Auto vars:     Size  Location     Type
  3245 ;;  quotient        2    4[COMMON] unsigned int 
  3246 ;;  counter         1    6[COMMON] unsigned char 
  3247 ;; Return value:  Size  Location     Type
  3248 ;;                  2    0[COMMON] unsigned int 
  3249 ;; Registers used:
  3250 ;;		wreg, status,2, status,0, btemp+1
  3251 ;; Tracked objects:
  3252 ;;		On entry : 0/0
  3253 ;;		On exit  : 0/0
  3254 ;;		Unchanged: 0/0
  3255 ;; Data sizes:     COMMON   BANK0   BANK1   BANK3   BANK2
  3256 ;;      Params:         4       0       0       0       0
  3257 ;;      Locals:         3       0       0       0       0
  3258 ;;      Temps:          0       0       0       0       0
  3259 ;;      Totals:         7       0       0       0       0
  3260 ;;Total ram usage:        7 bytes
  3261 ;; Hardware stack levels used: 1
  3262 ;; This function calls:
  3263 ;;		Nothing
  3264 ;; This function is called by:
  3265 ;;		_sprintf
  3266 ;; This function uses a non-reentrant model
  3267 ;;
  3268                           
  3269     04FB                     ___lwdiv:	
  3270                           ;psect for function ___lwdiv
  3271                           
  3272     04FB                     l1485:	
  3273                           ;incstack = 0
  3274                           ; Regs used in ___lwdiv: [wreg+status,2+status,0+btemp+1]
  3275                           
  3276     04FB  01F4               	clrf	___lwdiv@quotient
  3277     04FC  01F5               	clrf	___lwdiv@quotient+1
  3278     04FD                     l1487:
  3279     04FD  0870               	movf	___lwdiv@divisor,w
  3280     04FE  0471               	iorwf	___lwdiv@divisor+1,w
  3281     04FF  1903               	btfsc	3,2
  3282     0500  2D02               	goto	u821
  3283     0501  2D03               	goto	u820
  3284     0502                     u821:
  3285     0502  2D3A               	goto	l1507
  3286     0503                     u820:
  3287     0503                     l1489:
  3288     0503  01F6               	clrf	___lwdiv@counter
  3289     0504  0AF6               	incf	___lwdiv@counter,f
  3290     0505  2D11               	goto	l1495
  3291     0506                     l1491:
  3292     0506  3001               	movlw	1
  3293     0507                     u835:
  3294     0507  1003               	clrc
  3295     0508  0DF0               	rlf	___lwdiv@divisor,f
  3296     0509  0DF1               	rlf	___lwdiv@divisor+1,f
  3297     050A  3EFF               	addlw	-1
  3298     050B  1D03               	skipz
  3299     050C  2D07               	goto	u835
  3300     050D                     l1493:
  3301     050D  3001               	movlw	1
  3302     050E  00FF               	movwf	btemp+1
  3303     050F  087F               	movf	btemp+1,w
  3304     0510  07F6               	addwf	___lwdiv@counter,f
  3305     0511                     l1495:
  3306     0511  1FF1               	btfss	___lwdiv@divisor+1,7
  3307     0512  2D14               	goto	u841
  3308     0513  2D15               	goto	u840
  3309     0514                     u841:
  3310     0514  2D06               	goto	l1491
  3311     0515                     u840:
  3312     0515                     l1497:
  3313     0515  3001               	movlw	1
  3314     0516                     u855:
  3315     0516  1003               	clrc
  3316     0517  0DF4               	rlf	___lwdiv@quotient,f
  3317     0518  0DF5               	rlf	___lwdiv@quotient+1,f
  3318     0519  3EFF               	addlw	-1
  3319     051A  1D03               	skipz
  3320     051B  2D16               	goto	u855
  3321     051C  0871               	movf	___lwdiv@divisor+1,w
  3322     051D  0273               	subwf	___lwdiv@dividend+1,w
  3323     051E  1D03               	skipz
  3324     051F  2D22               	goto	u865
  3325     0520  0870               	movf	___lwdiv@divisor,w
  3326     0521  0272               	subwf	___lwdiv@dividend,w
  3327     0522                     u865:
  3328     0522  1C03               	skipc
  3329     0523  2D25               	goto	u861
  3330     0524  2D26               	goto	u860
  3331     0525                     u861:
  3332     0525  2D2D               	goto	l1503
  3333     0526                     u860:
  3334     0526                     l1499:
  3335     0526  0870               	movf	___lwdiv@divisor,w
  3336     0527  02F2               	subwf	___lwdiv@dividend,f
  3337     0528  0871               	movf	___lwdiv@divisor+1,w
  3338     0529  1C03               	skipc
  3339     052A  03F3               	decf	___lwdiv@dividend+1,f
  3340     052B  02F3               	subwf	___lwdiv@dividend+1,f
  3341     052C                     l1501:
  3342     052C  1474               	bsf	___lwdiv@quotient,0
  3343     052D                     l1503:
  3344     052D  3001               	movlw	1
  3345     052E                     u875:
  3346     052E  1003               	clrc
  3347     052F  0CF1               	rrf	___lwdiv@divisor+1,f
  3348     0530  0CF0               	rrf	___lwdiv@divisor,f
  3349     0531  3EFF               	addlw	-1
  3350     0532  1D03               	skipz
  3351     0533  2D2E               	goto	u875
  3352     0534                     l1505:
  3353     0534  3001               	movlw	1
  3354     0535  02F6               	subwf	___lwdiv@counter,f
  3355     0536  1D03               	btfss	3,2
  3356     0537  2D39               	goto	u881
  3357     0538  2D3A               	goto	u880
  3358     0539                     u881:
  3359     0539  2D15               	goto	l1497
  3360     053A                     u880:
  3361     053A                     l1507:
  3362     053A  0875               	movf	___lwdiv@quotient+1,w
  3363     053B  00F1               	movwf	?___lwdiv+1
  3364     053C  0874               	movf	___lwdiv@quotient,w
  3365     053D  00F0               	movwf	?___lwdiv
  3366     053E                     l646:
  3367     053E  0008               	return
  3368     053F                     __end_of___lwdiv:
  3369                           
  3370                           	psect	text22
  3371     02CA                     __ptext22:	
  3372 ;; *************** function ___bmul *****************
  3373 ;; Defined at:
  3374 ;;		line 4 in file "C:\Program Files\Microchip\xc8\v2.41\pic\sources\c90\common\Umul8.c"
  3375 ;; Parameters:    Size  Location     Type
  3376 ;;  multiplier      1    wreg     unsigned char 
  3377 ;;  multiplicand    1    0[COMMON] unsigned char 
  3378 ;; Auto vars:     Size  Location     Type
  3379 ;;  multiplier      1    2[COMMON] unsigned char 
  3380 ;;  product         1    1[COMMON] unsigned char 
  3381 ;; Return value:  Size  Location     Type
  3382 ;;                  1    wreg      unsigned char 
  3383 ;; Registers used:
  3384 ;;		wreg, status,2, status,0, btemp+1
  3385 ;; Tracked objects:
  3386 ;;		On entry : 0/0
  3387 ;;		On exit  : 0/0
  3388 ;;		Unchanged: 0/0
  3389 ;; Data sizes:     COMMON   BANK0   BANK1   BANK3   BANK2
  3390 ;;      Params:         1       0       0       0       0
  3391 ;;      Locals:         2       0       0       0       0
  3392 ;;      Temps:          0       0       0       0       0
  3393 ;;      Totals:         3       0       0       0       0
  3394 ;;Total ram usage:        3 bytes
  3395 ;; Hardware stack levels used: 1
  3396 ;; This function calls:
  3397 ;;		Nothing
  3398 ;; This function is called by:
  3399 ;;		_sprintf
  3400 ;; This function uses a non-reentrant model
  3401 ;;
  3402                           
  3403     02CA                     ___bmul:	
  3404                           ;psect for function ___bmul
  3405                           
  3406                           
  3407                           ;incstack = 0
  3408                           ; Regs used in ___bmul: [wreg+status,2+status,0+btemp+1]
  3409                           ;___bmul@multiplier stored from wreg
  3410     02CA  00F2               	movwf	___bmul@multiplier
  3411     02CB                     l1443:
  3412     02CB  01F1               	clrf	___bmul@product
  3413     02CC                     l1445:
  3414     02CC  1C72               	btfss	___bmul@multiplier,0
  3415     02CD  2ACF               	goto	u731
  3416     02CE  2AD0               	goto	u730
  3417     02CF                     u731:
  3418     02CF  2AD4               	goto	l1449
  3419     02D0                     u730:
  3420     02D0                     l1447:
  3421     02D0  0870               	movf	___bmul@multiplicand,w
  3422     02D1  00FF               	movwf	btemp+1
  3423     02D2  087F               	movf	btemp+1,w
  3424     02D3  07F1               	addwf	___bmul@product,f
  3425     02D4                     l1449:
  3426     02D4  1003               	clrc
  3427     02D5  0DF0               	rlf	___bmul@multiplicand,f
  3428     02D6                     l1451:
  3429     02D6  1003               	clrc
  3430     02D7  0CF2               	rrf	___bmul@multiplier,f
  3431     02D8                     l1453:
  3432     02D8  0872               	movf	___bmul@multiplier,w
  3433     02D9  1D03               	btfss	3,2
  3434     02DA  2ADC               	goto	u741
  3435     02DB  2ADD               	goto	u740
  3436     02DC                     u741:
  3437     02DC  2ACC               	goto	l1445
  3438     02DD                     u740:
  3439     02DD                     l1455:
  3440     02DD  0871               	movf	___bmul@product,w
  3441     02DE                     l400:
  3442     02DE  0008               	return
  3443     02DF                     __end_of___bmul:
  3444                           
  3445                           	psect	text23
  3446     029E                     __ptext23:	
  3447 ;; *************** function _Lcd_Clear *****************
  3448 ;; Defined at:
  3449 ;;		line 63 in file "E:/Universidad/Semestre2_2023/Digital-2/Proyecto1/Master/MasterPIC.X/LCD.c"
  3450 ;; Parameters:    Size  Location     Type
  3451 ;;		None
  3452 ;; Auto vars:     Size  Location     Type
  3453 ;;		None
  3454 ;; Return value:  Size  Location     Type
  3455 ;;                  1    wreg      void 
  3456 ;; Registers used:
  3457 ;;		wreg, status,2, status,0, pclath, cstack
  3458 ;; Tracked objects:
  3459 ;;		On entry : 0/0
  3460 ;;		On exit  : 0/0
  3461 ;;		Unchanged: 0/0
  3462 ;; Data sizes:     COMMON   BANK0   BANK1   BANK3   BANK2
  3463 ;;      Params:         0       0       0       0       0
  3464 ;;      Locals:         0       0       0       0       0
  3465 ;;      Temps:          0       0       0       0       0
  3466 ;;      Totals:         0       0       0       0       0
  3467 ;;Total ram usage:        0 bytes
  3468 ;; Hardware stack levels used: 1
  3469 ;; Hardware stack levels required when called: 2
  3470 ;; This function calls:
  3471 ;;		_Lcd_Cmd
  3472 ;; This function is called by:
  3473 ;;		_LCDprint
  3474 ;; This function uses a non-reentrant model
  3475 ;;
  3476                           
  3477     029E                     _Lcd_Clear:	
  3478                           ;psect for function _Lcd_Clear
  3479                           
  3480     029E                     l1583:	
  3481                           ;incstack = 0
  3482                           ; Regs used in _Lcd_Clear: [wreg+status,2+status,0+pclath+cstack]
  3483                           
  3484                           
  3485                           ;E:/Universidad/Semestre2_2023/Digital-2/Proyecto1/Master/MasterPIC.X/LCD.c: 64:     Lcd
      +                          _Cmd(0);
  3486     029E  3000               	movlw	0
  3487     029F  120A  118A  22F5  120A  118A  	fcall	_Lcd_Cmd
  3488                           
  3489                           ;E:/Universidad/Semestre2_2023/Digital-2/Proyecto1/Master/MasterPIC.X/LCD.c: 65:     Lcd
      +                          _Cmd(1);
  3490     02A4  3001               	movlw	1
  3491     02A5  120A  118A  22F5  120A  118A  	fcall	_Lcd_Cmd
  3492     02AA                     l225:
  3493     02AA  0008               	return
  3494     02AB                     __end_of_Lcd_Clear:
  3495                           
  3496                           	psect	text24
  3497     02F5                     __ptext24:	
  3498 ;; *************** function _Lcd_Cmd *****************
  3499 ;; Defined at:
  3500 ;;		line 55 in file "E:/Universidad/Semestre2_2023/Digital-2/Proyecto1/Master/MasterPIC.X/LCD.c"
  3501 ;; Parameters:    Size  Location     Type
  3502 ;;  a               1    wreg     unsigned char 
  3503 ;; Auto vars:     Size  Location     Type
  3504 ;;  a               1    3[COMMON] unsigned char 
  3505 ;; Return value:  Size  Location     Type
  3506 ;;                  1    wreg      void 
  3507 ;; Registers used:
  3508 ;;		wreg, status,2, status,0, pclath, cstack
  3509 ;; Tracked objects:
  3510 ;;		On entry : 0/0
  3511 ;;		On exit  : 0/0
  3512 ;;		Unchanged: 0/0
  3513 ;; Data sizes:     COMMON   BANK0   BANK1   BANK3   BANK2
  3514 ;;      Params:         0       0       0       0       0
  3515 ;;      Locals:         1       0       0       0       0
  3516 ;;      Temps:          2       0       0       0       0
  3517 ;;      Totals:         3       0       0       0       0
  3518 ;;Total ram usage:        3 bytes
  3519 ;; Hardware stack levels used: 1
  3520 ;; Hardware stack levels required when called: 1
  3521 ;; This function calls:
  3522 ;;		_Lcd_Port
  3523 ;; This function is called by:
  3524 ;;		_Lcd_Clear
  3525 ;;		_Lcd_Set_Cursor
  3526 ;;		_Lcd_Init
  3527 ;;		_Lcd_Shift_Right
  3528 ;;		_Lcd_Shift_Left
  3529 ;; This function uses a non-reentrant model
  3530 ;;
  3531                           
  3532     02F5                     _Lcd_Cmd:	
  3533                           ;psect for function _Lcd_Cmd
  3534                           
  3535                           
  3536                           ;incstack = 0
  3537                           ; Regs used in _Lcd_Cmd: [wreg+status,2+status,0+pclath+cstack]
  3538                           ;Lcd_Cmd@a stored from wreg
  3539     02F5  00F3               	movwf	Lcd_Cmd@a
  3540     02F6                     l1387:
  3541                           
  3542                           ;E:/Universidad/Semestre2_2023/Digital-2/Proyecto1/Master/MasterPIC.X/LCD.c: 56:     RC0
      +                           = 0;
  3543     02F6  1283               	bcf	3,5	;RP0=0, select bank0
  3544     02F7  1303               	bcf	3,6	;RP1=0, select bank0
  3545     02F8  1007               	bcf	7,0	;volatile
  3546     02F9                     l1389:
  3547                           
  3548                           ;E:/Universidad/Semestre2_2023/Digital-2/Proyecto1/Master/MasterPIC.X/LCD.c: 57:     Lcd
      +                          _Port(a);
  3549     02F9  0873               	movf	Lcd_Cmd@a,w
  3550     02FA  120A  118A  243D  120A  118A  	fcall	_Lcd_Port
  3551     02FF                     l1391:
  3552                           
  3553                           ;E:/Universidad/Semestre2_2023/Digital-2/Proyecto1/Master/MasterPIC.X/LCD.c: 58:     RC1
      +                           = 1;
  3554     02FF  1283               	bcf	3,5	;RP0=0, select bank0
  3555     0300  1303               	bcf	3,6	;RP1=0, select bank0
  3556     0301  1487               	bsf	7,1	;volatile
  3557     0302                     l1393:
  3558                           
  3559                           ;E:/Universidad/Semestre2_2023/Digital-2/Proyecto1/Master/MasterPIC.X/LCD.c: 59:     _de
      +                          lay((unsigned long)((4)*(8000000/4000.0)));
  3560     0302  300B               	movlw	11
  3561     0303  00F2               	movwf	??_Lcd_Cmd+1
  3562     0304  3062               	movlw	98
  3563     0305  00F1               	movwf	??_Lcd_Cmd
  3564     0306                     u1197:
  3565     0306  0BF1               	decfsz	??_Lcd_Cmd,f
  3566     0307  2B06               	goto	u1197
  3567     0308  0BF2               	decfsz	??_Lcd_Cmd+1,f
  3568     0309  2B06               	goto	u1197
  3569     030A  0000               	nop
  3570     030B                     l1395:
  3571                           
  3572                           ;E:/Universidad/Semestre2_2023/Digital-2/Proyecto1/Master/MasterPIC.X/LCD.c: 60:     RC1
      +                           = 0;
  3573     030B  1283               	bcf	3,5	;RP0=0, select bank0
  3574     030C  1303               	bcf	3,6	;RP1=0, select bank0
  3575     030D  1087               	bcf	7,1	;volatile
  3576     030E                     l222:
  3577     030E  0008               	return
  3578     030F                     __end_of_Lcd_Cmd:
  3579                           
  3580                           	psect	text25
  3581     043D                     __ptext25:	
  3582 ;; *************** function _Lcd_Port *****************
  3583 ;; Defined at:
  3584 ;;		line 13 in file "E:/Universidad/Semestre2_2023/Digital-2/Proyecto1/Master/MasterPIC.X/LCD.c"
  3585 ;; Parameters:    Size  Location     Type
  3586 ;;  a               1    wreg     unsigned char 
  3587 ;; Auto vars:     Size  Location     Type
  3588 ;;  a               1    0[COMMON] unsigned char 
  3589 ;; Return value:  Size  Location     Type
  3590 ;;                  1    wreg      void 
  3591 ;; Registers used:
  3592 ;;		wreg
  3593 ;; Tracked objects:
  3594 ;;		On entry : 0/0
  3595 ;;		On exit  : 0/0
  3596 ;;		Unchanged: 0/0
  3597 ;; Data sizes:     COMMON   BANK0   BANK1   BANK3   BANK2
  3598 ;;      Params:         0       0       0       0       0
  3599 ;;      Locals:         1       0       0       0       0
  3600 ;;      Temps:          0       0       0       0       0
  3601 ;;      Totals:         1       0       0       0       0
  3602 ;;Total ram usage:        1 bytes
  3603 ;; Hardware stack levels used: 1
  3604 ;; This function calls:
  3605 ;;		Nothing
  3606 ;; This function is called by:
  3607 ;;		_Lcd_Cmd
  3608 ;;		_Lcd_Init
  3609 ;;		_Lcd_Write_Char
  3610 ;; This function uses a non-reentrant model
  3611 ;;
  3612                           
  3613     043D                     _Lcd_Port:	
  3614                           ;psect for function _Lcd_Port
  3615                           
  3616                           
  3617                           ;incstack = 0
  3618                           ; Regs used in _Lcd_Port: [wreg]
  3619                           ;Lcd_Port@a stored from wreg
  3620     043D  00F0               	movwf	Lcd_Port@a
  3621     043E                     l1369:
  3622                           
  3623                           ;E:/Universidad/Semestre2_2023/Digital-2/Proyecto1/Master/MasterPIC.X/LCD.c: 14:     if 
      +                          (a & 1)
  3624     043E  1C70               	btfss	Lcd_Port@a,0
  3625     043F  2C41               	goto	u561
  3626     0440  2C42               	goto	u560
  3627     0441                     u561:
  3628     0441  2C46               	goto	l203
  3629     0442                     u560:
  3630     0442                     l1371:
  3631                           
  3632                           ;E:/Universidad/Semestre2_2023/Digital-2/Proyecto1/Master/MasterPIC.X/LCD.c: 15:        
      +                           RD0 = 1;
  3633     0442  1283               	bcf	3,5	;RP0=0, select bank0
  3634     0443  1303               	bcf	3,6	;RP1=0, select bank0
  3635     0444  1408               	bsf	8,0	;volatile
  3636     0445  2C49               	goto	l204
  3637     0446                     l203:	
  3638                           ;E:/Universidad/Semestre2_2023/Digital-2/Proyecto1/Master/MasterPIC.X/LCD.c: 16:     els
      +                          e
  3639                           
  3640                           
  3641                           ;E:/Universidad/Semestre2_2023/Digital-2/Proyecto1/Master/MasterPIC.X/LCD.c: 17:        
      +                           RD0 = 0;
  3642     0446  1283               	bcf	3,5	;RP0=0, select bank0
  3643     0447  1303               	bcf	3,6	;RP1=0, select bank0
  3644     0448  1008               	bcf	8,0	;volatile
  3645     0449                     l204:
  3646                           
  3647                           ;E:/Universidad/Semestre2_2023/Digital-2/Proyecto1/Master/MasterPIC.X/LCD.c: 19:     if 
      +                          (a & 2)
  3648     0449  1CF0               	btfss	Lcd_Port@a,1
  3649     044A  2C4C               	goto	u571
  3650     044B  2C4D               	goto	u570
  3651     044C                     u571:
  3652     044C  2C4F               	goto	l205
  3653     044D                     u570:
  3654     044D                     l1373:
  3655                           
  3656                           ;E:/Universidad/Semestre2_2023/Digital-2/Proyecto1/Master/MasterPIC.X/LCD.c: 20:        
      +                           RD1 = 1;
  3657     044D  1488               	bsf	8,1	;volatile
  3658     044E  2C50               	goto	l206
  3659     044F                     l205:	
  3660                           ;E:/Universidad/Semestre2_2023/Digital-2/Proyecto1/Master/MasterPIC.X/LCD.c: 21:     els
      +                          e
  3661                           
  3662                           
  3663                           ;E:/Universidad/Semestre2_2023/Digital-2/Proyecto1/Master/MasterPIC.X/LCD.c: 22:        
      +                           RD1 = 0;
  3664     044F  1088               	bcf	8,1	;volatile
  3665     0450                     l206:
  3666                           
  3667                           ;E:/Universidad/Semestre2_2023/Digital-2/Proyecto1/Master/MasterPIC.X/LCD.c: 24:     if 
      +                          (a & 4)
  3668     0450  1D70               	btfss	Lcd_Port@a,2
  3669     0451  2C53               	goto	u581
  3670     0452  2C54               	goto	u580
  3671     0453                     u581:
  3672     0453  2C56               	goto	l207
  3673     0454                     u580:
  3674     0454                     l1375:
  3675                           
  3676                           ;E:/Universidad/Semestre2_2023/Digital-2/Proyecto1/Master/MasterPIC.X/LCD.c: 25:        
      +                           RD2 = 1;
  3677     0454  1508               	bsf	8,2	;volatile
  3678     0455  2C57               	goto	l208
  3679     0456                     l207:	
  3680                           ;E:/Universidad/Semestre2_2023/Digital-2/Proyecto1/Master/MasterPIC.X/LCD.c: 26:     els
      +                          e
  3681                           
  3682                           
  3683                           ;E:/Universidad/Semestre2_2023/Digital-2/Proyecto1/Master/MasterPIC.X/LCD.c: 27:        
      +                           RD2 = 0;
  3684     0456  1108               	bcf	8,2	;volatile
  3685     0457                     l208:
  3686                           
  3687                           ;E:/Universidad/Semestre2_2023/Digital-2/Proyecto1/Master/MasterPIC.X/LCD.c: 29:     if 
      +                          (a & 8)
  3688     0457  1DF0               	btfss	Lcd_Port@a,3
  3689     0458  2C5A               	goto	u591
  3690     0459  2C5B               	goto	u590
  3691     045A                     u591:
  3692     045A  2C5D               	goto	l209
  3693     045B                     u590:
  3694     045B                     l1377:
  3695                           
  3696                           ;E:/Universidad/Semestre2_2023/Digital-2/Proyecto1/Master/MasterPIC.X/LCD.c: 30:        
      +                           RD3 = 1;
  3697     045B  1588               	bsf	8,3	;volatile
  3698     045C  2C5E               	goto	l210
  3699     045D                     l209:	
  3700                           ;E:/Universidad/Semestre2_2023/Digital-2/Proyecto1/Master/MasterPIC.X/LCD.c: 31:     els
      +                          e
  3701                           
  3702                           
  3703                           ;E:/Universidad/Semestre2_2023/Digital-2/Proyecto1/Master/MasterPIC.X/LCD.c: 32:        
      +                           RD3 = 0;
  3704     045D  1188               	bcf	8,3	;volatile
  3705     045E                     l210:
  3706                           
  3707                           ;E:/Universidad/Semestre2_2023/Digital-2/Proyecto1/Master/MasterPIC.X/LCD.c: 34:     if 
      +                          (a & 16)
  3708     045E  1E70               	btfss	Lcd_Port@a,4
  3709     045F  2C61               	goto	u601
  3710     0460  2C62               	goto	u600
  3711     0461                     u601:
  3712     0461  2C64               	goto	l211
  3713     0462                     u600:
  3714     0462                     l1379:
  3715                           
  3716                           ;E:/Universidad/Semestre2_2023/Digital-2/Proyecto1/Master/MasterPIC.X/LCD.c: 35:        
      +                           RD4 = 1;
  3717     0462  1608               	bsf	8,4	;volatile
  3718     0463  2C65               	goto	l212
  3719     0464                     l211:	
  3720                           ;E:/Universidad/Semestre2_2023/Digital-2/Proyecto1/Master/MasterPIC.X/LCD.c: 36:     els
      +                          e
  3721                           
  3722                           
  3723                           ;E:/Universidad/Semestre2_2023/Digital-2/Proyecto1/Master/MasterPIC.X/LCD.c: 37:        
      +                           RD4 = 0;
  3724     0464  1208               	bcf	8,4	;volatile
  3725     0465                     l212:
  3726                           
  3727                           ;E:/Universidad/Semestre2_2023/Digital-2/Proyecto1/Master/MasterPIC.X/LCD.c: 39:     if 
      +                          (a & 32)
  3728     0465  1EF0               	btfss	Lcd_Port@a,5
  3729     0466  2C68               	goto	u611
  3730     0467  2C69               	goto	u610
  3731     0468                     u611:
  3732     0468  2C6B               	goto	l213
  3733     0469                     u610:
  3734     0469                     l1381:
  3735                           
  3736                           ;E:/Universidad/Semestre2_2023/Digital-2/Proyecto1/Master/MasterPIC.X/LCD.c: 40:        
      +                           RD5 = 1;
  3737     0469  1688               	bsf	8,5	;volatile
  3738     046A  2C6C               	goto	l214
  3739     046B                     l213:	
  3740                           ;E:/Universidad/Semestre2_2023/Digital-2/Proyecto1/Master/MasterPIC.X/LCD.c: 41:     els
      +                          e
  3741                           
  3742                           
  3743                           ;E:/Universidad/Semestre2_2023/Digital-2/Proyecto1/Master/MasterPIC.X/LCD.c: 42:        
      +                           RD5 = 0;
  3744     046B  1288               	bcf	8,5	;volatile
  3745     046C                     l214:
  3746                           
  3747                           ;E:/Universidad/Semestre2_2023/Digital-2/Proyecto1/Master/MasterPIC.X/LCD.c: 44:     if 
      +                          (a & 64)
  3748     046C  1F70               	btfss	Lcd_Port@a,6
  3749     046D  2C6F               	goto	u621
  3750     046E  2C70               	goto	u620
  3751     046F                     u621:
  3752     046F  2C72               	goto	l215
  3753     0470                     u620:
  3754     0470                     l1383:
  3755                           
  3756                           ;E:/Universidad/Semestre2_2023/Digital-2/Proyecto1/Master/MasterPIC.X/LCD.c: 45:        
      +                           RD6 = 1;
  3757     0470  1708               	bsf	8,6	;volatile
  3758     0471  2C73               	goto	l216
  3759     0472                     l215:	
  3760                           ;E:/Universidad/Semestre2_2023/Digital-2/Proyecto1/Master/MasterPIC.X/LCD.c: 46:     els
      +                          e
  3761                           
  3762                           
  3763                           ;E:/Universidad/Semestre2_2023/Digital-2/Proyecto1/Master/MasterPIC.X/LCD.c: 47:        
      +                           RD6 = 0;
  3764     0472  1308               	bcf	8,6	;volatile
  3765     0473                     l216:
  3766                           
  3767                           ;E:/Universidad/Semestre2_2023/Digital-2/Proyecto1/Master/MasterPIC.X/LCD.c: 49:     if 
      +                          (a & 128)
  3768     0473  1FF0               	btfss	Lcd_Port@a,7
  3769     0474  2C76               	goto	u631
  3770     0475  2C77               	goto	u630
  3771     0476                     u631:
  3772     0476  2C79               	goto	l217
  3773     0477                     u630:
  3774     0477                     l1385:
  3775                           
  3776                           ;E:/Universidad/Semestre2_2023/Digital-2/Proyecto1/Master/MasterPIC.X/LCD.c: 50:        
      +                           RD7 = 1;
  3777     0477  1788               	bsf	8,7	;volatile
  3778     0478  2C7A               	goto	l219
  3779     0479                     l217:	
  3780                           ;E:/Universidad/Semestre2_2023/Digital-2/Proyecto1/Master/MasterPIC.X/LCD.c: 51:     els
      +                          e
  3781                           
  3782                           
  3783                           ;E:/Universidad/Semestre2_2023/Digital-2/Proyecto1/Master/MasterPIC.X/LCD.c: 52:        
      +                           RD7 = 0;
  3784     0479  1388               	bcf	8,7	;volatile
  3785     047A                     l219:
  3786     047A  0008               	return
  3787     047B                     __end_of_Lcd_Port:
  3788     007E                     btemp	set	126	;btemp
  3789     007E                     wtemp0	set	126
  3790                           
  3791                           	psect	idloc
  3792                           
  3793                           ;Config register IDLOC0 @ 0x2000
  3794                           ;	unspecified, using default values
  3795     2000                     	org	8192
  3796     2000  3FFF               	dw	16383
  3797                           
  3798                           ;Config register IDLOC1 @ 0x2001
  3799                           ;	unspecified, using default values
  3800     2001                     	org	8193
  3801     2001  3FFF               	dw	16383
  3802                           
  3803                           ;Config register IDLOC2 @ 0x2002
  3804                           ;	unspecified, using default values
  3805     2002                     	org	8194
  3806     2002  3FFF               	dw	16383
  3807                           
  3808                           ;Config register IDLOC3 @ 0x2003
  3809                           ;	unspecified, using default values
  3810     2003                     	org	8195
  3811     2003  3FFF               	dw	16383
  3812                           
  3813                           	psect	config
  3814                           
  3815                           ;Config register CONFIG1 @ 0x2007
  3816                           ;	Oscillator Selection bits
  3817                           ;	FOSC = INTRC_NOCLKOUT, INTOSCIO oscillator: I/O function on RA6/OSC2/CLKOUT pin, I/O f
      +                          unction on RA7/OSC1/CLKIN
  3818                           ;	Watchdog Timer Enable bit
  3819                           ;	WDTE = OFF, WDT disabled and can be enabled by SWDTEN bit of the WDTCON register
  3820                           ;	Power-up Timer Enable bit
  3821                           ;	PWRTE = OFF, PWRT disabled
  3822                           ;	RE3/MCLR pin function select bit
  3823                           ;	MCLRE = OFF, RE3/MCLR pin function is digital input, MCLR internally tied to VDD
  3824                           ;	Code Protection bit
  3825                           ;	CP = OFF, Program memory code protection is disabled
  3826                           ;	Data Code Protection bit
  3827                           ;	CPD = OFF, Data memory code protection is disabled
  3828                           ;	Brown Out Reset Selection bits
  3829                           ;	BOREN = OFF, BOR disabled
  3830                           ;	Internal External Switchover bit
  3831                           ;	IESO = OFF, Internal/External Switchover mode is disabled
  3832                           ;	Fail-Safe Clock Monitor Enabled bit
  3833                           ;	FCMEN = OFF, Fail-Safe Clock Monitor is disabled
  3834                           ;	Low Voltage Programming Enable bit
  3835                           ;	LVP = OFF, RB3 pin has digital I/O, HV on MCLR must be used for programming
  3836                           ;	In-Circuit Debugger Mode bit
  3837                           ;	DEBUG = 0x1, unprogramme  3838     2007                     	org	8199
  3839     2007  20D4               	dw	8404
  3840                           
  3841                           ;Config register CONFIG2 @ 0x2008
  3842                           ;	Brown-out Reset Selection bit
  3843                           ;	BOR4V = BOR40V, Brown-out Reset set to 4.0V
  3844                           ;	Flash Program Memory Self Write Enable bits
  3845                           ;	WRT = OFF, Write protection off
  3846     2008                     	org	8200
  3847     2008  3FFF               	dw	16383

Data Sizes:
    Strings     26
    Constant    10
    Data        0
    BSS         28
    Persistent  0
    Stack       0

Auto Spaces:
    Space          Size  Autos    Used
    COMMON           14     14      14
    BANK0            80     13      41
    BANK1            80      0       0
    BANK3            96      0       0
    BANK2            96      0       0

Pointer List with Targets:

    sprintf@f	PTR const unsigned char  size(1) Largest target is 15
		 -> STR_1(CODE[15]), 

    sprintf@sp	PTR unsigned char  size(1) Largest target is 16
		 -> lineLCD(BANK0[16]), 

    sprintf@ap	PTR void [1] size(1) Largest target is 2
		 -> ?_sprintf(BANK0[2]), 

    Lcd_Write_String@a	PTR unsigned char  size(2) Largest target is 16
		 -> STR_4(CODE[3]), STR_3(CODE[3]), STR_2(CODE[5]), lineLCD(BANK0[16]), 


Critical Paths under _main in COMMON

    _main->_LCDprint
    _slave2Communication->_I2C_Master_Read
    _slave1Communication->_I2C_Master_Read
    _Lcd_Init->_Lcd_Cmd
    _I2C_Master_Init->___lldiv
    _usSensor->_Lcd_Write_String
    _Lcd_Write_String->_Lcd_Write_Char
    _Lcd_Write_Char->_Lcd_Port
    _Lcd_Set_Cursor->_Lcd_Cmd
    _sprintf->___lwmod
    ___lwmod->___lwdiv
    _Lcd_Clear->_Lcd_Cmd
    _Lcd_Cmd->_Lcd_Port

Critical Paths under _main in BANK0

    _setup->_I2C_Master_Init
    _LCDprint->_sprintf

Critical Paths under _main in BANK1

    None.

Critical Paths under _main in BANK3

    None.

Critical Paths under _main in BANK2

    None.

Call Graph Tables:

 ---------------------------------------------------------------------------------
 (Depth) Function   	        Calls       Base Space   Used Autos Params    Refs
 ---------------------------------------------------------------------------------
 (0) _main                                                 0     0      0    7751
                           _LCDprint
                          _dcForward
                              _setup
                _slave1Communication
                _slave2Communication
 ---------------------------------------------------------------------------------
 (1) _slave2Communication                                  4     4      0    1383
                                              6 COMMON     4     4      0
                    _I2C_Master_Read
                   _I2C_Master_Start
                    _I2C_Master_Stop
                   _I2C_Master_Write
 ---------------------------------------------------------------------------------
 (1) _slave1Communication                                  4     4      0    1383
                                              6 COMMON     4     4      0
                    _I2C_Master_Read
                   _I2C_Master_Start
                    _I2C_Master_Stop
                   _I2C_Master_Write
 ---------------------------------------------------------------------------------
 (2) _I2C_Master_Write                                     2     0      2     706
                                              0 COMMON     2     0      2
                    _I2C_Master_Wait
 ---------------------------------------------------------------------------------
 (2) _I2C_Master_Stop                                      0     0      0       0
                    _I2C_Master_Wait
 ---------------------------------------------------------------------------------
 (2) _I2C_Master_Start                                     0     0      0       0
                    _I2C_Master_Wait
 ---------------------------------------------------------------------------------
 (2) _I2C_Master_Read                                      6     4      2     653
                                              0 COMMON     6     4      2
                    _I2C_Master_Wait
 ---------------------------------------------------------------------------------
 (3) _I2C_Master_Wait                                      0     0      0       0
 ---------------------------------------------------------------------------------
 (1) _setup                                                0     0      0     786
                    _I2C_Master_Init
                           _Lcd_Init
 ---------------------------------------------------------------------------------
 (2) _Lcd_Init                                             2     2      0     374
                                              4 COMMON     2     2      0
                            _Lcd_Cmd
                           _Lcd_Port
 ---------------------------------------------------------------------------------
 (2) _I2C_Master_Init                                      8     4      4     412
                                              0 BANK0      8     4      4
                            ___lldiv
 ---------------------------------------------------------------------------------
 (3) ___lldiv                                             14     6      8     314
                                              0 COMMON    14     6      8
 ---------------------------------------------------------------------------------
 (1) _dcForward                                            0     0      0       0
 ---------------------------------------------------------------------------------
 (1) _LCDprint                                             2     2      0    4199
                                             12 COMMON     2     2      0
                          _Lcd_Clear
                     _Lcd_Set_Cursor
                   _Lcd_Write_String
                            _sprintf
                           _usSensor
 ---------------------------------------------------------------------------------
 (2) _usSensor                                             0     0      0    1152
                     _Lcd_Set_Cursor
                   _Lcd_Write_String
 ---------------------------------------------------------------------------------
 (3) _Lcd_Write_String                                     7     5      2     592
                                              3 COMMON     7     5      2
                     _Lcd_Write_Char
 ---------------------------------------------------------------------------------
 (4) _Lcd_Write_Char                                       2     2      0     198
                                              1 COMMON     2     2      0
                           _Lcd_Port
 ---------------------------------------------------------------------------------
 (3) _Lcd_Set_Cursor                                       3     2      1     560
                                              4 COMMON     3     2      1
                            _Lcd_Cmd
 ---------------------------------------------------------------------------------
 (2) _sprintf                                             21    18      3    1697
                                              0 BANK0     13    10      3
                             ___bmul
                            ___lwdiv
                            ___lwmod
                            _isdigit
 ---------------------------------------------------------------------------------
 (3) _isdigit                                              2     2      0      68
                                              0 COMMON     2     2      0
 ---------------------------------------------------------------------------------
 (3) ___lwmod                                              5     1      4     311
                                              7 COMMON     5     1      4
                            ___lwdiv (ARG)
 ---------------------------------------------------------------------------------
 (3) ___lwdiv                                              7     3      4     314
                                              0 COMMON     7     3      4
 ---------------------------------------------------------------------------------
 (3) ___bmul                                               3     2      1     168
                                              0 COMMON     3     2      1
 ---------------------------------------------------------------------------------
 (2) _Lcd_Clear                                            0     0      0     198
                            _Lcd_Cmd
 ---------------------------------------------------------------------------------
 (3) _Lcd_Cmd                                              3     3      0     198
                                              1 COMMON     3     3      0
                           _Lcd_Port
 ---------------------------------------------------------------------------------
 (3) _Lcd_Port                                             1     1      0     176
                                              0 COMMON     1     1      0
 ---------------------------------------------------------------------------------
 Estimated maximum stack depth 4
 ---------------------------------------------------------------------------------

 Call Graph Graphs:

 _main (ROOT)
   _LCDprint
     _Lcd_Clear
       _Lcd_Cmd
         _Lcd_Port
     _Lcd_Set_Cursor
       _Lcd_Cmd
     _Lcd_Write_String
       _Lcd_Write_Char
         _Lcd_Port
     _sprintf
       ___bmul
       ___lwdiv
       ___lwmod
         ___lwdiv (ARG)
       _isdigit
     _usSensor
       _Lcd_Set_Cursor
       _Lcd_Write_String
   _dcForward
   _setup
     _I2C_Master_Init
       ___lldiv
     _Lcd_Init
       _Lcd_Cmd
       _Lcd_Port
   _slave1Communication
     _I2C_Master_Read
       _I2C_Master_Wait
     _I2C_Master_Start
       _I2C_Master_Wait
     _I2C_Master_Stop
       _I2C_Master_Wait
     _I2C_Master_Write
       _I2C_Master_Wait
   _slave2Communication
     _I2C_Master_Read
     _I2C_Master_Start
     _I2C_Master_Stop
     _I2C_Master_Write

 Address spaces:
Name               Size   Autos  Total    Cost      Usage
BITCOMMON            E      0       0       0        0.0%
EEDATA             100      0       0       0        0.0%
NULL                 0      0       0       0        0.0%
CODE                 0      0       0       0        0.0%
COMMON               E      E       E       1      100.0%
BITSFR0              0      0       0       1        0.0%
SFR0                 0      0       0       1        0.0%
BITSFR1              0      0       0       2        0.0%
SFR1                 0      0       0       2        0.0%
STACK                0      0       0       2        0.0%
ABS                  0      0      37       3        0.0%
BITBANK0            50      0       0       4        0.0%
BITSFR3              0      0       0       4        0.0%
SFR3                 0      0       0       4        0.0%
BANK0               50      D      29       5       51.2%
BITSFR2              0      0       0       5        0.0%
SFR2                 0      0       0       5        0.0%
BITBANK1            50      0       0       6        0.0%
BANK1               50      0       0       7        0.0%
BITBANK3            60      0       0       8        0.0%
BANK3               60      0       0       9        0.0%
BITBANK2            60      0       0      10        0.0%
BANK2               60      0       0      11        0.0%
DATA                 0      0      37      12        0.0%


Microchip Technology PIC Macro Assembler V2.41 build 20230208172133 
Symbol Table                                                                                   Sun Aug 20 18:27:59 2023

                          _a 002B                            pc 0002               ___bmul@product 0071  
                         l32 02AB                           l50 03C2                           l35 02B7  
                         l51 03C5                           l52 03CA                           l44 0293  
                         l29 0402                           l38 028A                           l47 029D  
                         fsr 0004              _ultrasonicValue 002A                          l210 045E  
                        l211 0464                          l203 0446                          l212 0465  
                        l204 0449                          l213 046B                          l205 044F  
                        l214 046C                          l206 0450                          l222 030E  
                        l150 039C                          l215 0472                          l207 0456  
                        l231 032E                          l216 0473                          l208 0457  
                        l400 02DE                          l217 0479                          l209 045D  
                        l225 02AA                          l162 04B8                          l170 0281  
                        l410 06A1                          l234 058F                          l219 047A  
                        l243 04FA                          l156 05E5                          l237 02F4  
                        l167 0373                          l159 063B                          l370 07F2  
                        l646 053E                          l656 043C                          l827 02C9  
                        _GIE 005F                          _RA0 0028                          _RA1 0029  
                        _RA2 002A                          _RA3 002B                          _RA4 002C  
                        _RC0 0038                          _RA5 002D                          _RC1 0039  
                        _RD0 0040                          _RD1 0041                          _RD2 0042  
                        _RD3 0043                          _RD4 0044                          _RD5 0045  
                        _RD6 0046                          _RD7 0047                          u600 0462  
                        u601 0461                          u610 0469                          u611 0468  
                        u620 0470                          u700 04FA                          u621 046F  
                        u701 04F9                          u630 0477                          u710 02C0  
                        u631 0476                          u711 02BF                          u560 0442  
                        u720 02C6                          u640 02B1                          u561 0441  
                        u721 02C5                          u641 02B0                          u570 044D  
                        u730 02D0                          u810 0699                          u650 02B7  
                        u571 044C                          u731 02CF                          u811 0698  
                        u651 02B6                          u580 0454                          u740 02DD  
                        u820 0503                          u660 0315                          u581 0453  
                        u741 02DC                          u821 0502                          u661 0314  
                        u805 068B                          u590 045B                          u910 041B  
                        u670 0325                          u750 064C                          u591 045A  
                        u911 041A                          u671 0324                          u751 064B  
                        u840 0515                          u920 0425                          u680 04C6  
                        u841 0514                          u921 0424                          u905 040D  
                        u690 04E8                          u770 0660                          u835 0507  
                        u771 065F                          u860 0526                          u940 0438  
                        u861 0525                          u941 0437                          u925 0421  
                        u765 0651                          u790 067B                          u950 03E2  
                        u855 0516                          u935 042C                          u791 067A  
                        u880 053A                          u960 03BE                          u881 0539  
                        u865 0522                          u785 0662                          u961 03BD  
                        u890 0409                          u970 06AE                          u875 052E  
                        u891 0408                          u971 06AD                          u795 0677  
                        u955 03DD                          u980 06C5                          u981 06C4  
                        u990 06F7                          u991 06F6                          fsr0 0004  
                        indf 0000                         l1401 02E9                         l1411 0310  
                       l1403 02EC                         l1501 052C                         l1421 0328  
                       l1413 0315                         l1405 02F1                         l1503 052D  
                       l1511 0403                         l1431 02B9                         l1415 0318  
                       l1423 04B9                         l1407 02AB                         l1505 0534  
                       l1521 041B                         l1513 0409                         l1433 02BA  
                       l1601 06CB                         l1417 031F                         l1425 04BC  
                       l1409 02B1                         l1371 0442                         l1451 02D6  
                       l1443 02CB                         l1507 053A                         l1523 0425  
                       l1515 040C                         l1435 02C0                         l1603 06D8  
                       l1419 0325                         l1427 04D8                         l1381 0469  
                       l1373 044D                         l1453 02D8                         l1445 02CC  
                       l1525 042B                         l1517 0413                         l1437 02C6  
                       l1621 0728                         l1613 06F9                         l1605 06E3  
                       l1429 04DE                         l1461 064C                         l1541 0400  
                       l1533 03CB                         l1701 0381                         l1383 0470  
                       l1375 0454                         l1391 02FF                         l1455 02DD  
                       l1447 02D0                         l1527 0432                         l1519 0417  
                       l1439 02C8                         l1631 0740                         l1623 072C  
                       l1615 0718                         l1607 06E7                         l1471 0669  
                       l1463 064F                         l1543 0401                         l1535 03CF  
                       l1711 0388                         l1703 0382                         l1551 0290  
                       l1385 0477                         l1377 045B                         l1369 043E  
                       l1393 0302                         l1449 02D4                         l1529 0438  
                       l1641 075E                         l1625 0731                         l1617 0720  
                       l1609 06F8                         l1473 067B                         l1465 0658  
                       l1481 0699                         l1537 03D2                         l1713 0389  
                       l1705 0383                         l1561 03AA                         l1545 0282  
                       l1553 0294                         l1721 0590                         l1379 0462  
                       l1395 030B                         l1387 02F6                         l1491 0506  
                       l1651 078D                         l1643 0762                         l1627 0736  
                       l1619 0724                         l1475 0689                         l1467 065C  
                       l1459 063C                         l1539 03FF                         l1715 038A  
                       l1707 0384                         l1563 03B3                         l1547 0287  
                       l1555 0299                         l1731 05AD                         l1723 0590  
                       l1389 02F9                         l1493 050D                         l1485 04FB  
                       l1661 07CF                         l1653 0791                         l1645 0768  
                       l1637 0742                         l1629 073C                         l1397 02E0  
                       l1477 068A                         l1469 0660                         l1581 0563  
                       l1573 053F                         l1717 0397                         l1709 0387  
                       l1565 03B8                         l1557 039D                         l1549 028B  
                       l1741 05D5                         l1733 05B9                         l1725 0595  
                       l1583 029E                         l1495 0511                         l1487 04FD  
                       l1655 0799                         l1647 0778                         l1591 06B3  
                       l1399 02E3                         l1719 0279                         l1479 0693  
                       l1575 0545                         l1567 03BE                         l1559 03A2  
                       l1743 05D9                         l1735 05BE                         l1727 059E  
                       l1751 05F4                         l1497 0515                         l1489 0503  
                       l1657 079E                         l1665 07D5                         l1649 0779  
                       l1593 06B8                         l1585 06A5                         l1681 0358  
                       l1577 054E                         l1569 03C6                         l1737 05C7  
                       l1729 05A8                         l1761 061D                         l1753 05FE  
                       l1745 05E6                         l1499 0526                         l1659 07A3  
                       l1835 070D                         l1595 06B9                         l1587 06A8  
                       l1667 07DE                         l1683 0360                         l1771 0488  
                       l1579 055D                         l1691 0374                         l1739 05D0  
                       l1763 0626                         l1755 0603                         l1747 05E6  
                       l1669 07EE                         l1597 06C5                         l1589 06AE  
                       l1685 036A                         l1773 0499                         l1693 0378  
                       l1765 062B                         l1757 060F                         l1749 05EB  
                       l1781 0334                         l1599 06C9                         l1679 0350  
                       l1775 04A2                         l1695 0379                         l1767 062F  
                       l1759 0614                         l1783 0338                         l1777 04A7  
                       l1769 047B                         l1697 037C                         l1785 033D  
                       l1699 037D                         l1787 0342                         l1779 032F  
                       l1789 0347                         STR_1 001D                         STR_2 002C  
                       STR_3 0034                         STR_4 0031                         u1000 0728  
                       u1001 0727                         u1010 0736                         u1011 0735  
                       u1020 073C                         u1100 0360                         u1021 073B  
                       u1101 035F                         u1030 075D                         u1031 075C  
                       u1040 0768                         u1041 0767                         u1050 0778  
                       u1051 0777                         u1035 0759                         u1060 078D  
                       u1061 078C                         u1117 0609                         u1070 0799  
                       u1071 0798                         u1055 0774                         u1127 0635  
                       u1080 07DE                         u1081 07DD                         u1065 0789  
                       u1137 05B3                         u1090 07EE                         u1091 07ED  
                       u1147 05DF                         u1157 0549                         u1167 0558  
                       u1177 0567                         u1187 02EE                         u1197 0306  
                       _PEIE 005E            ?_Lcd_Write_String 0073                         _main 032F  
                       btemp 007E                         start 0000           ??_Lcd_Write_String 0075  
            __end_of_Lcd_Cmd 030F            ___bmul@multiplier 0072             ?_I2C_Master_Init 003C  
           ?_I2C_Master_Read 0070             ?_I2C_Master_Wait 0070             ?_I2C_Master_Stop 0070  
                      ?_main 0070                        _ANSEL 0188              __end_of___lldiv 06A2  
           __end_of_LCDprint 04B9              __end_of___lwdiv 053F              __end_of___lwmod 043D  
                      _PORTA 0005                        _PORTB 0006                        _PORTC 0007  
                      _PORTD 0008                        _TRISA 0085                        _TRISB 0086  
                      _TRISC 0087                        _TRISD 0088                        _SSPIE 0463  
                      _SSPIF 0063                        _OnOff 0026              __end_of_dpowers 001D  
            __end_of_isdigit 02CA                        _setup 0374                        pclath 000A  
                      status 0003                        wtemp0 007E              __end_of_sprintf 07F3  
           __end_of_Lcd_Init 0590  __end_of_slave1Communication 05E6             __end_of_Lcd_Port 047B  
            __initialization 07F3                 __end_of_main 0350                       ??_main 007E  
          ?_I2C_Master_Start 0070            ?_I2C_Master_Write 0070           ??_I2C_Master_Start 0070  
         ??_I2C_Master_Write 0072                       ?_setup 0070                       _ANSELH 0189  
                  ??_Lcd_Cmd 0071                       _SSPADD 0093                       _TRISC3 043B  
                     _TRISC4 043C                       _SSPCON 0014                       _SSPBUF 0013  
                     ___bmul 02CA                    ??___lldiv 0078                    ??___lwdiv 0074  
                  ??___lwmod 007B                       _motor1 0029                       _motor2 0028  
                  ??_isdigit 0070             __end_of_usSensor 0374                    ??_sprintf 003F  
            Lcd_Set_Cursor@a 0075              Lcd_Set_Cursor@b 0074      __end_of__initialization 07FC  
 slave2Communication@valueS2 0079            __end_of_Lcd_Clear 02AB                    ?_LCDprint 0070  
        ___bmul@multiplicand 0070  __end_of_slave2Communication 063C               __pcstackCOMMON 0070  
              __end_of_setup 039D               _Lcd_Set_Cursor 030F                    ?_Lcd_Init 0070  
                  ?_Lcd_Port 0070                      ??_setup 007E                   __pbssBANK0 0020  
                 ??_LCDprint 007C                   __pmaintext 032F                      ?___bmul 0070  
          __end_of_dcForward 0282       __end_of_Lcd_Set_Cursor 032F                   ??_Lcd_Init 0074  
                 ??_Lcd_Port 0070                      _SSPCON2 0091                      _SSPSTAT 0094  
                 __stringtab 0003               _Lcd_Write_Char 02DF                      _Lcd_Cmd 02F5  
                  ?_usSensor 0070                      ___lldiv 063C                      ___lwdiv 04FB  
                    ___lwmod 0403              ?_Lcd_Set_Cursor 0074                      __ptext1 05E6  
                    __ptext2 0590                      __ptext3 0294                      __ptext4 028B  
                    __ptext5 0282                      __ptext6 039D                      __ptext7 02AB  
                    __ptext8 0374                      __ptext9 053F                      _lineLCD 002C  
                    _dpowers 0013                      _isdigit 02B8                      _sprintf 06A2  
                    clrloop0 0272       __end_of_Lcd_Write_Char 02F5         end_of_initialization 07FC  
            ___lldiv@divisor 0070              ___lldiv@counter 007D                   ??_usSensor 007A  
           I2C_Master_Init@c 003C             I2C_Master_Read@a 0070                    Lcd_Port@a 0070  
                  _TRISCbits 0087              ?_Lcd_Write_Char 0070            Lcd_Write_String@a 0073  
          Lcd_Write_String@i 0078                    _Lcd_Clear 029E               __end_of___bmul 02DF  
           _Lcd_Write_String 04B9          start_initialization 07F3            ??_I2C_Master_Init 0040  
          ??_I2C_Master_Read 0072            ??_I2C_Master_Wait 0070   slave1Communication@valueS1 0079  
          ??_I2C_Master_Stop 0070                   ?_Lcd_Clear 0070                     ??___bmul 0071  
            Lcd_Write_Char@a 0072                    _dcForward 0279                    ___latbits 0002  
              __pcstackBANK0 003C                     ?_Lcd_Cmd 0070                  sprintf@flag 0043  
                sprintf@prec 0047             _I2C_Master_Start 0282             _I2C_Master_Write 0294  
           ___lwdiv@dividend 0072             ??_Lcd_Set_Cursor 0075                     ?___lldiv 0070  
                   ?___lwdiv 0070                     ?___lwmod 0077                    __pstrings 0003  
                   ?_isdigit 0070                   ?_dcForward 0070             ___lwdiv@quotient 0074  
                   ?_sprintf 003C          _slave1Communication 0590                    clear_ram0 0271  
                   _LCDprint 047B                     Lcd_Cmd@a 0073                  ??_Lcd_Clear 0074  
       ?_slave1Communication 0070                  __stringbase 0012             ??_Lcd_Write_Char 0071  
                   _Lcd_Init 053F                     _Lcd_Port 043D          I2C_Master_Read@temp 0074  
   __end_of_Lcd_Write_String 04FB        ??_slave1Communication 0076           __end_of__stringtab 0013  
                _isdigit$754 0070                   sprintf@val 0045              _I2C_Master_Init 03CB  
            _I2C_Master_Read 039D                  ??_dcForward 0070              _I2C_Master_Wait 02AB  
            _I2C_Master_Stop 028B              ___lwdiv@divisor 0070              ___lwdiv@counter 0076  
                   __ptext10 03CB                     __ptext11 063C                     __ptext20 0403  
                   __ptext12 0279                     __ptext21 04FB                     __ptext13 047B  
                   __ptext22 02CA                     __ptext14 0350                     __ptext23 029E  
                   __ptext15 04B9                     __ptext24 02F5                     __ptext16 02DF  
                   __ptext25 043D                     __ptext17 030F                     __ptext18 06A2  
                   __ptext19 02B8          _slave2Communication 05E6                     _gyroData 0020  
                   _usSensor 0350         ?_slave2Communication 0070     __end_of_I2C_Master_Start 028B  
   __end_of_I2C_Master_Write 029E                     isdigit@c 0071                    sprintf@ap 0042  
                  sprintf@sp 0044             ___lwmod@dividend 0079             ___lldiv@dividend 0074  
                  stringcode 000D                   _OSCCONbits 008F      __end_of_I2C_Master_Init 0403  
    __end_of_I2C_Master_Read 03CB      __end_of_I2C_Master_Wait 02B8      __end_of_I2C_Master_Stop 0294  
         Lcd_Set_Cursor@temp 0076        ??_slave2Communication 0076                     sprintf@c 0048  
                   sprintf@f 003C             ___lldiv@quotient 0079            I2C_Master_Write@d 0070  
            ___lwmod@divisor 0077              ___lwmod@counter 007B                     stringdir 000D  
                   stringtab 0003                  _SSPCON2bits 0091  
