

Microchip MPLAB XC8 Assembler V2.41 build 20230208172133 
                                                                                               Tue Aug 22 04:38:40 2023

Microchip MPLAB XC8 C Compiler v2.41 (Free license) build 20230208172133 Og1 
     1                           	processor	16F887
     2                           	pagewidth 120
     3                           	opt	flic
     4                           	psect	strings,global,class=STRING,delta=2,noexec
     5                           	psect	cinit,global,class=CODE,merge=1,delta=2
     6                           	psect	bssCOMMON,global,class=COMMON,space=1,delta=1,noexec
     7                           	psect	bssBANK0,global,class=BANK0,space=1,delta=1,noexec
     8                           	psect	clrtext,global,class=CODE,delta=2
     9                           	psect	cstackCOMMON,global,class=COMMON,space=1,delta=1,noexec
    10                           	psect	cstackBANK0,global,class=BANK0,space=1,delta=1,noexec
    11                           	psect	maintext,global,class=CODE,split=1,delta=2
    12                           	psect	text1,local,class=CODE,merge=1,delta=2
    13                           	psect	text2,local,class=CODE,merge=1,delta=2
    14                           	psect	text3,local,class=CODE,merge=1,delta=2
    15                           	psect	text4,local,class=CODE,merge=1,delta=2
    16                           	psect	text5,local,class=CODE,merge=1,delta=2
    17                           	psect	text6,local,class=CODE,merge=1,delta=2
    18                           	psect	text7,local,class=CODE,merge=1,delta=2
    19                           	psect	text8,local,class=CODE,merge=1,delta=2
    20                           	psect	text9,local,class=CODE,merge=1,delta=2
    21                           	psect	text10,local,class=CODE,merge=1,delta=2
    22                           	psect	text11,local,class=CODE,merge=1,delta=2
    23                           	psect	text12,local,class=CODE,merge=1,delta=2,group=2
    24                           	psect	text13,local,class=CODE,merge=1,delta=2
    25                           	psect	text14,local,class=CODE,merge=1,delta=2
    26                           	psect	text15,local,class=CODE,merge=1,delta=2
    27                           	psect	text16,local,class=CODE,merge=1,delta=2
    28                           	psect	text17,local,class=CODE,merge=1,delta=2
    29                           	psect	text18,local,class=CODE,merge=1,delta=2
    30                           	psect	text19,local,class=CODE,merge=1,delta=2
    31                           	psect	text20,local,class=CODE,merge=1,delta=2
    32                           	psect	text21,local,class=CODE,merge=1,delta=2
    33                           	psect	text22,local,class=CODE,merge=1,delta=2,group=1
    34                           	psect	text23,local,class=CODE,merge=1,delta=2,group=3
    35                           	psect	text24,local,class=CODE,merge=1,delta=2,group=2
    36                           	psect	text25,local,class=CODE,merge=1,delta=2,group=2
    37                           	psect	text26,local,class=CODE,merge=1,delta=2,group=2
    38                           	psect	text27,local,class=CODE,merge=1,delta=2
    39                           	psect	text28,local,class=CODE,merge=1,delta=2
    40                           	psect	text29,local,class=CODE,merge=1,delta=2
    41                           	psect	text30,local,class=CODE,merge=1,delta=2
    42                           	psect	text31,local,class=CODE,merge=1,delta=2
    43                           	psect	intentry,global,class=CODE,delta=2
    44                           	psect	idloc,global,abs,ovrld,class=IDLOC,space=5,delta=2,noexec
    45                           	psect	config,global,abs,ovrld,class=CONFIG,space=4,delta=2,noexec
    46                           	dabs	1,0x7E,2
    47     0000                     
    48                           ; Version 2.40
    49                           ; Generated 17/11/2021 GMT
    50                           ; 
    51                           ; Copyright © 2021, Microchip Technology Inc. and its subsidiaries ("Microchip")
    52                           ; All rights reserved.
    53                           ; 
    54                           ; This software is developed by Microchip Technology Inc. and its subsidiaries ("Microch
      +                          ip").
    55                           ; 
    56                           ; Redistribution and use in source and binary forms, with or without modification, are
    57                           ; permitted provided that the following conditions are met:
    58                           ; 
    59                           ;     1. Redistributions of source code must retain the above copyright notice, this lis
      +                          t of
    60                           ;        conditions and the following disclaimer.
    61                           ; 
    62                           ;     2. Redistributions in binary form must reproduce the above copyright notice, this 
      +                          list
    63                           ;        of conditions and the following disclaimer in the documentation and/or other
    64                           ;        materials provided with the distribution. Publication is not required when
    65                           ;        this file is used in an embedded application.
    66                           ; 
    67                           ;     3. Microchip's name may not be used to endorse or promote products derived from th
      +                          is
    68                           ;        software without specific prior written permission.
    69                           ; 
    70                           ; THIS SOFTWARE IS PROVIDED BY MICROCHIP "AS IS" AND ANY EXPRESS OR IMPLIED WARRANTIES,
    71                           ; INCLUDING, BUT NOT LIMITED TO, THE IMPLIED WARRANTIES OF MERCHANTABILITY AND FITNESS F
      +                          OR
    72                           ; PURPOSE ARE DISCLAIMED.  IN NO EVENT SHALL MICROCHIP BE LIABLE FOR ANY DIRECT, INDIREC
      +                          T,
    73                           ; INCIDENTAL, SPECIAL, EXEMPLARY, OR CONSEQUENTIAL DAMAGES (INCLUDING BUT NOT LIMITED TO
    74                           ; PROCUREMENT OF SUBSTITUTE GOODS OR SERVICES; LOSS OF USE, DATA OR PROFITS; OR BUSINESS
    75                           ; INTERRUPTION) HOWSOEVER CAUSED AND ON ANY THEORY OF LIABILITY, WHETHER IN CONTRACT, ST
      +                          RICT
    76                           ; LIABILITY, OR TORT (INCLUDING NEGLIGENCE OR OTHERWISE) ARISING IN ANY WAY OUT OF THE U
      +                          SE OF
    77                           ; THIS SOFTWARE, EVEN IF ADVISED OF THE POSSIBILITY OF SUCH DAMAGE.
    78                           ; 
    79                           ; 
    80                           ; Code-generator required, PIC16F887 Definitions
    81                           ; 
    82                           ; SFR Addresses
    83     0000                     	;# 
    84     0001                     	;# 
    85     0002                     	;# 
    86     0003                     	;# 
    87     0004                     	;# 
    88     0005                     	;# 
    89     0006                     	;# 
    90     0007                     	;# 
    91     0008                     	;# 
    92     0009                     	;# 
    93     000A                     	;# 
    94     000B                     	;# 
    95     000C                     	;# 
    96     000D                     	;# 
    97     000E                     	;# 
    98     000E                     	;# 
    99     000F                     	;# 
   100     0010                     	;# 
   101     0011                     	;# 
   102     0012                     	;# 
   103     0013                     	;# 
   104     0014                     	;# 
   105     0015                     	;# 
   106     0015                     	;# 
   107     0016                     	;# 
   108     0017                     	;# 
   109     0018                     	;# 
   110     0019                     	;# 
   111     001A                     	;# 
   112     001B                     	;# 
   113     001B                     	;# 
   114     001C                     	;# 
   115     001D                     	;# 
   116     001E                     	;# 
   117     001F                     	;# 
   118     0081                     	;# 
   119     0085                     	;# 
   120     0086                     	;# 
   121     0087                     	;# 
   122     0088                     	;# 
   123     0089                     	;# 
   124     008C                     	;# 
   125     008D                     	;# 
   126     008E                     	;# 
   127     008F                     	;# 
   128     0090                     	;# 
   129     0091                     	;# 
   130     0092                     	;# 
   131     0093                     	;# 
   132     0093                     	;# 
   133     0093                     	;# 
   134     0094                     	;# 
   135     0095                     	;# 
   136     0096                     	;# 
   137     0097                     	;# 
   138     0098                     	;# 
   139     0099                     	;# 
   140     009A                     	;# 
   141     009B                     	;# 
   142     009C                     	;# 
   143     009D                     	;# 
   144     009E                     	;# 
   145     009F                     	;# 
   146     0105                     	;# 
   147     0107                     	;# 
   148     0108                     	;# 
   149     0109                     	;# 
   150     010C                     	;# 
   151     010C                     	;# 
   152     010D                     	;# 
   153     010E                     	;# 
   154     010F                     	;# 
   155     0185                     	;# 
   156     0187                     	;# 
   157     0188                     	;# 
   158     0189                     	;# 
   159     018C                     	;# 
   160     018D                     	;# 
   161     0000                     	;# 
   162     0001                     	;# 
   163     0002                     	;# 
   164     0003                     	;# 
   165     0004                     	;# 
   166     0005                     	;# 
   167     0006                     	;# 
   168     0007                     	;# 
   169     0008                     	;# 
   170     0009                     	;# 
   171     000A                     	;# 
   172     000B                     	;# 
   173     000C                     	;# 
   174     000D                     	;# 
   175     000E                     	;# 
   176     000E                     	;# 
   177     000F                     	;# 
   178     0010                     	;# 
   179     0011                     	;# 
   180     0012                     	;# 
   181     0013                     	;# 
   182     0014                     	;# 
   183     0015                     	;# 
   184     0015                     	;# 
   185     0016                     	;# 
   186     0017                     	;# 
   187     0018                     	;# 
   188     0019                     	;# 
   189     001A                     	;# 
   190     001B                     	;# 
   191     001B                     	;# 
   192     001C                     	;# 
   193     001D                     	;# 
   194     001E                     	;# 
   195     001F                     	;# 
   196     0081                     	;# 
   197     0085                     	;# 
   198     0086                     	;# 
   199     0087                     	;# 
   200     0088                     	;# 
   201     0089                     	;# 
   202     008C                     	;# 
   203     008D                     	;# 
   204     008E                     	;# 
   205     008F                     	;# 
   206     0090                     	;# 
   207     0091                     	;# 
   208     0092                     	;# 
   209     0093                     	;# 
   210     0093                     	;# 
   211     0093                     	;# 
   212     0094                     	;# 
   213     0095                     	;# 
   214     0096                     	;# 
   215     0097                     	;# 
   216     0098                     	;# 
   217     0099                     	;# 
   218     009A                     	;# 
   219     009B                     	;# 
   220     009C                     	;# 
   221     009D                     	;# 
   222     009E                     	;# 
   223     009F                     	;# 
   224     0105                     	;# 
   225     0107                     	;# 
   226     0108                     	;# 
   227     0109                     	;# 
   228     010C                     	;# 
   229     010C                     	;# 
   230     010D                     	;# 
   231     010E                     	;# 
   232     010F                     	;# 
   233     0185                     	;# 
   234     0187                     	;# 
   235     0188                     	;# 
   236     0189                     	;# 
   237     018C                     	;# 
   238     018D                     	;# 
   239     0000                     	;# 
   240     0001                     	;# 
   241     0002                     	;# 
   242     0003                     	;# 
   243     0004                     	;# 
   244     0005                     	;# 
   245     0006                     	;# 
   246     0007                     	;# 
   247     0008                     	;# 
   248     0009                     	;# 
   249     000A                     	;# 
   250     000B                     	;# 
   251     000C                     	;# 
   252     000D                     	;# 
   253     000E                     	;# 
   254     000E                     	;# 
   255     000F                     	;# 
   256     0010                     	;# 
   257     0011                     	;# 
   258     0012                     	;# 
   259     0013                     	;# 
   260     0014                     	;# 
   261     0015                     	;# 
   262     0015                     	;# 
   263     0016                     	;# 
   264     0017                     	;# 
   265     0018                     	;# 
   266     0019                     	;# 
   267     001A                     	;# 
   268     001B                     	;# 
   269     001B                     	;# 
   270     001C                     	;# 
   271     001D                     	;# 
   272     001E                     	;# 
   273     001F                     	;# 
   274     0081                     	;# 
   275     0085                     	;# 
   276     0086                     	;# 
   277     0087                     	;# 
   278     0088                     	;# 
   279     0089                     	;# 
   280     008C                     	;# 
   281     008D                     	;# 
   282     008E                     	;# 
   283     008F                     	;# 
   284     0090                     	;# 
   285     0091                     	;# 
   286     0092                     	;# 
   287     0093                     	;# 
   288     0093                     	;# 
   289     0093                     	;# 
   290     0094                     	;# 
   291     0095                     	;# 
   292     0096                     	;# 
   293     0097                     	;# 
   294     0098                     	;# 
   295     0099                     	;# 
   296     009A                     	;# 
   297     009B                     	;# 
   298     009C                     	;# 
   299     009D                     	;# 
   300     009E                     	;# 
   301     009F                     	;# 
   302     0105                     	;# 
   303     0107                     	;# 
   304     0108                     	;# 
   305     0109                     	;# 
   306     010C                     	;# 
   307     010C                     	;# 
   308     010D                     	;# 
   309     010E                     	;# 
   310     010F                     	;# 
   311     0185                     	;# 
   312     0187                     	;# 
   313     0188                     	;# 
   314     0189                     	;# 
   315     018C                     	;# 
   316     018D                     	;# 
   317     0000                     	;# 
   318     0001                     	;# 
   319     0002                     	;# 
   320     0003                     	;# 
   321     0004                     	;# 
   322     0005                     	;# 
   323     0006                     	;# 
   324     0007                     	;# 
   325     0008                     	;# 
   326     0009                     	;# 
   327     000A                     	;# 
   328     000B                     	;# 
   329     000C                     	;# 
   330     000D                     	;# 
   331     000E                     	;# 
   332     000E                     	;# 
   333     000F                     	;# 
   334     0010                     	;# 
   335     0011                     	;# 
   336     0012                     	;# 
   337     0013                     	;# 
   338     0014                     	;# 
   339     0015                     	;# 
   340     0015                     	;# 
   341     0016                     	;# 
   342     0017                     	;# 
   343     0018                     	;# 
   344     0019                     	;# 
   345     001A                     	;# 
   346     001B                     	;# 
   347     001B                     	;# 
   348     001C                     	;# 
   349     001D                     	;# 
   350     001E                     	;# 
   351     001F                     	;# 
   352     0081                     	;# 
   353     0085                     	;# 
   354     0086                     	;# 
   355     0087                     	;# 
   356     0088                     	;# 
   357     0089                     	;# 
   358     008C                     	;# 
   359     008D                     	;# 
   360     008E                     	;# 
   361     008F                     	;# 
   362     0090                     	;# 
   363     0091                     	;# 
   364     0092                     	;# 
   365     0093                     	;# 
   366     0093                     	;# 
   367     0093                     	;# 
   368     0094                     	;# 
   369     0095                     	;# 
   370     0096                     	;# 
   371     0097                     	;# 
   372     0098                     	;# 
   373     0099                     	;# 
   374     009A                     	;# 
   375     009B                     	;# 
   376     009C                     	;# 
   377     009D                     	;# 
   378     009E                     	;# 
   379     009F                     	;# 
   380     0105                     	;# 
   381     0107                     	;# 
   382     0108                     	;# 
   383     0109                     	;# 
   384     010C                     	;# 
   385     010C                     	;# 
   386     010D                     	;# 
   387     010E                     	;# 
   388     010F                     	;# 
   389     0185                     	;# 
   390     0187                     	;# 
   391     0188                     	;# 
   392     0189                     	;# 
   393     018C                     	;# 
   394     018D                     	;# 
   395     0000                     	;# 
   396     0001                     	;# 
   397     0002                     	;# 
   398     0003                     	;# 
   399     0004                     	;# 
   400     0005                     	;# 
   401     0006                     	;# 
   402     0007                     	;# 
   403     0008                     	;# 
   404     0009                     	;# 
   405     000A                     	;# 
   406     000B                     	;# 
   407     000C                     	;# 
   408     000D                     	;# 
   409     000E                     	;# 
   410     000E                     	;# 
   411     000F                     	;# 
   412     0010                     	;# 
   413     0011                     	;# 
   414     0012                     	;# 
   415     0013                     	;# 
   416     0014                     	;# 
   417     0015                     	;# 
   418     0015                     	;# 
   419     0016                     	;# 
   420     0017                     	;# 
   421     0018                     	;# 
   422     0019                     	;# 
   423     001A                     	;# 
   424     001B                     	;# 
   425     001B                     	;# 
   426     001C                     	;# 
   427     001D                     	;# 
   428     001E                     	;# 
   429     001F                     	;# 
   430     0081                     	;# 
   431     0085                     	;# 
   432     0086                     	;# 
   433     0087                     	;# 
   434     0088                     	;# 
   435     0089                     	;# 
   436     008C                     	;# 
   437     008D                     	;# 
   438     008E                     	;# 
   439     008F                     	;# 
   440     0090                     	;# 
   441     0091                     	;# 
   442     0092                     	;# 
   443     0093                     	;# 
   444     0093                     	;# 
   445     0093                     	;# 
   446     0094                     	;# 
   447     0095                     	;# 
   448     0096                     	;# 
   449     0097                     	;# 
   450     0098                     	;# 
   451     0099                     	;# 
   452     009A                     	;# 
   453     009B                     	;# 
   454     009C                     	;# 
   455     009D                     	;# 
   456     009E                     	;# 
   457     009F                     	;# 
   458     0105                     	;# 
   459     0107                     	;# 
   460     0108                     	;# 
   461     0109                     	;# 
   462     010C                     	;# 
   463     010C                     	;# 
   464     010D                     	;# 
   465     010E                     	;# 
   466     010F                     	;# 
   467     0185                     	;# 
   468     0187                     	;# 
   469     0188                     	;# 
   470     0189                     	;# 
   471     018C                     	;# 
   472     018D                     	;# 
   473                           
   474                           	psect	strings
   475     0400                     __pstrings:
   476     0400                     stringtab:
   477     0400                     __stringtab:
   478                           
   479                           ;	String table - string pointers are 1 byte each
   480     0400  1BFF               	btfsc	btemp+1,7
   481     0401  2C0A               	ljmp	stringcode
   482     0402  1383               	bcf	3,7
   483     0403  187F               	btfsc	btemp+1,0
   484     0404  1783               	bsf	3,7
   485     0405  0800               	movf	0,w
   486     0406  0A84               	incf	4,f
   487     0407  1903               	skipnz
   488     0408  0AFF               	incf	btemp+1,f
   489     0409  0008               	return
   490     040A                     stringcode:
   491     040A                     stringdir:
   492     040A  3004               	movlw	high stringdir
   493     040B  008A               	movwf	10
   494     040C  0804               	movf	4,w
   495     040D  0A84               	incf	4,f
   496     040E  0782               	addwf	2,f
   497     040F                     __stringbase:
   498     040F  3400               	retlw	0
   499     0410                     __end_of__stringtab:
   500     0410                     _dpowers:
   501     0410  3401               	retlw	1
   502     0411  3400               	retlw	0
   503     0412  340A               	retlw	10
   504     0413  3400               	retlw	0
   505     0414  3464               	retlw	100
   506     0415  3400               	retlw	0
   507     0416  34E8               	retlw	232
   508     0417  3403               	retlw	3
   509     0418  3410               	retlw	16
   510     0419  3427               	retlw	39
   511     041A                     __end_of_dpowers:
   512     001A                     _RCREG	set	26
   513     0019                     _TXREG	set	25
   514     000C                     _PIR1bits	set	12
   515     000D                     _PIR2bits	set	13
   516     0018                     _RCSTAbits	set	24
   517     0008                     _PORTD	set	8
   518     0007                     _PORTC	set	7
   519     0006                     _PORTB	set	6
   520     0005                     _PORTA	set	5
   521     000B                     _INTCONbits	set	11
   522     0013                     _SSPBUF	set	19
   523     0014                     _SSPCON	set	20
   524     0065                     _RCIF	set	101
   525     00C4                     _CREN	set	196
   526     00C1                     _OERR	set	193
   527     0039                     _RC1	set	57
   528     0038                     _RC0	set	56
   529     0047                     _RD7	set	71
   530     0046                     _RD6	set	70
   531     0045                     _RD5	set	69
   532     0044                     _RD4	set	68
   533     0043                     _RD3	set	67
   534     0042                     _RD2	set	66
   535     0041                     _RD1	set	65
   536     0040                     _RD0	set	64
   537     002C                     _RA4	set	44
   538     002B                     _RA3	set	43
   539     002D                     _RA5	set	45
   540     002A                     _RA2	set	42
   541     0029                     _RA1	set	41
   542     0028                     _RA0	set	40
   543     0030                     _RB0	set	48
   544     0058                     _RBIF	set	88
   545     0063                     _SSPIF	set	99
   546     005E                     _PEIE	set	94
   547     005F                     _GIE	set	95
   548     0095                     _WPUBbits	set	149
   549     0081                     _OPTION_REGbits	set	129
   550     0096                     _IOCBbits	set	150
   551     0088                     _TRISD	set	136
   552     0086                     _TRISB	set	134
   553     0085                     _TRISA	set	133
   554     0087                     _TRISC	set	135
   555     009A                     _SPBRGH	set	154
   556     0099                     _SPBRG	set	153
   557     0098                     _TXSTAbits	set	152
   558     008F                     _OSCCONbits	set	143
   559     0091                     _SSPCON2bits	set	145
   560     0087                     _TRISCbits	set	135
   561     0094                     _SSPSTAT	set	148
   562     0093                     _SSPADD	set	147
   563     0091                     _SSPCON2	set	145
   564     0463                     _SSPIE	set	1123
   565     043C                     _TRISC4	set	1084
   566     043B                     _TRISC3	set	1083
   567     010C                     _EEDAT	set	268
   568     010D                     _EEADR	set	269
   569     018D                     _EECON2	set	397
   570     018C                     _EECON1bits	set	396
   571     0189                     _ANSELH	set	393
   572     0188                     _ANSEL	set	392
   573     0187                     _BAUDCTLbits	set	391
   574     041A                     STR_4:
   575     041A  3444               	retlw	68	;'D'
   576     041B  3469               	retlw	105	;'i'
   577     041C  3473               	retlw	115	;'s'
   578     041D  3474               	retlw	116	;'t'
   579     041E  3461               	retlw	97	;'a'
   580     041F  346E               	retlw	110	;'n'
   581     0420  3463               	retlw	99	;'c'
   582     0421  3465               	retlw	101	;'e'
   583     0422  343A               	retlw	58	;':'
   584     0423  3420               	retlw	32	;' '
   585     0424  3425               	retlw	37	;'%'
   586     0425  342E               	retlw	46	;'.'
   587     0426  3432               	retlw	50	;'2'
   588     0427  3464               	retlw	100	;'d'
   589     0428  3400               	retlw	0
   590     0429                     STR_5:
   591     0429  3442               	retlw	66	;'B'
   592     042A  3461               	retlw	97	;'a'
   593     042B  3473               	retlw	115	;'s'
   594     042C  346B               	retlw	107	;'k'
   595     042D  3465               	retlw	101	;'e'
   596     042E  3474               	retlw	116	;'t'
   597     042F  343A               	retlw	58	;':'
   598     0430  3420               	retlw	32	;' '
   599     0431  3425               	retlw	37	;'%'
   600     0432  342E               	retlw	46	;'.'
   601     0433  3432               	retlw	50	;'2'
   602     0434  3464               	retlw	100	;'d'
   603     0435  3400               	retlw	0
   604     0436                     STR_2:
   605     0436  3450               	retlw	80	;'P'
   606     0437  3425               	retlw	37	;'%'
   607     0438  3464               	retlw	100	;'d'
   608     0439  3420               	retlw	32	;' '
   609     043A  3446               	retlw	70	;'F'
   610     043B  3425               	retlw	37	;'%'
   611     043C  3464               	retlw	100	;'d'
   612     043D  3400               	retlw	0
   613     043E                     STR_3:
   614     043E  3457               	retlw	87	;'W'
   615     043F  3425               	retlw	37	;'%'
   616     0440  3464               	retlw	100	;'d'
   617     0441  3420               	retlw	32	;' '
   618     0442  3455               	retlw	85	;'U'
   619     0443  3425               	retlw	37	;'%'
   620     0444  3464               	retlw	100	;'d'
   621     0445  3400               	retlw	0
   622     0446                     STR_1:
   623     0446  3448               	retlw	72	;'H'
   624     0447  3465               	retlw	101	;'e'
   625     0448  346C               	retlw	108	;'l'
   626     0449  346C               	retlw	108	;'l'
   627     044A  346F               	retlw	111	;'o'
   628     044B  3400               	retlw	0
   629     044C                     STR_6:
   630     044C  344F               	retlw	79	;'O'
   631     044D  3466               	retlw	102	;'f'
   632     044E  3466               	retlw	102	;'f'
   633     044F  3400               	retlw	0
   634     0450                     STR_8:
   635     0450  3420               	retlw	32	;' '
   636     0451  3420               	retlw	32	;' '
   637     0452  3400               	retlw	0
   638     0453                     STR_7:
   639     0453  3421               	retlw	33	;'!'
   640     0454  3421               	retlw	33	;'!'
   641     0455  3400               	retlw	0
   642                           
   643                           	psect	cinit
   644     000F                     start_initialization:	
   645                           ; #config settings
   646                           
   647     000F                     __initialization:
   648                           
   649                           ; Clear objects allocated to COMMON
   650     000F  01FA               	clrf	__pbssCOMMON& (0+127)
   651     0010  01FB               	clrf	(__pbssCOMMON+1)& (0+127)
   652                           
   653                           ; Clear objects allocated to BANK0
   654     0011  1383               	bcf	3,7	;select IRP bank0
   655     0012  3020               	movlw	low __pbssBANK0
   656     0013  0084               	movwf	4
   657     0014  303E               	movlw	low (__pbssBANK0+30)
   658     0015  120A  118A  27AE  120A  118A  	fcall	clear_ram0
   659     001A                     end_of_initialization:	
   660                           ;End of C runtime variable initialization code
   661                           
   662     001A                     __end_of__initialization:
   663     001A  0183               	clrf	3
   664     001B  120A  118A  297C   	ljmp	_main	;jump to C main() function
   665                           
   666                           	psect	bssCOMMON
   667     007A                     __pbssCOMMON:
   668     007A                     _toESP:
   669     007A                     	ds	1
   670     007B                     _ultrasonicValue:
   671     007B                     	ds	1
   672                           
   673                           	psect	bssBANK0
   674     0020                     __pbssBANK0:
   675     0020                     _gyroData:
   676     0020                     	ds	6
   677     0026                     _OnOff:
   678     0026                     	ds	2
   679     0028                     _fanOnOff:
   680     0028                     	ds	1
   681     0029                     _readFromESP:
   682     0029                     	ds	1
   683     002A                     _motor2:
   684     002A                     	ds	1
   685     002B                     _motor1:
   686     002B                     	ds	1
   687     002C                     _fsrValue:
   688     002C                     	ds	1
   689     002D                     _a:
   690     002D                     	ds	1
   691     002E                     _lineLCD:
   692     002E                     	ds	16
   693                           
   694                           	psect	clrtext
   695     07AE                     clear_ram0:	
   696                           ;	Called with FSR containing the base address, and
   697                           ;	W with the last address+1
   698                           
   699     07AE  0064               	clrwdt	;clear the watchdog before getting into this loop
   700     07AF                     clrloop0:
   701     07AF  0180               	clrf	0	;clear RAM location pointed to by FSR
   702     07B0  0A84               	incf	4,f	;increment pointer
   703     07B1  0604               	xorwf	4,w	;XOR with final address
   704     07B2  1903               	btfsc	3,2	;have we reached the end yet?
   705     07B3  3400               	retlw	0	;all done for this memory range, return
   706     07B4  0604               	xorwf	4,w	;XOR again to restore value
   707     07B5  2FAF               	goto	clrloop0	;do the next byte
   708                           
   709                           	psect	cstackCOMMON
   710     0070                     __pcstackCOMMON:
   711     0070                     ?_isdigit:
   712     0070                     ?_setup:	
   713                           ; 1 bit 
   714                           
   715     0070                     ?_slave1Communication:	
   716                           ; 1 bytes @ 0x0
   717                           
   718     0070                     ?_slave2Communication:	
   719                           ; 1 bytes @ 0x0
   720                           
   721     0070                     ?_LCDprint:	
   722                           ; 1 bytes @ 0x0
   723                           
   724     0070                     ?_enviocaracter:	
   725                           ; 1 bytes @ 0x0
   726                           
   727     0070                     ?_ioc_init:	
   728                           ; 1 bytes @ 0x0
   729                           
   730     0070                     ?_Lcd_Init:	
   731                           ; 1 bytes @ 0x0
   732                           
   733     0070                     ?_Lcd_Clear:	
   734                           ; 1 bytes @ 0x0
   735                           
   736     0070                     ?_usSensor:	
   737                           ; 1 bytes @ 0x0
   738                           
   739     0070                     ?_dcStop:	
   740                           ; 1 bytes @ 0x0
   741                           
   742     0070                     ?_dcRight:	
   743                           ; 1 bytes @ 0x0
   744                           
   745     0070                     ?_dcForward:	
   746                           ; 1 bytes @ 0x0
   747                           
   748     0070                     ?_I2C_Master_Wait:	
   749                           ; 1 bytes @ 0x0
   750                           
   751     0070                     ?_I2C_Master_Start:	
   752                           ; 1 bytes @ 0x0
   753                           
   754     0070                     ?_I2C_Master_Stop:	
   755                           ; 1 bytes @ 0x0
   756                           
   757     0070                     ?_isr:	
   758                           ; 1 bytes @ 0x0
   759                           
   760     0070                     ??_isr:	
   761                           ; 1 bytes @ 0x0
   762                           
   763     0070                     ?_main:	
   764                           ; 1 bytes @ 0x0
   765                           
   766     0070                     ?_Lcd_Port:	
   767                           ; 1 bytes @ 0x0
   768                           
   769     0070                     ?_Lcd_Cmd:	
   770                           ; 1 bytes @ 0x0
   771                           
   772     0070                     ?_Lcd_Write_Char:	
   773                           ; 1 bytes @ 0x0
   774                           
   775     0070                     ioc_init@pin:	
   776                           ; 1 bytes @ 0x0
   777                           
   778                           
   779                           ; 1 bytes @ 0x0
   780     0070                     	ds	2
   781     0072                     ??_enviocaracter:
   782     0072                     ??_ioc_init:	
   783                           ; 1 bytes @ 0x2
   784                           
   785     0072                     ??_dcStop:	
   786                           ; 1 bytes @ 0x2
   787                           
   788     0072                     ??_dcRight:	
   789                           ; 1 bytes @ 0x2
   790                           
   791     0072                     ??_dcForward:	
   792                           ; 1 bytes @ 0x2
   793                           
   794     0072                     ??_isdigit:	
   795                           ; 1 bytes @ 0x2
   796                           
   797     0072                     ??_I2C_Master_Wait:	
   798                           ; 1 bytes @ 0x2
   799                           
   800     0072                     ??_I2C_Master_Start:	
   801                           ; 1 bytes @ 0x2
   802                           
   803     0072                     ??_I2C_Master_Stop:	
   804                           ; 1 bytes @ 0x2
   805                           
   806     0072                     ?_I2C_Master_Write:	
   807                           ; 1 bytes @ 0x2
   808                           
   809     0072                     ??_Lcd_Port:	
   810                           ; 1 bytes @ 0x2
   811                           
   812     0072                     ?___bmul:	
   813                           ; 1 bytes @ 0x2
   814                           
   815     0072                     ?_I2C_Master_Read:	
   816                           ; 1 bytes @ 0x2
   817                           
   818     0072                     ?___lwdiv:	
   819                           ; 2 bytes @ 0x2
   820                           
   821     0072                     ?___lldiv:	
   822                           ; 2 bytes @ 0x2
   823                           
   824     0072                     Lcd_Port@a:	
   825                           ; 4 bytes @ 0x2
   826                           
   827     0072                     enviocaracter@a:	
   828                           ; 1 bytes @ 0x2
   829                           
   830     0072                     ___bmul@multiplicand:	
   831                           ; 1 bytes @ 0x2
   832                           
   833     0072                     _isdigit$1164:	
   834                           ; 1 bytes @ 0x2
   835                           
   836     0072                     I2C_Master_Write@d:	
   837                           ; 1 bytes @ 0x2
   838                           
   839     0072                     I2C_Master_Read@a:	
   840                           ; 2 bytes @ 0x2
   841                           
   842     0072                     ___lwdiv@divisor:	
   843                           ; 2 bytes @ 0x2
   844                           
   845     0072                     ___lldiv@divisor:	
   846                           ; 2 bytes @ 0x2
   847                           
   848                           
   849                           ; 4 bytes @ 0x2
   850     0072                     	ds	1
   851     0073                     ?_enviocadena:
   852     0073                     ??_Lcd_Cmd:	
   853                           ; 1 bytes @ 0x3
   854                           
   855     0073                     ??_Lcd_Write_Char:	
   856                           ; 1 bytes @ 0x3
   857                           
   858     0073                     ??___bmul:	
   859                           ; 1 bytes @ 0x3
   860                           
   861     0073                     ___bmul@product:	
   862                           ; 1 bytes @ 0x3
   863                           
   864     0073                     isdigit@c:	
   865                           ; 1 bytes @ 0x3
   866                           
   867     0073                     enviocadena@cadena:	
   868                           ; 1 bytes @ 0x3
   869                           
   870                           
   871                           ; 2 bytes @ 0x3
   872     0073                     	ds	1
   873     0074                     ??_I2C_Master_Write:
   874     0074                     ??_I2C_Master_Read:	
   875                           ; 1 bytes @ 0x4
   876                           
   877     0074                     Lcd_Write_Char@a:	
   878                           ; 1 bytes @ 0x4
   879                           
   880     0074                     ___bmul@multiplier:	
   881                           ; 1 bytes @ 0x4
   882                           
   883     0074                     ___lwdiv@dividend:	
   884                           ; 1 bytes @ 0x4
   885                           
   886                           
   887                           ; 2 bytes @ 0x4
   888     0074                     	ds	1
   889     0075                     ??_enviocadena:
   890     0075                     ?_Lcd_Write_String:	
   891                           ; 1 bytes @ 0x5
   892                           
   893     0075                     Lcd_Cmd@a:	
   894                           ; 1 bytes @ 0x5
   895                           
   896     0075                     Lcd_Write_String@a:	
   897                           ; 1 bytes @ 0x5
   898                           
   899                           
   900                           ; 2 bytes @ 0x5
   901     0075                     	ds	1
   902     0076                     ??_Lcd_Init:
   903     0076                     ??_Lcd_Clear:	
   904                           ; 1 bytes @ 0x6
   905                           
   906     0076                     ?_Lcd_Set_Cursor:	
   907                           ; 1 bytes @ 0x6
   908                           
   909     0076                     ??___lwdiv:	
   910                           ; 1 bytes @ 0x6
   911                           
   912     0076                     Lcd_Set_Cursor@b:	
   913                           ; 1 bytes @ 0x6
   914                           
   915     0076                     I2C_Master_Read@temp:	
   916                           ; 1 bytes @ 0x6
   917                           
   918     0076                     ___lwdiv@quotient:	
   919                           ; 2 bytes @ 0x6
   920                           
   921     0076                     ___lldiv@dividend:	
   922                           ; 2 bytes @ 0x6
   923                           
   924                           
   925                           ; 4 bytes @ 0x6
   926     0076                     	ds	1
   927     0077                     ??_Lcd_Set_Cursor:
   928     0077                     ??_Lcd_Write_String:	
   929                           ; 1 bytes @ 0x7
   930                           
   931     0077                     Lcd_Set_Cursor@a:	
   932                           ; 1 bytes @ 0x7
   933                           
   934                           
   935                           ; 1 bytes @ 0x7
   936     0077                     	ds	1
   937     0078                     slave1Communication@valueS1:
   938     0078                     slave2Communication@valueS2:	
   939                           ; 1 bytes @ 0x8
   940                           
   941     0078                     Lcd_Set_Cursor@temp:	
   942                           ; 1 bytes @ 0x8
   943                           
   944     0078                     ___lwdiv@counter:	
   945                           ; 1 bytes @ 0x8
   946                           
   947                           
   948                           ; 1 bytes @ 0x8
   949     0078                     	ds	1
   950     0079                     ??___lwmod:
   951     0079                     ___lwmod@counter:	
   952                           ; 1 bytes @ 0x9
   953                           
   954                           
   955                           ; 1 bytes @ 0x9
   956     0079                     	ds	1
   957     007A                     ??_setup:
   958     007A                     ??_usSensor:	
   959                           ; 1 bytes @ 0xA
   960                           
   961                           
   962                           	psect	cstackBANK0
   963     003E                     __pcstackBANK0:	
   964                           ; 1 bytes @ 0xA
   965                           
   966     003E                     ??_slave1Communication:
   967     003E                     ??_slave2Communication:	
   968                           ; 1 bytes @ 0x0
   969                           
   970     003E                     ??___lldiv:	
   971                           ; 1 bytes @ 0x0
   972                           
   973     003E                     ?___lwmod:	
   974                           ; 1 bytes @ 0x0
   975                           
   976     003E                     Lcd_Write_String@i:	
   977                           ; 2 bytes @ 0x0
   978                           
   979     003E                     ___lwmod@divisor:	
   980                           ; 2 bytes @ 0x0
   981                           
   982                           
   983                           ; 2 bytes @ 0x0
   984     003E                     	ds	1
   985     003F                     ___lldiv@quotient:
   986                           
   987                           ; 4 bytes @ 0x1
   988     003F                     	ds	1
   989     0040                     ___lwmod@dividend:
   990                           
   991                           ; 2 bytes @ 0x2
   992     0040                     	ds	2
   993     0042                     ?_sprintf:
   994     0042                     sprintf@sp:	
   995                           ; 2 bytes @ 0x4
   996                           
   997                           
   998                           ; 2 bytes @ 0x4
   999     0042                     	ds	1
  1000     0043                     ___lldiv@counter:
  1001                           
  1002                           ; 1 bytes @ 0x5
  1003     0043                     	ds	1
  1004     0044                     ?_I2C_Master_Init:
  1005     0044                     sprintf@f:	
  1006                           ; 1 bytes @ 0x6
  1007                           
  1008     0044                     I2C_Master_Init@c:	
  1009                           ; 1 bytes @ 0x6
  1010                           
  1011                           
  1012                           ; 4 bytes @ 0x6
  1013     0044                     	ds	4
  1014     0048                     ??_I2C_Master_Init:
  1015                           
  1016                           ; 1 bytes @ 0xA
  1017     0048                     	ds	1
  1018     0049                     ??_sprintf:
  1019                           
  1020                           ; 1 bytes @ 0xB
  1021     0049                     	ds	3
  1022     004C                     sprintf@ap:
  1023                           
  1024                           ; 1 bytes @ 0xE
  1025     004C                     	ds	1
  1026     004D                     sprintf@flag:
  1027                           
  1028                           ; 1 bytes @ 0xF
  1029     004D                     	ds	1
  1030     004E                     sprintf@val:
  1031                           
  1032                           ; 2 bytes @ 0x10
  1033     004E                     	ds	2
  1034     0050                     sprintf@prec:
  1035                           
  1036                           ; 1 bytes @ 0x12
  1037     0050                     	ds	1
  1038     0051                     sprintf@c:
  1039                           
  1040                           ; 1 bytes @ 0x13
  1041     0051                     	ds	1
  1042     0052                     ??_LCDprint:
  1043                           
  1044                           ; 1 bytes @ 0x14
  1045     0052                     	ds	2
  1046     0054                     ??_main:
  1047                           
  1048                           ; 1 bytes @ 0x16
  1049     0054                     	ds	6
  1050                           
  1051                           	psect	maintext
  1052     017C                     __pmaintext:	
  1053 ;;
  1054 ;;Main: autosize = 0, tempsize = 6, incstack = 0, save=0
  1055 ;;
  1056 ;; *************** function _main *****************
  1057 ;; Defined at:
  1058 ;;		line 108 in file "E:/Universidad/Semestre2_2023/Digital-2/Proyecto1/Master/MasterPIC.X/MasterPIC.c"
  1059 ;; Parameters:    Size  Location     Type
  1060 ;;		None
  1061 ;; Auto vars:     Size  Location     Type
  1062 ;;		None
  1063 ;; Return value:  Size  Location     Type
  1064 ;;                  1    wreg      void 
  1065 ;; Registers used:
  1066 ;;		wreg, fsr0l, fsr0h, status,2, status,0, btemp+1, pclath, cstack
  1067 ;; Tracked objects:
  1068 ;;		On entry : B00/0
  1069 ;;		On exit  : 0/0
  1070 ;;		Unchanged: 0/0
  1071 ;; Data sizes:     COMMON   BANK0   BANK1   BANK3   BANK2
  1072 ;;      Params:         0       0       0       0       0
  1073 ;;      Locals:         0       0       0       0       0
  1074 ;;      Temps:          0       6       0       0       0
  1075 ;;      Totals:         0       6       0       0       0
  1076 ;;Total ram usage:        6 bytes
  1077 ;; Hardware stack levels required when called: 6
  1078 ;; This function calls:
  1079 ;;		_LCDprint
  1080 ;;		_enviocadena
  1081 ;;		_enviocaracter
  1082 ;;		_setup
  1083 ;;		_slave1Communication
  1084 ;;		_slave2Communication
  1085 ;;		_sprintf
  1086 ;; This function is called by:
  1087 ;;		Startup code after reset
  1088 ;; This function uses a non-reentrant model
  1089 ;;
  1090                           
  1091     017C                     _main:	
  1092                           ;psect for function _main
  1093                           
  1094     017C                     l2359:	
  1095                           ;incstack = 0
  1096                           ; Regs used in _main: [wreg-fsr0h+status,2+status,0+btemp+1+pclath+cstack]
  1097                           
  1098                           
  1099                           ;E:/Universidad/Semestre2_2023/Digital-2/Proyecto1/Master/MasterPIC.X/MasterPIC.c: 109: 
      +                              setup();
  1100     017C  120A  118A  2531  120A  118A  	fcall	_setup
  1101     0181                     l2361:
  1102                           
  1103                           ;E:/Universidad/Semestre2_2023/Digital-2/Proyecto1/Master/MasterPIC.X/MasterPIC.c: 114: 
      +                                  if (OnOff == 1){
  1104     0181  1283               	bcf	3,5	;RP0=0, select bank0
  1105     0182  1303               	bcf	3,6	;RP1=0, select bank0
  1106     0183  0326               	decf	_OnOff,w
  1107     0184  0427               	iorwf	_OnOff+1,w
  1108     0185  1D03               	btfss	3,2
  1109     0186  2988               	goto	u1551
  1110     0187  2989               	goto	u1550
  1111     0188                     u1551:
  1112     0188  2993               	goto	l2365
  1113     0189                     u1550:
  1114     0189                     l2363:
  1115                           
  1116                           ;E:/Universidad/Semestre2_2023/Digital-2/Proyecto1/Master/MasterPIC.X/MasterPIC.c: 116: 
      +                                  slave1Communication();
  1117     0189  120A  118A  2350  120A  118A  	fcall	_slave1Communication
  1118                           
  1119                           ;E:/Universidad/Semestre2_2023/Digital-2/Proyecto1/Master/MasterPIC.X/MasterPIC.c: 118: 
      +                                  slave2Communication();
  1120     018E  120A  118A  22EF  120A  118A  	fcall	_slave2Communication
  1121     0193                     l2365:	
  1122                           ;E:/Universidad/Semestre2_2023/Digital-2/Proyecto1/Master/MasterPIC.X/MasterPIC.c: 123: 
      +                                  } else{
  1123                           
  1124                           
  1125                           ;E:/Universidad/Semestre2_2023/Digital-2/Proyecto1/Master/MasterPIC.X/MasterPIC.c: 128: 
      +                                  LCDprint();
  1126     0193  120A  118A  220D  120A  118A  	fcall	_LCDprint
  1127     0198                     l2367:
  1128                           
  1129                           ;E:/Universidad/Semestre2_2023/Digital-2/Proyecto1/Master/MasterPIC.X/MasterPIC.c: 130: 
      +                                  toESP = "Hello";
  1130     0198  3037               	movlw	(low ((STR_1-__stringbase)| (0+32768)))& (0+255)
  1131     0199  00FA               	movwf	_toESP
  1132     019A                     l2369:
  1133                           
  1134                           ;E:/Universidad/Semestre2_2023/Digital-2/Proyecto1/Master/MasterPIC.X/MasterPIC.c: 131: 
      +                                  sprintf(toESP,"P%d F%d", OnOff, fanOnOff);
  1135     019A  087A               	movf	_toESP,w
  1136     019B  1283               	bcf	3,5	;RP0=0, select bank0
  1137     019C  1303               	bcf	3,6	;RP1=0, select bank0
  1138     019D  00D4               	movwf	??_main
  1139     019E  01D5               	clrf	??_main+1
  1140     019F  0854               	movf	??_main,w
  1141     01A0  00C2               	movwf	sprintf@sp
  1142     01A1  0855               	movf	??_main+1,w
  1143     01A2  00C3               	movwf	sprintf@sp+1
  1144     01A3  3027               	movlw	(low ((STR_2-__stringbase)| (0+32768)))& (0+255)
  1145     01A4  00C4               	movwf	sprintf@f
  1146     01A5  0827               	movf	_OnOff+1,w
  1147     01A6  00C6               	movwf	?_sprintf+4
  1148     01A7  0826               	movf	_OnOff,w
  1149     01A8  00C5               	movwf	?_sprintf+3
  1150     01A9  0828               	movf	_fanOnOff,w
  1151     01AA  00D6               	movwf	??_main+2
  1152     01AB  01D7               	clrf	??_main+3
  1153     01AC  0856               	movf	??_main+2,w
  1154     01AD  00C7               	movwf	?_sprintf+5
  1155     01AE  0857               	movf	??_main+3,w
  1156     01AF  00C8               	movwf	?_sprintf+6
  1157     01B0  120A  118A  201E  120A  118A  	fcall	_sprintf
  1158     01B5                     l2371:
  1159                           
  1160                           ;E:/Universidad/Semestre2_2023/Digital-2/Proyecto1/Master/MasterPIC.X/MasterPIC.c: 133: 
      +                                  enviocadena(toESP);
  1161     01B5  087A               	movf	_toESP,w
  1162     01B6  1283               	bcf	3,5	;RP0=0, select bank0
  1163     01B7  1303               	bcf	3,6	;RP1=0, select bank0
  1164     01B8  00D4               	movwf	??_main
  1165     01B9  01D5               	clrf	??_main+1
  1166     01BA  0854               	movf	??_main,w
  1167     01BB  00F3               	movwf	enviocadena@cadena
  1168     01BC  0855               	movf	??_main+1,w
  1169     01BD  00F4               	movwf	enviocadena@cadena+1
  1170     01BE  120A  118A  2686  120A  118A  	fcall	_enviocadena
  1171     01C3                     l2373:
  1172                           
  1173                           ;E:/Universidad/Semestre2_2023/Digital-2/Proyecto1/Master/MasterPIC.X/MasterPIC.c: 134: 
      +                                  enviocaracter(10);
  1174     01C3  300A               	movlw	10
  1175     01C4  120A  118A  2742  120A  118A  	fcall	_enviocaracter
  1176     01C9                     l2375:
  1177                           
  1178                           ;E:/Universidad/Semestre2_2023/Digital-2/Proyecto1/Master/MasterPIC.X/MasterPIC.c: 135: 
      +                                  _delay((unsigned long)((300)*(8000000/4000.0)));
  1179     01C9  3004               	movlw	4
  1180     01CA  1283               	bcf	3,5	;RP0=0, select bank0
  1181     01CB  1303               	bcf	3,6	;RP1=0, select bank0
  1182     01CC  00D6               	movwf	??_main+2
  1183     01CD  300C               	movlw	12
  1184     01CE  00D5               	movwf	??_main+1
  1185     01CF  3033               	movlw	51
  1186     01D0  00D4               	movwf	??_main
  1187     01D1                     u1567:
  1188     01D1  0BD4               	decfsz	??_main,f
  1189     01D2  29D1               	goto	u1567
  1190     01D3  0BD5               	decfsz	??_main+1,f
  1191     01D4  29D1               	goto	u1567
  1192     01D5  0BD6               	decfsz	??_main+2,f
  1193     01D6  29D1               	goto	u1567
  1194     01D7                     l2377:
  1195                           
  1196                           ;E:/Universidad/Semestre2_2023/Digital-2/Proyecto1/Master/MasterPIC.X/MasterPIC.c: 138: 
      +                                  sprintf(toESP,"W%d U%d", fsrValue, ultrasonicValue);
  1197     01D7  087A               	movf	_toESP,w
  1198     01D8  1283               	bcf	3,5	;RP0=0, select bank0
  1199     01D9  1303               	bcf	3,6	;RP1=0, select bank0
  1200     01DA  00D4               	movwf	??_main
  1201     01DB  01D5               	clrf	??_main+1
  1202     01DC  0854               	movf	??_main,w
  1203     01DD  00C2               	movwf	sprintf@sp
  1204     01DE  0855               	movf	??_main+1,w
  1205     01DF  00C3               	movwf	sprintf@sp+1
  1206     01E0  302F               	movlw	(low ((STR_3-__stringbase)| (0+32768)))& (0+255)
  1207     01E1  00C4               	movwf	sprintf@f
  1208     01E2  082C               	movf	_fsrValue,w
  1209     01E3  00D6               	movwf	??_main+2
  1210     01E4  01D7               	clrf	??_main+3
  1211     01E5  0856               	movf	??_main+2,w
  1212     01E6  00C5               	movwf	?_sprintf+3
  1213     01E7  0857               	movf	??_main+3,w
  1214     01E8  00C6               	movwf	?_sprintf+4
  1215     01E9  087B               	movf	_ultrasonicValue,w
  1216     01EA  00D8               	movwf	??_main+4
  1217     01EB  01D9               	clrf	??_main+5
  1218     01EC  0858               	movf	??_main+4,w
  1219     01ED  00C7               	movwf	?_sprintf+5
  1220     01EE  0859               	movf	??_main+5,w
  1221     01EF  00C8               	movwf	?_sprintf+6
  1222     01F0  120A  118A  201E  120A  118A  	fcall	_sprintf
  1223     01F5                     l2379:
  1224                           
  1225                           ;E:/Universidad/Semestre2_2023/Digital-2/Proyecto1/Master/MasterPIC.X/MasterPIC.c: 140: 
      +                                  enviocadena(toESP);
  1226     01F5  087A               	movf	_toESP,w
  1227     01F6  1283               	bcf	3,5	;RP0=0, select bank0
  1228     01F7  1303               	bcf	3,6	;RP1=0, select bank0
  1229     01F8  00D4               	movwf	??_main
  1230     01F9  01D5               	clrf	??_main+1
  1231     01FA  0854               	movf	??_main,w
  1232     01FB  00F3               	movwf	enviocadena@cadena
  1233     01FC  0855               	movf	??_main+1,w
  1234     01FD  00F4               	movwf	enviocadena@cadena+1
  1235     01FE  120A  118A  2686  120A  118A  	fcall	_enviocadena
  1236     0203                     l2381:
  1237                           
  1238                           ;E:/Universidad/Semestre2_2023/Digital-2/Proyecto1/Master/MasterPIC.X/MasterPIC.c: 141: 
      +                                  enviocaracter(10);
  1239     0203  300A               	movlw	10
  1240     0204  120A  118A  2742  120A  118A  	fcall	_enviocaracter
  1241     0209  2981               	goto	l2361
  1242     020A  120A  118A  280C   	ljmp	start
  1243     020D                     __end_of_main:
  1244                           
  1245                           	psect	text1
  1246     02EF                     __ptext1:	
  1247 ;; *************** function _slave2Communication *****************
  1248 ;; Defined at:
  1249 ;;		line 224 in file "E:/Universidad/Semestre2_2023/Digital-2/Proyecto1/Master/MasterPIC.X/MasterPIC.c"
  1250 ;; Parameters:    Size  Location     Type
  1251 ;;		None
  1252 ;; Auto vars:     Size  Location     Type
  1253 ;;  valueS2         1    8[COMMON] unsigned char 
  1254 ;; Return value:  Size  Location     Type
  1255 ;;                  1    wreg      void 
  1256 ;; Registers used:
  1257 ;;		wreg, status,2, status,0, pclath, cstack
  1258 ;; Tracked objects:
  1259 ;;		On entry : 0/0
  1260 ;;		On exit  : 0/0
  1261 ;;		Unchanged: 0/0
  1262 ;; Data sizes:     COMMON   BANK0   BANK1   BANK3   BANK2
  1263 ;;      Params:         0       0       0       0       0
  1264 ;;      Locals:         1       0       0       0       0
  1265 ;;      Temps:          0       3       0       0       0
  1266 ;;      Totals:         1       3       0       0       0
  1267 ;;Total ram usage:        4 bytes
  1268 ;; Hardware stack levels used: 1
  1269 ;; Hardware stack levels required when called: 3
  1270 ;; This function calls:
  1271 ;;		_I2C_Master_Read
  1272 ;;		_I2C_Master_Start
  1273 ;;		_I2C_Master_Stop
  1274 ;;		_I2C_Master_Write
  1275 ;; This function is called by:
  1276 ;;		_main
  1277 ;; This function uses a non-reentrant model
  1278 ;;
  1279                           
  1280     02EF                     _slave2Communication:	
  1281                           ;psect for function _slave2Communication
  1282                           
  1283     02EF                     l2313:	
  1284                           ;incstack = 0
  1285                           ; Regs used in _slave2Communication: [wreg+status,2+status,0+pclath+cstack]
  1286                           
  1287     02EF                     l2315:
  1288                           
  1289                           ;E:/Universidad/Semestre2_2023/Digital-2/Proyecto1/Master/MasterPIC.X/MasterPIC.c: 227: 
      +                                  I2C_Master_Start();
  1290     02EF  120A  118A  278A  120A  118A  	fcall	_I2C_Master_Start
  1291     02F4                     l2317:
  1292                           
  1293                           ;E:/Universidad/Semestre2_2023/Digital-2/Proyecto1/Master/MasterPIC.X/MasterPIC.c: 228: 
      +                                  I2C_Master_Write(0x60 + 1);
  1294     02F4  3061               	movlw	97
  1295     02F5  00F2               	movwf	I2C_Master_Write@d
  1296     02F6  3000               	movlw	0
  1297     02F7  00F3               	movwf	I2C_Master_Write@d+1
  1298     02F8  120A  118A  2777  120A  118A  	fcall	_I2C_Master_Write
  1299     02FD                     l2319:
  1300                           
  1301                           ;E:/Universidad/Semestre2_2023/Digital-2/Proyecto1/Master/MasterPIC.X/MasterPIC.c: 229: 
      +                                  valueS2 = I2C_Master_Read(0);
  1302     02FD  3000               	movlw	0
  1303     02FE  00F2               	movwf	I2C_Master_Read@a
  1304     02FF  00F3               	movwf	I2C_Master_Read@a+1
  1305     0300  120A  118A  2658  120A  118A  	fcall	_I2C_Master_Read
  1306     0305  0872               	movf	?_I2C_Master_Read,w
  1307     0306  00F8               	movwf	slave2Communication@valueS2
  1308     0307                     l2321:
  1309                           
  1310                           ;E:/Universidad/Semestre2_2023/Digital-2/Proyecto1/Master/MasterPIC.X/MasterPIC.c: 230: 
      +                                  I2C_Master_Stop();
  1311     0307  120A  118A  2781  120A  118A  	fcall	_I2C_Master_Stop
  1312     030C                     l2323:
  1313                           
  1314                           ;E:/Universidad/Semestre2_2023/Digital-2/Proyecto1/Master/MasterPIC.X/MasterPIC.c: 231: 
      +                                  _delay((unsigned long)((200)*(8000000/4000.0)));
  1315     030C  3003               	movlw	3
  1316     030D  1283               	bcf	3,5	;RP0=0, select bank0
  1317     030E  1303               	bcf	3,6	;RP1=0, select bank0
  1318     030F  00C0               	movwf	??_slave2Communication+2
  1319     0310  3008               	movlw	8
  1320     0311  00BF               	movwf	??_slave2Communication+1
  1321     0312  3076               	movlw	118
  1322     0313  00BE               	movwf	??_slave2Communication
  1323     0314                     u1577:
  1324     0314  0BBE               	decfsz	??_slave2Communication,f
  1325     0315  2B14               	goto	u1577
  1326     0316  0BBF               	decfsz	??_slave2Communication+1,f
  1327     0317  2B14               	goto	u1577
  1328     0318  0BC0               	decfsz	??_slave2Communication+2,f
  1329     0319  2B14               	goto	u1577
  1330     031A  0000               	nop
  1331     031B                     l2325:
  1332                           
  1333                           ;E:/Universidad/Semestre2_2023/Digital-2/Proyecto1/Master/MasterPIC.X/MasterPIC.c: 233: 
      +                                  I2C_Master_Start();
  1334     031B  120A  118A  278A  120A  118A  	fcall	_I2C_Master_Start
  1335     0320                     l2327:
  1336                           
  1337                           ;E:/Universidad/Semestre2_2023/Digital-2/Proyecto1/Master/MasterPIC.X/MasterPIC.c: 234: 
      +                                  I2C_Master_Write(0x60);
  1338     0320  3060               	movlw	96
  1339     0321  00F2               	movwf	I2C_Master_Write@d
  1340     0322  3000               	movlw	0
  1341     0323  00F3               	movwf	I2C_Master_Write@d+1
  1342     0324  120A  118A  2777  120A  118A  	fcall	_I2C_Master_Write
  1343     0329                     l2329:
  1344                           
  1345                           ;E:/Universidad/Semestre2_2023/Digital-2/Proyecto1/Master/MasterPIC.X/MasterPIC.c: 235: 
      +                                  I2C_Master_Write(fanOnOff);
  1346     0329  1283               	bcf	3,5	;RP0=0, select bank0
  1347     032A  1303               	bcf	3,6	;RP1=0, select bank0
  1348     032B  0828               	movf	_fanOnOff,w
  1349     032C  00BE               	movwf	??_slave2Communication
  1350     032D  01BF               	clrf	??_slave2Communication+1
  1351     032E  083E               	movf	??_slave2Communication,w
  1352     032F  00F2               	movwf	I2C_Master_Write@d
  1353     0330  083F               	movf	??_slave2Communication+1,w
  1354     0331  00F3               	movwf	I2C_Master_Write@d+1
  1355     0332  120A  118A  2777  120A  118A  	fcall	_I2C_Master_Write
  1356     0337                     l2331:
  1357                           
  1358                           ;E:/Universidad/Semestre2_2023/Digital-2/Proyecto1/Master/MasterPIC.X/MasterPIC.c: 236: 
      +                                  I2C_Master_Stop();
  1359     0337  120A  118A  2781  120A  118A  	fcall	_I2C_Master_Stop
  1360     033C                     l2333:
  1361                           
  1362                           ;E:/Universidad/Semestre2_2023/Digital-2/Proyecto1/Master/MasterPIC.X/MasterPIC.c: 237: 
      +                                  fsrValue = valueS2;
  1363     033C  0878               	movf	slave2Communication@valueS2,w
  1364     033D  1283               	bcf	3,5	;RP0=0, select bank0
  1365     033E  1303               	bcf	3,6	;RP1=0, select bank0
  1366     033F  00AC               	movwf	_fsrValue
  1367     0340                     l2335:
  1368                           
  1369                           ;E:/Universidad/Semestre2_2023/Digital-2/Proyecto1/Master/MasterPIC.X/MasterPIC.c: 238: 
      +                                  _delay((unsigned long)((200)*(8000000/4000.0)));
  1370     0340  3003               	movlw	3
  1371     0341  1283               	bcf	3,5	;RP0=0, select bank0
  1372     0342  1303               	bcf	3,6	;RP1=0, select bank0
  1373     0343  00C0               	movwf	??_slave2Communication+2
  1374     0344  3008               	movlw	8
  1375     0345  00BF               	movwf	??_slave2Communication+1
  1376     0346  3076               	movlw	118
  1377     0347  00BE               	movwf	??_slave2Communication
  1378     0348                     u1587:
  1379     0348  0BBE               	decfsz	??_slave2Communication,f
  1380     0349  2B48               	goto	u1587
  1381     034A  0BBF               	decfsz	??_slave2Communication+1,f
  1382     034B  2B48               	goto	u1587
  1383     034C  0BC0               	decfsz	??_slave2Communication+2,f
  1384     034D  2B48               	goto	u1587
  1385     034E  0000               	nop
  1386     034F                     l210:
  1387     034F  0008               	return
  1388     0350                     __end_of_slave2Communication:
  1389                           
  1390                           	psect	text2
  1391     0350                     __ptext2:	
  1392 ;; *************** function _slave1Communication *****************
  1393 ;; Defined at:
  1394 ;;		line 206 in file "E:/Universidad/Semestre2_2023/Digital-2/Proyecto1/Master/MasterPIC.X/MasterPIC.c"
  1395 ;; Parameters:    Size  Location     Type
  1396 ;;		None
  1397 ;; Auto vars:     Size  Location     Type
  1398 ;;  valueS1         1    8[COMMON] unsigned char 
  1399 ;; Return value:  Size  Location     Type
  1400 ;;                  1    wreg      void 
  1401 ;; Registers used:
  1402 ;;		wreg, status,2, status,0, pclath, cstack
  1403 ;; Tracked objects:
  1404 ;;		On entry : 0/0
  1405 ;;		On exit  : 0/0
  1406 ;;		Unchanged: 0/0
  1407 ;; Data sizes:     COMMON   BANK0   BANK1   BANK3   BANK2
  1408 ;;      Params:         0       0       0       0       0
  1409 ;;      Locals:         1       0       0       0       0
  1410 ;;      Temps:          0       3       0       0       0
  1411 ;;      Totals:         1       3       0       0       0
  1412 ;;Total ram usage:        4 bytes
  1413 ;; Hardware stack levels used: 1
  1414 ;; Hardware stack levels required when called: 3
  1415 ;; This function calls:
  1416 ;;		_I2C_Master_Read
  1417 ;;		_I2C_Master_Start
  1418 ;;		_I2C_Master_Stop
  1419 ;;		_I2C_Master_Write
  1420 ;; This function is called by:
  1421 ;;		_main
  1422 ;; This function uses a non-reentrant model
  1423 ;;
  1424                           
  1425     0350                     _slave1Communication:	
  1426                           ;psect for function _slave1Communication
  1427                           
  1428     0350                     l2289:	
  1429                           ;incstack = 0
  1430                           ; Regs used in _slave1Communication: [wreg+status,2+status,0+pclath+cstack]
  1431                           
  1432     0350                     l2291:
  1433                           
  1434                           ;E:/Universidad/Semestre2_2023/Digital-2/Proyecto1/Master/MasterPIC.X/MasterPIC.c: 209: 
      +                                  I2C_Master_Start();
  1435     0350  120A  118A  278A  120A  118A  	fcall	_I2C_Master_Start
  1436     0355                     l2293:
  1437                           
  1438                           ;E:/Universidad/Semestre2_2023/Digital-2/Proyecto1/Master/MasterPIC.X/MasterPIC.c: 210: 
      +                                  I2C_Master_Write(0x50 + 1);
  1439     0355  3051               	movlw	81
  1440     0356  00F2               	movwf	I2C_Master_Write@d
  1441     0357  3000               	movlw	0
  1442     0358  00F3               	movwf	I2C_Master_Write@d+1
  1443     0359  120A  118A  2777  120A  118A  	fcall	_I2C_Master_Write
  1444     035E                     l2295:
  1445                           
  1446                           ;E:/Universidad/Semestre2_2023/Digital-2/Proyecto1/Master/MasterPIC.X/MasterPIC.c: 211: 
      +                                  valueS1 = I2C_Master_Read(0);
  1447     035E  3000               	movlw	0
  1448     035F  00F2               	movwf	I2C_Master_Read@a
  1449     0360  00F3               	movwf	I2C_Master_Read@a+1
  1450     0361  120A  118A  2658  120A  118A  	fcall	_I2C_Master_Read
  1451     0366  0872               	movf	?_I2C_Master_Read,w
  1452     0367  00F8               	movwf	slave1Communication@valueS1
  1453     0368                     l2297:
  1454                           
  1455                           ;E:/Universidad/Semestre2_2023/Digital-2/Proyecto1/Master/MasterPIC.X/MasterPIC.c: 212: 
      +                                  I2C_Master_Stop();
  1456     0368  120A  118A  2781  120A  118A  	fcall	_I2C_Master_Stop
  1457     036D                     l2299:
  1458                           
  1459                           ;E:/Universidad/Semestre2_2023/Digital-2/Proyecto1/Master/MasterPIC.X/MasterPIC.c: 213: 
      +                                  _delay((unsigned long)((200)*(8000000/4000.0)));
  1460     036D  3003               	movlw	3
  1461     036E  1283               	bcf	3,5	;RP0=0, select bank0
  1462     036F  1303               	bcf	3,6	;RP1=0, select bank0
  1463     0370  00C0               	movwf	??_slave1Communication+2
  1464     0371  3008               	movlw	8
  1465     0372  00BF               	movwf	??_slave1Communication+1
  1466     0373  3076               	movlw	118
  1467     0374  00BE               	movwf	??_slave1Communication
  1468     0375                     u1597:
  1469     0375  0BBE               	decfsz	??_slave1Communication,f
  1470     0376  2B75               	goto	u1597
  1471     0377  0BBF               	decfsz	??_slave1Communication+1,f
  1472     0378  2B75               	goto	u1597
  1473     0379  0BC0               	decfsz	??_slave1Communication+2,f
  1474     037A  2B75               	goto	u1597
  1475     037B  0000               	nop
  1476     037C                     l2301:
  1477                           
  1478                           ;E:/Universidad/Semestre2_2023/Digital-2/Proyecto1/Master/MasterPIC.X/MasterPIC.c: 215: 
      +                                  I2C_Master_Start();
  1479     037C  120A  118A  278A  120A  118A  	fcall	_I2C_Master_Start
  1480     0381                     l2303:
  1481                           
  1482                           ;E:/Universidad/Semestre2_2023/Digital-2/Proyecto1/Master/MasterPIC.X/MasterPIC.c: 216: 
      +                                  I2C_Master_Write(0x50);
  1483     0381  3050               	movlw	80
  1484     0382  00F2               	movwf	I2C_Master_Write@d
  1485     0383  3000               	movlw	0
  1486     0384  00F3               	movwf	I2C_Master_Write@d+1
  1487     0385  120A  118A  2777  120A  118A  	fcall	_I2C_Master_Write
  1488     038A                     l2305:
  1489                           
  1490                           ;E:/Universidad/Semestre2_2023/Digital-2/Proyecto1/Master/MasterPIC.X/MasterPIC.c: 217: 
      +                                  I2C_Master_Write(OnOff);
  1491     038A  1283               	bcf	3,5	;RP0=0, select bank0
  1492     038B  1303               	bcf	3,6	;RP1=0, select bank0
  1493     038C  0827               	movf	_OnOff+1,w
  1494     038D  00F3               	movwf	I2C_Master_Write@d+1
  1495     038E  0826               	movf	_OnOff,w
  1496     038F  00F2               	movwf	I2C_Master_Write@d
  1497     0390  120A  118A  2777  120A  118A  	fcall	_I2C_Master_Write
  1498     0395                     l2307:
  1499                           
  1500                           ;E:/Universidad/Semestre2_2023/Digital-2/Proyecto1/Master/MasterPIC.X/MasterPIC.c: 218: 
      +                                  I2C_Master_Stop();
  1501     0395  120A  118A  2781  120A  118A  	fcall	_I2C_Master_Stop
  1502     039A                     l2309:
  1503                           
  1504                           ;E:/Universidad/Semestre2_2023/Digital-2/Proyecto1/Master/MasterPIC.X/MasterPIC.c: 219: 
      +                                  ultrasonicValue = valueS1;
  1505     039A  0878               	movf	slave1Communication@valueS1,w
  1506     039B  00FB               	movwf	_ultrasonicValue
  1507     039C                     l2311:
  1508                           
  1509                           ;E:/Universidad/Semestre2_2023/Digital-2/Proyecto1/Master/MasterPIC.X/MasterPIC.c: 220: 
      +                                  _delay((unsigned long)((200)*(8000000/4000.0)));
  1510     039C  3003               	movlw	3
  1511     039D  1283               	bcf	3,5	;RP0=0, select bank0
  1512     039E  1303               	bcf	3,6	;RP1=0, select bank0
  1513     039F  00C0               	movwf	??_slave1Communication+2
  1514     03A0  3008               	movlw	8
  1515     03A1  00BF               	movwf	??_slave1Communication+1
  1516     03A2  3076               	movlw	118
  1517     03A3  00BE               	movwf	??_slave1Communication
  1518     03A4                     u1607:
  1519     03A4  0BBE               	decfsz	??_slave1Communication,f
  1520     03A5  2BA4               	goto	u1607
  1521     03A6  0BBF               	decfsz	??_slave1Communication+1,f
  1522     03A7  2BA4               	goto	u1607
  1523     03A8  0BC0               	decfsz	??_slave1Communication+2,f
  1524     03A9  2BA4               	goto	u1607
  1525     03AA  0000               	nop
  1526     03AB                     l207:
  1527     03AB  0008               	return
  1528     03AC                     __end_of_slave1Communication:
  1529                           
  1530                           	psect	text3
  1531     0777                     __ptext3:	
  1532 ;; *************** function _I2C_Master_Write *****************
  1533 ;; Defined at:
  1534 ;;		line 65 in file "E:/Universidad/Semestre2_2023/Digital-2/Proyecto1/Master/MasterPIC.X/I2C.c"
  1535 ;; Parameters:    Size  Location     Type
  1536 ;;  d               2    2[COMMON] unsigned int 
  1537 ;; Auto vars:     Size  Location     Type
  1538 ;;		None
  1539 ;; Return value:  Size  Location     Type
  1540 ;;                  1    wreg      void 
  1541 ;; Registers used:
  1542 ;;		wreg, status,2, status,0, pclath, cstack
  1543 ;; Tracked objects:
  1544 ;;		On entry : 0/0
  1545 ;;		On exit  : 0/0
  1546 ;;		Unchanged: 0/0
  1547 ;; Data sizes:     COMMON   BANK0   BANK1   BANK3   BANK2
  1548 ;;      Params:         2       0       0       0       0
  1549 ;;      Locals:         0       0       0       0       0
  1550 ;;      Temps:          0       0       0       0       0
  1551 ;;      Totals:         2       0       0       0       0
  1552 ;;Total ram usage:        2 bytes
  1553 ;; Hardware stack levels used: 1
  1554 ;; Hardware stack levels required when called: 2
  1555 ;; This function calls:
  1556 ;;		_I2C_Master_Wait
  1557 ;; This function is called by:
  1558 ;;		_slave1Communication
  1559 ;;		_slave2Communication
  1560 ;;		_ReadGyroscopeData
  1561 ;; This function uses a non-reentrant model
  1562 ;;
  1563                           
  1564     0777                     _I2C_Master_Write:	
  1565                           ;psect for function _I2C_Master_Write
  1566                           
  1567     0777                     l1765:	
  1568                           ;incstack = 0
  1569                           ; Regs used in _I2C_Master_Write: [wreg+status,2+status,0+pclath+cstack]
  1570                           
  1571                           
  1572                           ;E:/Universidad/Semestre2_2023/Digital-2/Proyecto1/Master/MasterPIC.X/I2C.c: 65: void I2
      +                          C_Master_Write(unsigned d);E:/Universidad/Semestre2_2023/Digital-2/Proyecto1/Master/Mast
      +                          erPIC.X/I2C.c: 66: {;E:/Universidad/Semestre2_2023/Digital-2/Proyecto1/Master/MasterPIC.
      +                          X/I2C.c: 67:     I2C_Master_Wait();
  1573     0777  120A  118A  2752  120A  118A  	fcall	_I2C_Master_Wait
  1574     077C                     l1767:
  1575                           
  1576                           ;E:/Universidad/Semestre2_2023/Digital-2/Proyecto1/Master/MasterPIC.X/I2C.c: 68:     SSP
      +                          BUF = d;
  1577     077C  0872               	movf	I2C_Master_Write@d,w
  1578     077D  1283               	bcf	3,5	;RP0=0, select bank0
  1579     077E  1303               	bcf	3,6	;RP1=0, select bank0
  1580     077F  0093               	movwf	19	;volatile
  1581     0780                     l47:
  1582     0780  0008               	return
  1583     0781                     __end_of_I2C_Master_Write:
  1584                           
  1585                           	psect	text4
  1586     0781                     __ptext4:	
  1587 ;; *************** function _I2C_Master_Stop *****************
  1588 ;; Defined at:
  1589 ;;		line 55 in file "E:/Universidad/Semestre2_2023/Digital-2/Proyecto1/Master/MasterPIC.X/I2C.c"
  1590 ;; Parameters:    Size  Location     Type
  1591 ;;		None
  1592 ;; Auto vars:     Size  Location     Type
  1593 ;;		None
  1594 ;; Return value:  Size  Location     Type
  1595 ;;                  1    wreg      void 
  1596 ;; Registers used:
  1597 ;;		wreg, status,2, status,0, pclath, cstack
  1598 ;; Tracked objects:
  1599 ;;		On entry : 0/0
  1600 ;;		On exit  : 0/0
  1601 ;;		Unchanged: 0/0
  1602 ;; Data sizes:     COMMON   BANK0   BANK1   BANK3   BANK2
  1603 ;;      Params:         0       0       0       0       0
  1604 ;;      Locals:         0       0       0       0       0
  1605 ;;      Temps:          0       0       0       0       0
  1606 ;;      Totals:         0       0       0       0       0
  1607 ;;Total ram usage:        0 bytes
  1608 ;; Hardware stack levels used: 1
  1609 ;; Hardware stack levels required when called: 2
  1610 ;; This function calls:
  1611 ;;		_I2C_Master_Wait
  1612 ;; This function is called by:
  1613 ;;		_slave1Communication
  1614 ;;		_slave2Communication
  1615 ;;		_ReadGyroscopeData
  1616 ;; This function uses a non-reentrant model
  1617 ;;
  1618                           
  1619     0781                     _I2C_Master_Stop:	
  1620                           ;psect for function _I2C_Master_Stop
  1621                           
  1622     0781                     l1761:	
  1623                           ;incstack = 0
  1624                           ; Regs used in _I2C_Master_Stop: [wreg+status,2+status,0+pclath+cstack]
  1625                           
  1626                           
  1627                           ;E:/Universidad/Semestre2_2023/Digital-2/Proyecto1/Master/MasterPIC.X/I2C.c: 57:     I2C
      +                          _Master_Wait();
  1628     0781  120A  118A  2752  120A  118A  	fcall	_I2C_Master_Wait
  1629     0786                     l1763:
  1630                           
  1631                           ;E:/Universidad/Semestre2_2023/Digital-2/Proyecto1/Master/MasterPIC.X/I2C.c: 58:     SSP
      +                          CON2bits.PEN = 1;
  1632     0786  1683               	bsf	3,5	;RP0=1, select bank1
  1633     0787  1303               	bcf	3,6	;RP1=0, select bank1
  1634     0788  1511               	bsf	17,2	;volatile
  1635     0789                     l44:
  1636     0789  0008               	return
  1637     078A                     __end_of_I2C_Master_Stop:
  1638                           
  1639                           	psect	text5
  1640     078A                     __ptext5:	
  1641 ;; *************** function _I2C_Master_Start *****************
  1642 ;; Defined at:
  1643 ;;		line 39 in file "E:/Universidad/Semestre2_2023/Digital-2/Proyecto1/Master/MasterPIC.X/I2C.c"
  1644 ;; Parameters:    Size  Location     Type
  1645 ;;		None
  1646 ;; Auto vars:     Size  Location     Type
  1647 ;;		None
  1648 ;; Return value:  Size  Location     Type
  1649 ;;                  1    wreg      void 
  1650 ;; Registers used:
  1651 ;;		wreg, status,2, status,0, pclath, cstack
  1652 ;; Tracked objects:
  1653 ;;		On entry : 0/0
  1654 ;;		On exit  : 0/0
  1655 ;;		Unchanged: 0/0
  1656 ;; Data sizes:     COMMON   BANK0   BANK1   BANK3   BANK2
  1657 ;;      Params:         0       0       0       0       0
  1658 ;;      Locals:         0       0       0       0       0
  1659 ;;      Temps:          0       0       0       0       0
  1660 ;;      Totals:         0       0       0       0       0
  1661 ;;Total ram usage:        0 bytes
  1662 ;; Hardware stack levels used: 1
  1663 ;; Hardware stack levels required when called: 2
  1664 ;; This function calls:
  1665 ;;		_I2C_Master_Wait
  1666 ;; This function is called by:
  1667 ;;		_slave1Communication
  1668 ;;		_slave2Communication
  1669 ;;		_ReadGyroscopeData
  1670 ;; This function uses a non-reentrant model
  1671 ;;
  1672                           
  1673     078A                     _I2C_Master_Start:	
  1674                           ;psect for function _I2C_Master_Start
  1675                           
  1676     078A                     l1757:	
  1677                           ;incstack = 0
  1678                           ; Regs used in _I2C_Master_Start: [wreg+status,2+status,0+pclath+cstack]
  1679                           
  1680                           
  1681                           ;E:/Universidad/Semestre2_2023/Digital-2/Proyecto1/Master/MasterPIC.X/I2C.c: 41:     I2C
      +                          _Master_Wait();
  1682     078A  120A  118A  2752  120A  118A  	fcall	_I2C_Master_Wait
  1683     078F                     l1759:
  1684                           
  1685                           ;E:/Universidad/Semestre2_2023/Digital-2/Proyecto1/Master/MasterPIC.X/I2C.c: 42:     SSP
      +                          CON2bits.SEN = 1;
  1686     078F  1683               	bsf	3,5	;RP0=1, select bank1
  1687     0790  1303               	bcf	3,6	;RP1=0, select bank1
  1688     0791  1411               	bsf	17,0	;volatile
  1689     0792                     l38:
  1690     0792  0008               	return
  1691     0793                     __end_of_I2C_Master_Start:
  1692                           
  1693                           	psect	text6
  1694     0658                     __ptext6:	
  1695 ;; *************** function _I2C_Master_Read *****************
  1696 ;; Defined at:
  1697 ;;		line 74 in file "E:/Universidad/Semestre2_2023/Digital-2/Proyecto1/Master/MasterPIC.X/I2C.c"
  1698 ;; Parameters:    Size  Location     Type
  1699 ;;  a               2    2[COMMON] unsigned short 
  1700 ;; Auto vars:     Size  Location     Type
  1701 ;;  temp            2    6[COMMON] unsigned short 
  1702 ;; Return value:  Size  Location     Type
  1703 ;;                  2    2[COMMON] unsigned short 
  1704 ;; Registers used:
  1705 ;;		wreg, status,2, status,0, pclath, cstack
  1706 ;; Tracked objects:
  1707 ;;		On entry : 0/0
  1708 ;;		On exit  : 0/0
  1709 ;;		Unchanged: 0/0
  1710 ;; Data sizes:     COMMON   BANK0   BANK1   BANK3   BANK2
  1711 ;;      Params:         2       0       0       0       0
  1712 ;;      Locals:         2       0       0       0       0
  1713 ;;      Temps:          2       0       0       0       0
  1714 ;;      Totals:         6       0       0       0       0
  1715 ;;Total ram usage:        6 bytes
  1716 ;; Hardware stack levels used: 1
  1717 ;; Hardware stack levels required when called: 2
  1718 ;; This function calls:
  1719 ;;		_I2C_Master_Wait
  1720 ;; This function is called by:
  1721 ;;		_slave1Communication
  1722 ;;		_slave2Communication
  1723 ;;		_ReadGyroscopeData
  1724 ;; This function uses a non-reentrant model
  1725 ;;
  1726                           
  1727     0658                     _I2C_Master_Read:	
  1728                           ;psect for function _I2C_Master_Read
  1729                           
  1730     0658                     l1769:	
  1731                           ;incstack = 0
  1732                           ; Regs used in _I2C_Master_Read: [wreg+status,2+status,0+pclath+cstack]
  1733                           
  1734                           
  1735                           ;E:/Universidad/Semestre2_2023/Digital-2/Proyecto1/Master/MasterPIC.X/I2C.c: 74: unsigne
      +                          d short I2C_Master_Read(unsigned short a);E:/Universidad/Semestre2_2023/Digital-2/Proyec
      +                          to1/Master/MasterPIC.X/I2C.c: 75: {;E:/Universidad/Semestre2_2023/Digital-2/Proyecto1/Ma
      +                          ster/MasterPIC.X/I2C.c: 76:     unsigned short temp;;E:/Universidad/Semestre2_2023/Digit
      +                          al-2/Proyecto1/Master/MasterPIC.X/I2C.c: 77:     I2C_Master_Wait();
  1736     0658  120A  118A  2752  120A  118A  	fcall	_I2C_Master_Wait
  1737     065D                     l1771:
  1738                           
  1739                           ;E:/Universidad/Semestre2_2023/Digital-2/Proyecto1/Master/MasterPIC.X/I2C.c: 78:     SSP
      +                          CON2bits.RCEN = 1;
  1740     065D  1683               	bsf	3,5	;RP0=1, select bank1
  1741     065E  1303               	bcf	3,6	;RP1=0, select bank1
  1742     065F  1591               	bsf	17,3	;volatile
  1743                           
  1744                           ;E:/Universidad/Semestre2_2023/Digital-2/Proyecto1/Master/MasterPIC.X/I2C.c: 79:     I2C
      +                          _Master_Wait();
  1745     0660  120A  118A  2752  120A  118A  	fcall	_I2C_Master_Wait
  1746     0665                     l1773:
  1747                           
  1748                           ;E:/Universidad/Semestre2_2023/Digital-2/Proyecto1/Master/MasterPIC.X/I2C.c: 80:     tem
      +                          p = SSPBUF;
  1749     0665  1283               	bcf	3,5	;RP0=0, select bank0
  1750     0666  1303               	bcf	3,6	;RP1=0, select bank0
  1751     0667  0813               	movf	19,w	;volatile
  1752     0668  00F4               	movwf	??_I2C_Master_Read
  1753     0669  01F5               	clrf	??_I2C_Master_Read+1
  1754     066A  0874               	movf	??_I2C_Master_Read,w
  1755     066B  00F6               	movwf	I2C_Master_Read@temp
  1756     066C  0875               	movf	??_I2C_Master_Read+1,w
  1757     066D  00F7               	movwf	I2C_Master_Read@temp+1
  1758     066E                     l1775:
  1759                           
  1760                           ;E:/Universidad/Semestre2_2023/Digital-2/Proyecto1/Master/MasterPIC.X/I2C.c: 81:     I2C
      +                          _Master_Wait();
  1761     066E  120A  118A  2752  120A  118A  	fcall	_I2C_Master_Wait
  1762     0673                     l1777:
  1763                           
  1764                           ;E:/Universidad/Semestre2_2023/Digital-2/Proyecto1/Master/MasterPIC.X/I2C.c: 82:     if(
      +                          a == 1){
  1765     0673  0372               	decf	I2C_Master_Read@a,w
  1766     0674  0473               	iorwf	I2C_Master_Read@a+1,w
  1767     0675  1D03               	btfss	3,2
  1768     0676  2E78               	goto	u1081
  1769     0677  2E79               	goto	u1080
  1770     0678                     u1081:
  1771     0678  2E7D               	goto	l50
  1772     0679                     u1080:
  1773     0679                     l1779:
  1774                           
  1775                           ;E:/Universidad/Semestre2_2023/Digital-2/Proyecto1/Master/MasterPIC.X/I2C.c: 83:        
      +                           SSPCON2bits.ACKDT = 0;
  1776     0679  1683               	bsf	3,5	;RP0=1, select bank1
  1777     067A  1303               	bcf	3,6	;RP1=0, select bank1
  1778     067B  1291               	bcf	17,5	;volatile
  1779                           
  1780                           ;E:/Universidad/Semestre2_2023/Digital-2/Proyecto1/Master/MasterPIC.X/I2C.c: 84:     }el
      +                          se{
  1781     067C  2E80               	goto	l51
  1782     067D                     l50:
  1783                           
  1784                           ;E:/Universidad/Semestre2_2023/Digital-2/Proyecto1/Master/MasterPIC.X/I2C.c: 85:        
      +                           SSPCON2bits.ACKDT = 1;
  1785     067D  1683               	bsf	3,5	;RP0=1, select bank1
  1786     067E  1303               	bcf	3,6	;RP1=0, select bank1
  1787     067F  1691               	bsf	17,5	;volatile
  1788     0680                     l51:	
  1789                           ;E:/Universidad/Semestre2_2023/Digital-2/Proyecto1/Master/MasterPIC.X/I2C.c: 86:     }
  1790                           
  1791                           
  1792                           ;E:/Universidad/Semestre2_2023/Digital-2/Proyecto1/Master/MasterPIC.X/I2C.c: 87:     SSP
      +                          CON2bits.ACKEN = 1;
  1793     0680  1611               	bsf	17,4	;volatile
  1794     0681                     l1781:
  1795                           
  1796                           ;E:/Universidad/Semestre2_2023/Digital-2/Proyecto1/Master/MasterPIC.X/I2C.c: 88:     ret
      +                          urn temp;
  1797     0681  0877               	movf	I2C_Master_Read@temp+1,w
  1798     0682  00F3               	movwf	?_I2C_Master_Read+1
  1799     0683  0876               	movf	I2C_Master_Read@temp,w
  1800     0684  00F2               	movwf	?_I2C_Master_Read
  1801     0685                     l52:
  1802     0685  0008               	return
  1803     0686                     __end_of_I2C_Master_Read:
  1804                           
  1805                           	psect	text7
  1806     0752                     __ptext7:	
  1807 ;; *************** function _I2C_Master_Wait *****************
  1808 ;; Defined at:
  1809 ;;		line 32 in file "E:/Universidad/Semestre2_2023/Digital-2/Proyecto1/Master/MasterPIC.X/I2C.c"
  1810 ;; Parameters:    Size  Location     Type
  1811 ;;		None
  1812 ;; Auto vars:     Size  Location     Type
  1813 ;;		None
  1814 ;; Return value:  Size  Location     Type
  1815 ;;                  1    wreg      void 
  1816 ;; Registers used:
  1817 ;;		wreg, status,2
  1818 ;; Tracked objects:
  1819 ;;		On entry : 0/0
  1820 ;;		On exit  : 0/0
  1821 ;;		Unchanged: 0/0
  1822 ;; Data sizes:     COMMON   BANK0   BANK1   BANK3   BANK2
  1823 ;;      Params:         0       0       0       0       0
  1824 ;;      Locals:         0       0       0       0       0
  1825 ;;      Temps:          0       0       0       0       0
  1826 ;;      Totals:         0       0       0       0       0
  1827 ;;Total ram usage:        0 bytes
  1828 ;; Hardware stack levels used: 1
  1829 ;; Hardware stack levels required when called: 1
  1830 ;; This function calls:
  1831 ;;		Nothing
  1832 ;; This function is called by:
  1833 ;;		_I2C_Master_Start
  1834 ;;		_I2C_Master_Stop
  1835 ;;		_I2C_Master_Write
  1836 ;;		_I2C_Master_Read
  1837 ;;		_I2C_Master_RepeatedStart
  1838 ;; This function uses a non-reentrant model
  1839 ;;
  1840                           
  1841     0752                     _I2C_Master_Wait:	
  1842                           ;psect for function _I2C_Master_Wait
  1843                           
  1844     0752                     l1615:	
  1845                           ;incstack = 0
  1846                           ; Regs used in _I2C_Master_Wait: [wreg+status,2]
  1847                           
  1848     0752                     l32:	
  1849                           ;E:/Universidad/Semestre2_2023/Digital-2/Proyecto1/Master/MasterPIC.X/I2C.c: 34:     whi
      +                          le ((SSPSTAT & 0x04) || (SSPCON2 & 0x1F));
  1850                           
  1851     0752  1683               	bsf	3,5	;RP0=1, select bank1
  1852     0753  1303               	bcf	3,6	;RP1=0, select bank1
  1853     0754  1914               	btfsc	20,2	;volatile
  1854     0755  2F57               	goto	u761
  1855     0756  2F58               	goto	u760
  1856     0757                     u761:
  1857     0757  2F52               	goto	l32
  1858     0758                     u760:
  1859     0758                     l1617:
  1860     0758  0811               	movf	17,w	;volatile
  1861     0759  391F               	andlw	31
  1862     075A  1D03               	btfss	3,2
  1863     075B  2F5D               	goto	u771
  1864     075C  2F5E               	goto	u770
  1865     075D                     u771:
  1866     075D  2F52               	goto	l32
  1867     075E                     u770:
  1868     075E                     l35:
  1869     075E  0008               	return
  1870     075F                     __end_of_I2C_Master_Wait:
  1871                           
  1872                           	psect	text8
  1873     0531                     __ptext8:	
  1874 ;; *************** function _setup *****************
  1875 ;; Defined at:
  1876 ;;		line 149 in file "E:/Universidad/Semestre2_2023/Digital-2/Proyecto1/Master/MasterPIC.X/MasterPIC.c"
  1877 ;; Parameters:    Size  Location     Type
  1878 ;;		None
  1879 ;; Auto vars:     Size  Location     Type
  1880 ;;		None
  1881 ;; Return value:  Size  Location     Type
  1882 ;;                  1    wreg      void 
  1883 ;; Registers used:
  1884 ;;		wreg, status,2, status,0, btemp+1, pclath, cstack
  1885 ;; Tracked objects:
  1886 ;;		On entry : 0/0
  1887 ;;		On exit  : 0/0
  1888 ;;		Unchanged: 0/0
  1889 ;; Data sizes:     COMMON   BANK0   BANK1   BANK3   BANK2
  1890 ;;      Params:         0       0       0       0       0
  1891 ;;      Locals:         0       0       0       0       0
  1892 ;;      Temps:          0       0       0       0       0
  1893 ;;      Totals:         0       0       0       0       0
  1894 ;;Total ram usage:        0 bytes
  1895 ;; Hardware stack levels used: 1
  1896 ;; Hardware stack levels required when called: 4
  1897 ;; This function calls:
  1898 ;;		_I2C_Master_Init
  1899 ;;		_Lcd_Init
  1900 ;;		_ioc_init
  1901 ;; This function is called by:
  1902 ;;		_main
  1903 ;; This function uses a non-reentrant model
  1904 ;;
  1905                           
  1906     0531                     _setup:	
  1907                           ;psect for function _setup
  1908                           
  1909     0531                     l2241:	
  1910                           ;incstack = 0
  1911                           ; Regs used in _setup: [wreg+status,2+status,0+btemp+1+pclath+cstack]
  1912                           
  1913                           
  1914                           ;E:/Universidad/Semestre2_2023/Digital-2/Proyecto1/Master/MasterPIC.X/MasterPIC.c: 150: 
      +                                  OSCCONbits.IRCF = 0b111;
  1915     0531  3070               	movlw	112
  1916     0532  1683               	bsf	3,5	;RP0=1, select bank1
  1917     0533  1303               	bcf	3,6	;RP1=0, select bank1
  1918     0534  048F               	iorwf	15,f	;volatile
  1919     0535                     l2243:
  1920                           
  1921                           ;E:/Universidad/Semestre2_2023/Digital-2/Proyecto1/Master/MasterPIC.X/MasterPIC.c: 151: 
      +                                  OSCCONbits.SCS = 1;
  1922     0535  140F               	bsf	15,0	;volatile
  1923     0536                     l2245:
  1924                           
  1925                           ;E:/Universidad/Semestre2_2023/Digital-2/Proyecto1/Master/MasterPIC.X/MasterPIC.c: 154: 
      +                                  TXSTAbits.SYNC = 0;
  1926     0536  1218               	bcf	24,4	;volatile
  1927     0537                     l2247:
  1928                           
  1929                           ;E:/Universidad/Semestre2_2023/Digital-2/Proyecto1/Master/MasterPIC.X/MasterPIC.c: 155: 
      +                                  TXSTAbits.BRGH = 1;
  1930     0537  1518               	bsf	24,2	;volatile
  1931     0538                     l2249:
  1932                           
  1933                           ;E:/Universidad/Semestre2_2023/Digital-2/Proyecto1/Master/MasterPIC.X/MasterPIC.c: 157: 
      +                                  BAUDCTLbits.BRG16 = 1;
  1934     0538  1683               	bsf	3,5	;RP0=1, select bank3
  1935     0539  1703               	bsf	3,6	;RP1=1, select bank3
  1936     053A  1587               	bsf	7,3	;volatile
  1937     053B                     l2251:
  1938                           
  1939                           ;E:/Universidad/Semestre2_2023/Digital-2/Proyecto1/Master/MasterPIC.X/MasterPIC.c: 159: 
      +                                  SPBRG = 207;
  1940     053B  30CF               	movlw	207
  1941     053C  1683               	bsf	3,5	;RP0=1, select bank1
  1942     053D  1303               	bcf	3,6	;RP1=0, select bank1
  1943     053E  0099               	movwf	25	;volatile
  1944     053F                     l2253:
  1945                           
  1946                           ;E:/Universidad/Semestre2_2023/Digital-2/Proyecto1/Master/MasterPIC.X/MasterPIC.c: 160: 
      +                                  SPBRGH = 0;
  1947     053F  019A               	clrf	26	;volatile
  1948     0540                     l2255:
  1949                           
  1950                           ;E:/Universidad/Semestre2_2023/Digital-2/Proyecto1/Master/MasterPIC.X/MasterPIC.c: 162: 
      +                                  ANSEL = 0;
  1951     0540  1683               	bsf	3,5	;RP0=1, select bank3
  1952     0541  1703               	bsf	3,6	;RP1=1, select bank3
  1953     0542  0188               	clrf	8	;volatile
  1954     0543                     l2257:
  1955                           
  1956                           ;E:/Universidad/Semestre2_2023/Digital-2/Proyecto1/Master/MasterPIC.X/MasterPIC.c: 163: 
      +                                  ANSELH = 0;
  1957     0543  0189               	clrf	9	;volatile
  1958     0544                     l2259:
  1959                           
  1960                           ;E:/Universidad/Semestre2_2023/Digital-2/Proyecto1/Master/MasterPIC.X/MasterPIC.c: 165: 
      +                                  TRISC = 128;
  1961     0544  3080               	movlw	128
  1962     0545  1683               	bsf	3,5	;RP0=1, select bank1
  1963     0546  1303               	bcf	3,6	;RP1=0, select bank1
  1964     0547  0087               	movwf	7	;volatile
  1965     0548                     l2261:
  1966                           
  1967                           ;E:/Universidad/Semestre2_2023/Digital-2/Proyecto1/Master/MasterPIC.X/MasterPIC.c: 166: 
      +                                  TRISA = 0;
  1968     0548  0185               	clrf	5	;volatile
  1969     0549                     l2263:
  1970                           
  1971                           ;E:/Universidad/Semestre2_2023/Digital-2/Proyecto1/Master/MasterPIC.X/MasterPIC.c: 168: 
      +                                  TRISB = 1;
  1972     0549  3001               	movlw	1
  1973     054A  0086               	movwf	6	;volatile
  1974     054B                     l2265:
  1975                           
  1976                           ;E:/Universidad/Semestre2_2023/Digital-2/Proyecto1/Master/MasterPIC.X/MasterPIC.c: 169: 
      +                                  TRISD = 0;
  1977     054B  0188               	clrf	8	;volatile
  1978     054C                     l2267:
  1979                           
  1980                           ;E:/Universidad/Semestre2_2023/Digital-2/Proyecto1/Master/MasterPIC.X/MasterPIC.c: 171: 
      +                                  PORTA = 0;
  1981     054C  1283               	bcf	3,5	;RP0=0, select bank0
  1982     054D  1303               	bcf	3,6	;RP1=0, select bank0
  1983     054E  0185               	clrf	5	;volatile
  1984     054F                     l2269:
  1985                           
  1986                           ;E:/Universidad/Semestre2_2023/Digital-2/Proyecto1/Master/MasterPIC.X/MasterPIC.c: 172: 
      +                                  PORTB = 0;
  1987     054F  0186               	clrf	6	;volatile
  1988     0550                     l2271:
  1989                           
  1990                           ;E:/Universidad/Semestre2_2023/Digital-2/Proyecto1/Master/MasterPIC.X/MasterPIC.c: 173: 
      +                                  PORTC = 0;
  1991     0550  0187               	clrf	7	;volatile
  1992     0551                     l2273:
  1993                           
  1994                           ;E:/Universidad/Semestre2_2023/Digital-2/Proyecto1/Master/MasterPIC.X/MasterPIC.c: 174: 
      +                                  PORTD = 0;
  1995     0551  0188               	clrf	8	;volatile
  1996     0552                     l2275:
  1997                           
  1998                           ;E:/Universidad/Semestre2_2023/Digital-2/Proyecto1/Master/MasterPIC.X/MasterPIC.c: 176: 
      +                                  RCSTAbits.SPEN = 1;
  1999     0552  1798               	bsf	24,7	;volatile
  2000     0553                     l2277:
  2001                           
  2002                           ;E:/Universidad/Semestre2_2023/Digital-2/Proyecto1/Master/MasterPIC.X/MasterPIC.c: 177: 
      +                                  RCSTAbits.RX9 = 0;
  2003     0553  1318               	bcf	24,6	;volatile
  2004     0554                     l2279:
  2005                           
  2006                           ;E:/Universidad/Semestre2_2023/Digital-2/Proyecto1/Master/MasterPIC.X/MasterPIC.c: 178: 
      +                                  RCSTAbits.CREN = 1;
  2007     0554  1618               	bsf	24,4	;volatile
  2008     0555                     l2281:
  2009                           
  2010                           ;E:/Universidad/Semestre2_2023/Digital-2/Proyecto1/Master/MasterPIC.X/MasterPIC.c: 179: 
      +                                  TXSTAbits.TXEN = 1;
  2011     0555  1683               	bsf	3,5	;RP0=1, select bank1
  2012     0556  1303               	bcf	3,6	;RP1=0, select bank1
  2013     0557  1698               	bsf	24,5	;volatile
  2014     0558                     l2283:
  2015                           
  2016                           ;E:/Universidad/Semestre2_2023/Digital-2/Proyecto1/Master/MasterPIC.X/MasterPIC.c: 180: 
      +                                  ioc_init(1);
  2017     0558  3001               	movlw	1
  2018     0559  120A  118A  276C  120A  118A  	fcall	_ioc_init
  2019     055E                     l2285:
  2020                           
  2021                           ;E:/Universidad/Semestre2_2023/Digital-2/Proyecto1/Master/MasterPIC.X/MasterPIC.c: 182: 
      +                                  I2C_Master_Init(100000);
  2022     055E  3000               	movlw	0
  2023     055F  1283               	bcf	3,5	;RP0=0, select bank0
  2024     0560  1303               	bcf	3,6	;RP1=0, select bank0
  2025     0561  00C7               	movwf	I2C_Master_Init@c+3
  2026     0562  3001               	movlw	1
  2027     0563  00C6               	movwf	I2C_Master_Init@c+2
  2028     0564  3086               	movlw	134
  2029     0565  00C5               	movwf	I2C_Master_Init@c+1
  2030     0566  30A0               	movlw	160
  2031     0567  00C4               	movwf	I2C_Master_Init@c
  2032     0568  120A  118A  25ED  120A  118A  	fcall	_I2C_Master_Init
  2033     056D                     l2287:
  2034                           
  2035                           ;E:/Universidad/Semestre2_2023/Digital-2/Proyecto1/Master/MasterPIC.X/MasterPIC.c: 183: 
      +                                  Lcd_Init();
  2036     056D  120A  118A  2456  120A  118A  	fcall	_Lcd_Init
  2037     0572                     l201:
  2038     0572  0008               	return
  2039     0573                     __end_of_setup:
  2040                           
  2041                           	psect	text9
  2042     076C                     __ptext9:	
  2043 ;; *************** function _ioc_init *****************
  2044 ;; Defined at:
  2045 ;;		line 336 in file "E:/Universidad/Semestre2_2023/Digital-2/Proyecto1/Master/MasterPIC.X/MasterPIC.c"
  2046 ;; Parameters:    Size  Location     Type
  2047 ;;  pin             1    wreg     unsigned char 
  2048 ;; Auto vars:     Size  Location     Type
  2049 ;;  pin             1    0[COMMON] unsigned char 
  2050 ;; Return value:  Size  Location     Type
  2051 ;;                  1    wreg      void 
  2052 ;; Registers used:
  2053 ;;		wreg
  2054 ;; Tracked objects:
  2055 ;;		On entry : 0/0
  2056 ;;		On exit  : 0/0
  2057 ;;		Unchanged: 0/0
  2058 ;; Data sizes:     COMMON   BANK0   BANK1   BANK3   BANK2
  2059 ;;      Params:         0       0       0       0       0
  2060 ;;      Locals:         0       0       0       0       0
  2061 ;;      Temps:          0       0       0       0       0
  2062 ;;      Totals:         0       0       0       0       0
  2063 ;;Total ram usage:        0 bytes
  2064 ;; Hardware stack levels used: 1
  2065 ;; Hardware stack levels required when called: 1
  2066 ;; This function calls:
  2067 ;;		Nothing
  2068 ;; This function is called by:
  2069 ;;		_setup
  2070 ;; This function uses a non-reentrant model
  2071 ;;
  2072                           
  2073     076C                     _ioc_init:	
  2074                           ;psect for function _ioc_init
  2075                           
  2076     076C                     l1881:	
  2077                           ;incstack = 0
  2078                           ; Regs used in _ioc_init: [wreg]
  2079                           
  2080                           
  2081                           ;E:/Universidad/Semestre2_2023/Digital-2/Proyecto1/Master/MasterPIC.X/MasterPIC.c: 340: 
      +                                      INTCONbits.GIE = 1;
  2082     076C  178B               	bsf	11,7	;volatile
  2083                           
  2084                           ;E:/Universidad/Semestre2_2023/Digital-2/Proyecto1/Master/MasterPIC.X/MasterPIC.c: 341: 
      +                                      INTCONbits.RBIF = 0;
  2085     076D  100B               	bcf	11,0	;volatile
  2086                           
  2087                           ;E:/Universidad/Semestre2_2023/Digital-2/Proyecto1/Master/MasterPIC.X/MasterPIC.c: 342: 
      +                                      INTCONbits.RBIE = 1;
  2088     076E  158B               	bsf	11,3	;volatile
  2089                           
  2090                           ;E:/Universidad/Semestre2_2023/Digital-2/Proyecto1/Master/MasterPIC.X/MasterPIC.c: 345: 
      +                                      IOCBbits.IOCB0 = 1;
  2091     076F  1683               	bsf	3,5	;RP0=1, select bank1
  2092     0770  1303               	bcf	3,6	;RP1=0, select bank1
  2093     0771  1416               	bsf	22,0	;volatile
  2094                           
  2095                           ;E:/Universidad/Semestre2_2023/Digital-2/Proyecto1/Master/MasterPIC.X/MasterPIC.c: 346: 
      +                                      IOCBbits.IOCB1 = 1;
  2096     0772  1496               	bsf	22,1	;volatile
  2097                           
  2098                           ;E:/Universidad/Semestre2_2023/Digital-2/Proyecto1/Master/MasterPIC.X/MasterPIC.c: 348: 
      +                                      OPTION_REGbits.nRBPU = 0;
  2099     0773  1381               	bcf	1,7	;volatile
  2100                           
  2101                           ;E:/Universidad/Semestre2_2023/Digital-2/Proyecto1/Master/MasterPIC.X/MasterPIC.c: 350: 
      +                                      WPUBbits.WPUB0 = 1;
  2102     0774  1415               	bsf	21,0	;volatile
  2103                           
  2104                           ;E:/Universidad/Semestre2_2023/Digital-2/Proyecto1/Master/MasterPIC.X/MasterPIC.c: 351: 
      +                                      WPUBbits.WPUB1 = 1;
  2105     0775  1495               	bsf	21,1	;volatile
  2106     0776                     l232:
  2107     0776  0008               	return
  2108     0777                     __end_of_ioc_init:
  2109                           
  2110                           	psect	text10
  2111     0456                     __ptext10:	
  2112 ;; *************** function _Lcd_Init *****************
  2113 ;; Defined at:
  2114 ;;		line 80 in file "E:/Universidad/Semestre2_2023/Digital-2/Proyecto1/Master/MasterPIC.X/LCD.c"
  2115 ;; Parameters:    Size  Location     Type
  2116 ;;		None
  2117 ;; Auto vars:     Size  Location     Type
  2118 ;;		None
  2119 ;; Return value:  Size  Location     Type
  2120 ;;                  1    wreg      void 
  2121 ;; Registers used:
  2122 ;;		wreg, status,2, status,0, pclath, cstack
  2123 ;; Tracked objects:
  2124 ;;		On entry : 0/0
  2125 ;;		On exit  : 0/0
  2126 ;;		Unchanged: 0/0
  2127 ;; Data sizes:     COMMON   BANK0   BANK1   BANK3   BANK2
  2128 ;;      Params:         0       0       0       0       0
  2129 ;;      Locals:         0       0       0       0       0
  2130 ;;      Temps:          2       0       0       0       0
  2131 ;;      Totals:         2       0       0       0       0
  2132 ;;Total ram usage:        2 bytes
  2133 ;; Hardware stack levels used: 1
  2134 ;; Hardware stack levels required when called: 3
  2135 ;; This function calls:
  2136 ;;		_Lcd_Cmd
  2137 ;;		_Lcd_Port
  2138 ;; This function is called by:
  2139 ;;		_setup
  2140 ;; This function uses a non-reentrant model
  2141 ;;
  2142                           
  2143     0456                     _Lcd_Init:	
  2144                           ;psect for function _Lcd_Init
  2145                           
  2146     0456                     l2213:	
  2147                           ;incstack = 0
  2148                           ; Regs used in _Lcd_Init: [wreg+status,2+status,0+pclath+cstack]
  2149                           
  2150                           
  2151                           ;E:/Universidad/Semestre2_2023/Digital-2/Proyecto1/Master/MasterPIC.X/LCD.c: 81:     Lcd
      +                          _Port(0);
  2152     0456  3000               	movlw	0
  2153     0457  120A  118A  2573  120A  118A  	fcall	_Lcd_Port
  2154     045C                     l2215:
  2155                           
  2156                           ;E:/Universidad/Semestre2_2023/Digital-2/Proyecto1/Master/MasterPIC.X/LCD.c: 82:     _de
      +                          lay((unsigned long)((20)*(8000000/4000.0)));
  2157     045C  3034               	movlw	52
  2158     045D  00F7               	movwf	??_Lcd_Init+1
  2159     045E  30F1               	movlw	241
  2160     045F  00F6               	movwf	??_Lcd_Init
  2161     0460                     u1617:
  2162     0460  0BF6               	decfsz	??_Lcd_Init,f
  2163     0461  2C60               	goto	u1617
  2164     0462  0BF7               	decfsz	??_Lcd_Init+1,f
  2165     0463  2C60               	goto	u1617
  2166     0464  2C65               	nop2
  2167     0465                     l2217:
  2168                           
  2169                           ;E:/Universidad/Semestre2_2023/Digital-2/Proyecto1/Master/MasterPIC.X/LCD.c: 83:     Lcd
      +                          _Cmd(48);
  2170     0465  3030               	movlw	48
  2171     0466  120A  118A  26EB  120A  118A  	fcall	_Lcd_Cmd
  2172                           
  2173                           ;E:/Universidad/Semestre2_2023/Digital-2/Proyecto1/Master/MasterPIC.X/LCD.c: 84:     _de
      +                          lay((unsigned long)((5)*(8000000/4000.0)));
  2174     046B  300D               	movlw	13
  2175     046C  00F7               	movwf	??_Lcd_Init+1
  2176     046D  30FB               	movlw	251
  2177     046E  00F6               	movwf	??_Lcd_Init
  2178     046F                     u1627:
  2179     046F  0BF6               	decfsz	??_Lcd_Init,f
  2180     0470  2C6F               	goto	u1627
  2181     0471  0BF7               	decfsz	??_Lcd_Init+1,f
  2182     0472  2C6F               	goto	u1627
  2183     0473  2C74               	nop2
  2184     0474                     l2219:
  2185                           
  2186                           ;E:/Universidad/Semestre2_2023/Digital-2/Proyecto1/Master/MasterPIC.X/LCD.c: 85:     Lcd
      +                          _Cmd(48);
  2187     0474  3030               	movlw	48
  2188     0475  120A  118A  26EB  120A  118A  	fcall	_Lcd_Cmd
  2189     047A                     l2221:
  2190                           
  2191                           ;E:/Universidad/Semestre2_2023/Digital-2/Proyecto1/Master/MasterPIC.X/LCD.c: 86:     _de
      +                          lay((unsigned long)((11)*(8000000/4000.0)));
  2192     047A  301D               	movlw	29
  2193     047B  00F7               	movwf	??_Lcd_Init+1
  2194     047C  3091               	movlw	145
  2195     047D  00F6               	movwf	??_Lcd_Init
  2196     047E                     u1637:
  2197     047E  0BF6               	decfsz	??_Lcd_Init,f
  2198     047F  2C7E               	goto	u1637
  2199     0480  0BF7               	decfsz	??_Lcd_Init+1,f
  2200     0481  2C7E               	goto	u1637
  2201                           
  2202                           ;E:/Universidad/Semestre2_2023/Digital-2/Proyecto1/Master/MasterPIC.X/LCD.c: 87:     Lcd
      +                          _Cmd(48);
  2203     0482  3030               	movlw	48
  2204     0483  120A  118A  26EB  120A  118A  	fcall	_Lcd_Cmd
  2205                           
  2206                           ;E:/Universidad/Semestre2_2023/Digital-2/Proyecto1/Master/MasterPIC.X/LCD.c: 89:     Lcd
      +                          _Cmd(56);
  2207     0488  3038               	movlw	56
  2208     0489  120A  118A  26EB  120A  118A  	fcall	_Lcd_Cmd
  2209                           
  2210                           ;E:/Universidad/Semestre2_2023/Digital-2/Proyecto1/Master/MasterPIC.X/LCD.c: 90:     Lcd
      +                          _Cmd(8);
  2211     048E  3008               	movlw	8
  2212     048F  120A  118A  26EB  120A  118A  	fcall	_Lcd_Cmd
  2213                           
  2214                           ;E:/Universidad/Semestre2_2023/Digital-2/Proyecto1/Master/MasterPIC.X/LCD.c: 91:     Lcd
      +                          _Cmd(1);
  2215     0494  3001               	movlw	1
  2216     0495  120A  118A  26EB  120A  118A  	fcall	_Lcd_Cmd
  2217                           
  2218                           ;E:/Universidad/Semestre2_2023/Digital-2/Proyecto1/Master/MasterPIC.X/LCD.c: 92:     Lcd
      +                          _Cmd(6);
  2219     049A  3006               	movlw	6
  2220     049B  120A  118A  26EB  120A  118A  	fcall	_Lcd_Cmd
  2221                           
  2222                           ;E:/Universidad/Semestre2_2023/Digital-2/Proyecto1/Master/MasterPIC.X/LCD.c: 93:     Lcd
      +                          _Cmd(12);
  2223     04A0  300C               	movlw	12
  2224     04A1  120A  118A  26EB  120A  118A  	fcall	_Lcd_Cmd
  2225     04A6                     l290:
  2226     04A6  0008               	return
  2227     04A7                     __end_of_Lcd_Init:
  2228                           
  2229                           	psect	text11
  2230     05ED                     __ptext11:	
  2231 ;; *************** function _I2C_Master_Init *****************
  2232 ;; Defined at:
  2233 ;;		line 16 in file "E:/Universidad/Semestre2_2023/Digital-2/Proyecto1/Master/MasterPIC.X/I2C.c"
  2234 ;; Parameters:    Size  Location     Type
  2235 ;;  c               4    6[BANK0 ] const unsigned long 
  2236 ;; Auto vars:     Size  Location     Type
  2237 ;;		None
  2238 ;; Return value:  Size  Location     Type
  2239 ;;                  1    wreg      void 
  2240 ;; Registers used:
  2241 ;;		wreg, status,2, status,0, btemp+1, pclath, cstack
  2242 ;; Tracked objects:
  2243 ;;		On entry : 0/0
  2244 ;;		On exit  : 0/0
  2245 ;;		Unchanged: 0/0
  2246 ;; Data sizes:     COMMON   BANK0   BANK1   BANK3   BANK2
  2247 ;;      Params:         0       4       0       0       0
  2248 ;;      Locals:         0       0       0       0       0
  2249 ;;      Temps:          0       4       0       0       0
  2250 ;;      Totals:         0       8       0       0       0
  2251 ;;Total ram usage:        8 bytes
  2252 ;; Hardware stack levels used: 1
  2253 ;; Hardware stack levels required when called: 2
  2254 ;; This function calls:
  2255 ;;		___lldiv
  2256 ;; This function is called by:
  2257 ;;		_setup
  2258 ;; This function uses a non-reentrant model
  2259 ;;
  2260                           
  2261     05ED                     _I2C_Master_Init:	
  2262                           ;psect for function _I2C_Master_Init
  2263                           
  2264     05ED                     l2201:	
  2265                           ;incstack = 0
  2266                           ; Regs used in _I2C_Master_Init: [wreg+status,2+status,0+btemp+1+pclath+cstack]
  2267                           
  2268                           
  2269                           ;E:/Universidad/Semestre2_2023/Digital-2/Proyecto1/Master/MasterPIC.X/I2C.c: 16: void I2
      +                          C_Master_Init(const unsigned long c);E:/Universidad/Semestre2_2023/Digital-2/Proyecto1/M
      +                          aster/MasterPIC.X/I2C.c: 17: {;E:/Universidad/Semestre2_2023/Digital-2/Proyecto1/Master/
      +                          MasterPIC.X/I2C.c: 18:     SSPCON = 0b00101000;
  2270     05ED  3028               	movlw	40
  2271     05EE  1283               	bcf	3,5	;RP0=0, select bank0
  2272     05EF  1303               	bcf	3,6	;RP1=0, select bank0
  2273     05F0  0094               	movwf	20	;volatile
  2274     05F1                     l2203:
  2275                           
  2276                           ;E:/Universidad/Semestre2_2023/Digital-2/Proyecto1/Master/MasterPIC.X/I2C.c: 19:     SSP
      +                          CON2 = 0;
  2277     05F1  1683               	bsf	3,5	;RP0=1, select bank1
  2278     05F2  1303               	bcf	3,6	;RP1=0, select bank1
  2279     05F3  0191               	clrf	17	;volatile
  2280     05F4                     l2205:
  2281                           
  2282                           ;E:/Universidad/Semestre2_2023/Digital-2/Proyecto1/Master/MasterPIC.X/I2C.c: 20:     SSP
      +                          ADD = (8000000/(4*c))-1;
  2283     05F4  1283               	bcf	3,5	;RP0=0, select bank0
  2284     05F5  1303               	bcf	3,6	;RP1=0, select bank0
  2285     05F6  0844               	movf	I2C_Master_Init@c,w
  2286     05F7  00C8               	movwf	??_I2C_Master_Init
  2287     05F8  0845               	movf	I2C_Master_Init@c+1,w
  2288     05F9  00C9               	movwf	??_I2C_Master_Init+1
  2289     05FA  0846               	movf	I2C_Master_Init@c+2,w
  2290     05FB  00CA               	movwf	??_I2C_Master_Init+2
  2291     05FC  0847               	movf	I2C_Master_Init@c+3,w
  2292     05FD  00CB               	movwf	??_I2C_Master_Init+3
  2293     05FE  3002               	movlw	2
  2294     05FF                     u1525:
  2295     05FF  1003               	clrc
  2296     0600  0DC8               	rlf	??_I2C_Master_Init,f
  2297     0601  0DC9               	rlf	??_I2C_Master_Init+1,f
  2298     0602  0DCA               	rlf	??_I2C_Master_Init+2,f
  2299     0603  0DCB               	rlf	??_I2C_Master_Init+3,f
  2300     0604                     u1520:
  2301     0604  3EFF               	addlw	-1
  2302     0605  1D03               	skipz
  2303     0606  2DFF               	goto	u1525
  2304     0607  084B               	movf	??_I2C_Master_Init+3,w
  2305     0608  00F5               	movwf	___lldiv@divisor+3
  2306     0609  084A               	movf	??_I2C_Master_Init+2,w
  2307     060A  00F4               	movwf	___lldiv@divisor+2
  2308     060B  0849               	movf	??_I2C_Master_Init+1,w
  2309     060C  00F3               	movwf	___lldiv@divisor+1
  2310     060D  0848               	movf	??_I2C_Master_Init,w
  2311     060E  00F2               	movwf	___lldiv@divisor
  2312     060F  3000               	movlw	0
  2313     0610  00F9               	movwf	___lldiv@dividend+3
  2314     0611  307A               	movlw	122
  2315     0612  00F8               	movwf	___lldiv@dividend+2
  2316     0613  3012               	movlw	18
  2317     0614  00F7               	movwf	___lldiv@dividend+1
  2318     0615  3000               	movlw	0
  2319     0616  00F6               	movwf	___lldiv@dividend
  2320     0617  120A  118A  2287  120A  118A  	fcall	___lldiv
  2321     061C  0872               	movf	?___lldiv,w
  2322     061D  3EFF               	addlw	255
  2323     061E  1683               	bsf	3,5	;RP0=1, select bank1
  2324     061F  1303               	bcf	3,6	;RP1=0, select bank1
  2325     0620  0093               	movwf	19	;volatile
  2326     0621                     l2207:
  2327                           
  2328                           ;E:/Universidad/Semestre2_2023/Digital-2/Proyecto1/Master/MasterPIC.X/I2C.c: 21:     SSP
      +                          STAT = 0;
  2329     0621  0194               	clrf	20	;volatile
  2330     0622                     l2209:
  2331                           
  2332                           ;E:/Universidad/Semestre2_2023/Digital-2/Proyecto1/Master/MasterPIC.X/I2C.c: 22:     TRI
      +                          SCbits.TRISC3 = 1;
  2333     0622  1587               	bsf	7,3	;volatile
  2334     0623                     l2211:
  2335                           
  2336                           ;E:/Universidad/Semestre2_2023/Digital-2/Proyecto1/Master/MasterPIC.X/I2C.c: 23:     TRI
      +                          SCbits.TRISC4 = 1;
  2337     0623  1607               	bsf	7,4	;volatile
  2338     0624                     l29:
  2339     0624  0008               	return
  2340     0625                     __end_of_I2C_Master_Init:
  2341                           
  2342                           	psect	text12
  2343     0287                     __ptext12:	
  2344 ;; *************** function ___lldiv *****************
  2345 ;; Defined at:
  2346 ;;		line 5 in file "C:\Program Files\Microchip\xc8\v2.41\pic\sources\c90\common\__lldiv.c"
  2347 ;; Parameters:    Size  Location     Type
  2348 ;;  divisor         4    2[COMMON] unsigned long 
  2349 ;;  dividend        4    6[COMMON] unsigned long 
  2350 ;; Auto vars:     Size  Location     Type
  2351 ;;  quotient        4    1[BANK0 ] unsigned long 
  2352 ;;  counter         1    5[BANK0 ] unsigned char 
  2353 ;; Return value:  Size  Location     Type
  2354 ;;                  4    2[COMMON] unsigned long 
  2355 ;; Registers used:
  2356 ;;		wreg, status,2, status,0, btemp+1
  2357 ;; Tracked objects:
  2358 ;;		On entry : 0/0
  2359 ;;		On exit  : 0/0
  2360 ;;		Unchanged: 0/0
  2361 ;; Data sizes:     COMMON   BANK0   BANK1   BANK3   BANK2
  2362 ;;      Params:         8       0       0       0       0
  2363 ;;      Locals:         0       5       0       0       0
  2364 ;;      Temps:          0       1       0       0       0
  2365 ;;      Totals:         8       6       0       0       0
  2366 ;;Total ram usage:       14 bytes
  2367 ;; Hardware stack levels used: 1
  2368 ;; Hardware stack levels required when called: 1
  2369 ;; This function calls:
  2370 ;;		Nothing
  2371 ;; This function is called by:
  2372 ;;		_I2C_Master_Init
  2373 ;; This function uses a non-reentrant model
  2374 ;;
  2375                           
  2376     0287                     ___lldiv:	
  2377                           ;psect for function ___lldiv
  2378                           
  2379     0287                     l2175:	
  2380                           ;incstack = 0
  2381                           ; Regs used in ___lldiv: [wreg+status,2+status,0+btemp+1]
  2382                           
  2383     0287  3000               	movlw	0
  2384     0288  1283               	bcf	3,5	;RP0=0, select bank0
  2385     0289  1303               	bcf	3,6	;RP1=0, select bank0
  2386     028A  00C2               	movwf	___lldiv@quotient+3
  2387     028B  3000               	movlw	0
  2388     028C  00C1               	movwf	___lldiv@quotient+2
  2389     028D  3000               	movlw	0
  2390     028E  00C0               	movwf	___lldiv@quotient+1
  2391     028F  3000               	movlw	0
  2392     0290  00BF               	movwf	___lldiv@quotient
  2393     0291  0875               	movf	___lldiv@divisor+3,w
  2394     0292  0474               	iorwf	___lldiv@divisor+2,w
  2395     0293  0473               	iorwf	___lldiv@divisor+1,w
  2396     0294  0472               	iorwf	___lldiv@divisor,w
  2397     0295  1903               	skipnz
  2398     0296  2A98               	goto	u1451
  2399     0297  2A99               	goto	u1450
  2400     0298                     u1451:
  2401     0298  2AE6               	goto	l2197
  2402     0299                     u1450:
  2403     0299                     l2177:
  2404     0299  01C3               	clrf	___lldiv@counter
  2405     029A  0AC3               	incf	___lldiv@counter,f
  2406     029B  2AA9               	goto	l2183
  2407     029C                     l2179:
  2408     029C  3001               	movlw	1
  2409     029D  00BE               	movwf	??___lldiv
  2410     029E                     u1465:
  2411     029E  1003               	clrc
  2412     029F  0DF2               	rlf	___lldiv@divisor,f
  2413     02A0  0DF3               	rlf	___lldiv@divisor+1,f
  2414     02A1  0DF4               	rlf	___lldiv@divisor+2,f
  2415     02A2  0DF5               	rlf	___lldiv@divisor+3,f
  2416     02A3  0BBE               	decfsz	??___lldiv,f
  2417     02A4  2A9E               	goto	u1465
  2418     02A5                     l2181:
  2419     02A5  3001               	movlw	1
  2420     02A6  00FF               	movwf	btemp+1
  2421     02A7  087F               	movf	btemp+1,w
  2422     02A8  07C3               	addwf	___lldiv@counter,f
  2423     02A9                     l2183:
  2424     02A9  1FF5               	btfss	___lldiv@divisor+3,7
  2425     02AA  2AAC               	goto	u1471
  2426     02AB  2AAD               	goto	u1470
  2427     02AC                     u1471:
  2428     02AC  2A9C               	goto	l2179
  2429     02AD                     u1470:
  2430     02AD                     l2185:
  2431     02AD  3001               	movlw	1
  2432     02AE  00BE               	movwf	??___lldiv
  2433     02AF                     u1485:
  2434     02AF  1003               	clrc
  2435     02B0  0DBF               	rlf	___lldiv@quotient,f
  2436     02B1  0DC0               	rlf	___lldiv@quotient+1,f
  2437     02B2  0DC1               	rlf	___lldiv@quotient+2,f
  2438     02B3  0DC2               	rlf	___lldiv@quotient+3,f
  2439     02B4  0BBE               	decfsz	??___lldiv,f
  2440     02B5  2AAF               	goto	u1485
  2441     02B6                     l2187:
  2442     02B6  0875               	movf	___lldiv@divisor+3,w
  2443     02B7  0279               	subwf	___lldiv@dividend+3,w
  2444     02B8  1D03               	skipz
  2445     02B9  2AC4               	goto	u1495
  2446     02BA  0874               	movf	___lldiv@divisor+2,w
  2447     02BB  0278               	subwf	___lldiv@dividend+2,w
  2448     02BC  1D03               	skipz
  2449     02BD  2AC4               	goto	u1495
  2450     02BE  0873               	movf	___lldiv@divisor+1,w
  2451     02BF  0277               	subwf	___lldiv@dividend+1,w
  2452     02C0  1D03               	skipz
  2453     02C1  2AC4               	goto	u1495
  2454     02C2  0872               	movf	___lldiv@divisor,w
  2455     02C3  0276               	subwf	___lldiv@dividend,w
  2456     02C4                     u1495:
  2457     02C4  1C03               	skipc
  2458     02C5  2AC7               	goto	u1491
  2459     02C6  2AC8               	goto	u1490
  2460     02C7                     u1491:
  2461     02C7  2AD7               	goto	l2193
  2462     02C8                     u1490:
  2463     02C8                     l2189:
  2464     02C8  0872               	movf	___lldiv@divisor,w
  2465     02C9  02F6               	subwf	___lldiv@dividend,f
  2466     02CA  0873               	movf	___lldiv@divisor+1,w
  2467     02CB  1C03               	skipc
  2468     02CC  0F73               	incfsz	___lldiv@divisor+1,w
  2469     02CD  02F7               	subwf	___lldiv@dividend+1,f
  2470     02CE  0874               	movf	___lldiv@divisor+2,w
  2471     02CF  1C03               	skipc
  2472     02D0  0F74               	incfsz	___lldiv@divisor+2,w
  2473     02D1  02F8               	subwf	___lldiv@dividend+2,f
  2474     02D2  0875               	movf	___lldiv@divisor+3,w
  2475     02D3  1C03               	skipc
  2476     02D4  0F75               	incfsz	___lldiv@divisor+3,w
  2477     02D5  02F9               	subwf	___lldiv@dividend+3,f
  2478     02D6                     l2191:
  2479     02D6  143F               	bsf	___lldiv@quotient,0
  2480     02D7                     l2193:
  2481     02D7  3001               	movlw	1
  2482     02D8                     u1505:
  2483     02D8  1003               	clrc
  2484     02D9  0CF5               	rrf	___lldiv@divisor+3,f
  2485     02DA  0CF4               	rrf	___lldiv@divisor+2,f
  2486     02DB  0CF3               	rrf	___lldiv@divisor+1,f
  2487     02DC  0CF2               	rrf	___lldiv@divisor,f
  2488     02DD  3EFF               	addlw	-1
  2489     02DE  1D03               	skipz
  2490     02DF  2AD8               	goto	u1505
  2491     02E0                     l2195:
  2492     02E0  3001               	movlw	1
  2493     02E1  02C3               	subwf	___lldiv@counter,f
  2494     02E2  1D03               	btfss	3,2
  2495     02E3  2AE5               	goto	u1511
  2496     02E4  2AE6               	goto	u1510
  2497     02E5                     u1511:
  2498     02E5  2AAD               	goto	l2185
  2499     02E6                     u1510:
  2500     02E6                     l2197:
  2501     02E6  0842               	movf	___lldiv@quotient+3,w
  2502     02E7  00F5               	movwf	?___lldiv+3
  2503     02E8  0841               	movf	___lldiv@quotient+2,w
  2504     02E9  00F4               	movwf	?___lldiv+2
  2505     02EA  0840               	movf	___lldiv@quotient+1,w
  2506     02EB  00F3               	movwf	?___lldiv+1
  2507     02EC  083F               	movf	___lldiv@quotient,w
  2508     02ED  00F2               	movwf	?___lldiv
  2509     02EE                     l522:
  2510     02EE  0008               	return
  2511     02EF                     __end_of___lldiv:
  2512                           
  2513                           	psect	text13
  2514     0686                     __ptext13:	
  2515 ;; *************** function _enviocadena *****************
  2516 ;; Defined at:
  2517 ;;		line 49 in file "E:/Universidad/Semestre2_2023/Digital-2/Proyecto1/Master/MasterPIC.X/USART.c"
  2518 ;; Parameters:    Size  Location     Type
  2519 ;;  cadena          2    3[COMMON] PTR unsigned char 
  2520 ;;		 -> RAM(512), 
  2521 ;; Auto vars:     Size  Location     Type
  2522 ;;		None
  2523 ;; Return value:  Size  Location     Type
  2524 ;;                  1    wreg      void 
  2525 ;; Registers used:
  2526 ;;		wreg, fsr0l, fsr0h, status,2, status,0, pclath, cstack
  2527 ;; Tracked objects:
  2528 ;;		On entry : 0/0
  2529 ;;		On exit  : 0/0
  2530 ;;		Unchanged: 0/0
  2531 ;; Data sizes:     COMMON   BANK0   BANK1   BANK3   BANK2
  2532 ;;      Params:         2       0       0       0       0
  2533 ;;      Locals:         0       0       0       0       0
  2534 ;;      Temps:          0       0       0       0       0
  2535 ;;      Totals:         2       0       0       0       0
  2536 ;;Total ram usage:        2 bytes
  2537 ;; Hardware stack levels used: 1
  2538 ;; Hardware stack levels required when called: 2
  2539 ;; This function calls:
  2540 ;;		_enviocaracter
  2541 ;; This function is called by:
  2542 ;;		_main
  2543 ;; This function uses a non-reentrant model
  2544 ;;
  2545                           
  2546     0686                     _enviocadena:	
  2547                           ;psect for function _enviocadena
  2548                           
  2549     0686                     l2035:	
  2550                           ;incstack = 0
  2551                           ; Regs used in _enviocadena: [wreg-fsr0h+status,2+status,0+pclath+cstack]
  2552                           
  2553                           
  2554                           ;E:/Universidad/Semestre2_2023/Digital-2/Proyecto1/Master/MasterPIC.X/USART.c: 50:     w
      +                          hile (*cadena != 0){
  2555     0686  2E98               	goto	l2041
  2556     0687                     l2037:
  2557                           
  2558                           ;E:/Universidad/Semestre2_2023/Digital-2/Proyecto1/Master/MasterPIC.X/USART.c: 51:      
      +                           enviocaracter(*cadena);
  2559     0687  0873               	movf	enviocadena@cadena,w
  2560     0688  0084               	movwf	4
  2561     0689  1783               	bsf	3,7
  2562     068A  1C74               	btfss	enviocadena@cadena+1,0
  2563     068B  1383               	bcf	3,7
  2564     068C  0800               	movf	0,w
  2565     068D  120A  118A  2742  120A  118A  	fcall	_enviocaracter
  2566     0692                     l2039:
  2567                           
  2568                           ;E:/Universidad/Semestre2_2023/Digital-2/Proyecto1/Master/MasterPIC.X/USART.c: 52:      
      +                           cadena++;
  2569     0692  3001               	movlw	1
  2570     0693  07F3               	addwf	enviocadena@cadena,f
  2571     0694  1803               	skipnc
  2572     0695  0AF4               	incf	enviocadena@cadena+1,f
  2573     0696  3000               	movlw	0
  2574     0697  07F4               	addwf	enviocadena@cadena+1,f
  2575     0698                     l2041:
  2576                           
  2577                           ;E:/Universidad/Semestre2_2023/Digital-2/Proyecto1/Master/MasterPIC.X/USART.c: 50:     w
      +                          hile (*cadena != 0){
  2578     0698  0873               	movf	enviocadena@cadena,w
  2579     0699  0084               	movwf	4
  2580     069A  1783               	bsf	3,7
  2581     069B  1C74               	btfss	enviocadena@cadena+1,0
  2582     069C  1383               	bcf	3,7
  2583     069D  0800               	movf	0,w
  2584     069E  1D03               	btfss	3,2
  2585     069F  2EA1               	goto	u1261
  2586     06A0  2EA2               	goto	u1260
  2587     06A1                     u1261:
  2588     06A1  2E87               	goto	l2037
  2589     06A2                     u1260:
  2590     06A2                     l352:
  2591                           
  2592                           ;E:/Universidad/Semestre2_2023/Digital-2/Proyecto1/Master/MasterPIC.X/USART.c: 54:     i
      +                          f (PIR1bits.TXIF){
  2593     06A2  1283               	bcf	3,5	;RP0=0, select bank0
  2594     06A3  1303               	bcf	3,6	;RP1=0, select bank0
  2595     06A4  1E0C               	btfss	12,4	;volatile
  2596     06A5  2EA7               	goto	u1271
  2597     06A6  2EA8               	goto	u1270
  2598     06A7                     u1271:
  2599     06A7  2EAA               	goto	l354
  2600     06A8                     u1270:
  2601     06A8                     l2043:
  2602                           
  2603                           ;E:/Universidad/Semestre2_2023/Digital-2/Proyecto1/Master/MasterPIC.X/USART.c: 55:      
      +                                 TXREG = 13;
  2604     06A8  300D               	movlw	13
  2605     06A9  0099               	movwf	25	;volatile
  2606     06AA                     l354:
  2607     06AA  0008               	return
  2608     06AB                     __end_of_enviocadena:
  2609                           
  2610                           	psect	text14
  2611     0742                     __ptext14:	
  2612 ;; *************** function _enviocaracter *****************
  2613 ;; Defined at:
  2614 ;;		line 40 in file "E:/Universidad/Semestre2_2023/Digital-2/Proyecto1/Master/MasterPIC.X/USART.c"
  2615 ;; Parameters:    Size  Location     Type
  2616 ;;  a               1    wreg     unsigned char 
  2617 ;; Auto vars:     Size  Location     Type
  2618 ;;  a               1    2[COMMON] unsigned char 
  2619 ;; Return value:  Size  Location     Type
  2620 ;;                  1    wreg      void 
  2621 ;; Registers used:
  2622 ;;		wreg
  2623 ;; Tracked objects:
  2624 ;;		On entry : 0/0
  2625 ;;		On exit  : 0/0
  2626 ;;		Unchanged: 0/0
  2627 ;; Data sizes:     COMMON   BANK0   BANK1   BANK3   BANK2
  2628 ;;      Params:         0       0       0       0       0
  2629 ;;      Locals:         1       0       0       0       0
  2630 ;;      Temps:          0       0       0       0       0
  2631 ;;      Totals:         1       0       0       0       0
  2632 ;;Total ram usage:        1 bytes
  2633 ;; Hardware stack levels used: 1
  2634 ;; Hardware stack levels required when called: 1
  2635 ;; This function calls:
  2636 ;;		Nothing
  2637 ;; This function is called by:
  2638 ;;		_main
  2639 ;;		_enviocadena
  2640 ;; This function uses a non-reentrant model
  2641 ;;
  2642                           
  2643     0742                     _enviocaracter:	
  2644                           ;psect for function _enviocaracter
  2645                           
  2646                           
  2647                           ;incstack = 0
  2648                           ; Regs used in _enviocaracter: [wreg]
  2649                           ;enviocaracter@a stored from wreg
  2650     0742  00F2               	movwf	enviocaracter@a
  2651     0743                     l1877:
  2652     0743                     l343:	
  2653                           ;E:/Universidad/Semestre2_2023/Digital-2/Proyecto1/Master/MasterPIC.X/USART.c: 43:     }
  2654                           
  2655                           
  2656                           ;E:/Universidad/Semestre2_2023/Digital-2/Proyecto1/Master/MasterPIC.X/USART.c: 41:     w
      +                          hile (TXSTAbits.TRMT == 0){
  2657     0743  1683               	bsf	3,5	;RP0=1, select bank1
  2658     0744  1303               	bcf	3,6	;RP1=0, select bank1
  2659     0745  1C98               	btfss	24,1	;volatile
  2660     0746  2F48               	goto	u1221
  2661     0747  2F49               	goto	u1220
  2662     0748                     u1221:
  2663     0748  2F43               	goto	l343
  2664     0749                     u1220:
  2665     0749                     l345:
  2666                           
  2667                           ;E:/Universidad/Semestre2_2023/Digital-2/Proyecto1/Master/MasterPIC.X/USART.c: 44:     i
      +                          f (PIR1bits.TXIF){
  2668     0749  1283               	bcf	3,5	;RP0=0, select bank0
  2669     074A  1303               	bcf	3,6	;RP1=0, select bank0
  2670     074B  1E0C               	btfss	12,4	;volatile
  2671     074C  2F4E               	goto	u1231
  2672     074D  2F4F               	goto	u1230
  2673     074E                     u1231:
  2674     074E  2F51               	goto	l347
  2675     074F                     u1230:
  2676     074F                     l1879:
  2677                           
  2678                           ;E:/Universidad/Semestre2_2023/Digital-2/Proyecto1/Master/MasterPIC.X/USART.c: 45:      
      +                                 TXREG = a;
  2679     074F  0872               	movf	enviocaracter@a,w
  2680     0750  0099               	movwf	25	;volatile
  2681     0751                     l347:
  2682     0751  0008               	return
  2683     0752                     __end_of_enviocaracter:
  2684                           
  2685                           	psect	text15
  2686     020D                     __ptext15:	
  2687 ;; *************** function _LCDprint *****************
  2688 ;; Defined at:
  2689 ;;		line 243 in file "E:/Universidad/Semestre2_2023/Digital-2/Proyecto1/Master/MasterPIC.X/MasterPIC.c"
  2690 ;; Parameters:    Size  Location     Type
  2691 ;;		None
  2692 ;; Auto vars:     Size  Location     Type
  2693 ;;		None
  2694 ;; Return value:  Size  Location     Type
  2695 ;;                  1    wreg      void 
  2696 ;; Registers used:
  2697 ;;		wreg, fsr0l, fsr0h, status,2, status,0, btemp+1, pclath, cstack
  2698 ;; Tracked objects:
  2699 ;;		On entry : 0/0
  2700 ;;		On exit  : 0/0
  2701 ;;		Unchanged: 0/0
  2702 ;; Data sizes:     COMMON   BANK0   BANK1   BANK3   BANK2
  2703 ;;      Params:         0       0       0       0       0
  2704 ;;      Locals:         0       0       0       0       0
  2705 ;;      Temps:          0       2       0       0       0
  2706 ;;      Totals:         0       2       0       0       0
  2707 ;;Total ram usage:        2 bytes
  2708 ;; Hardware stack levels used: 1
  2709 ;; Hardware stack levels required when called: 5
  2710 ;; This function calls:
  2711 ;;		_Lcd_Clear
  2712 ;;		_Lcd_Set_Cursor
  2713 ;;		_Lcd_Write_String
  2714 ;;		_dcStop
  2715 ;;		_sprintf
  2716 ;;		_usSensor
  2717 ;; This function is called by:
  2718 ;;		_main
  2719 ;; This function uses a non-reentrant model
  2720 ;;
  2721                           
  2722     020D                     _LCDprint:	
  2723                           ;psect for function _LCDprint
  2724                           
  2725     020D                     l2337:	
  2726                           ;incstack = 0
  2727                           ; Regs used in _LCDprint: [wreg-fsr0h+status,2+status,0+btemp+1+pclath+cstack]
  2728                           
  2729                           
  2730                           ;E:/Universidad/Semestre2_2023/Digital-2/Proyecto1/Master/MasterPIC.X/MasterPIC.c: 244: 
      +                              if (OnOff == 1){
  2731     020D  1283               	bcf	3,5	;RP0=0, select bank0
  2732     020E  1303               	bcf	3,6	;RP1=0, select bank0
  2733     020F  0326               	decf	_OnOff,w
  2734     0210  0427               	iorwf	_OnOff+1,w
  2735     0211  1D03               	btfss	3,2
  2736     0212  2A14               	goto	u1541
  2737     0213  2A15               	goto	u1540
  2738     0214                     u1541:
  2739     0214  2A6A               	goto	l2349
  2740     0215                     u1540:
  2741     0215                     l2339:
  2742                           
  2743                           ;E:/Universidad/Semestre2_2023/Digital-2/Proyecto1/Master/MasterPIC.X/MasterPIC.c: 245: 
      +                                  Lcd_Clear();
  2744     0215  120A  118A  275F  120A  118A  	fcall	_Lcd_Clear
  2745                           
  2746                           ;E:/Universidad/Semestre2_2023/Digital-2/Proyecto1/Master/MasterPIC.X/MasterPIC.c: 246: 
      +                                  Lcd_Set_Cursor(1,1);
  2747     021A  01F6               	clrf	Lcd_Set_Cursor@b
  2748     021B  0AF6               	incf	Lcd_Set_Cursor@b,f
  2749     021C  3001               	movlw	1
  2750     021D  120A  118A  26AB  120A  118A  	fcall	_Lcd_Set_Cursor
  2751     0222                     l2341:
  2752                           
  2753                           ;E:/Universidad/Semestre2_2023/Digital-2/Proyecto1/Master/MasterPIC.X/MasterPIC.c: 247: 
      +                                  sprintf(lineLCD, "Distance: %.2d", ultrasonicValue);
  2754     0222  302E               	movlw	(low (_lineLCD| 0))& (0+255)
  2755     0223  1283               	bcf	3,5	;RP0=0, select bank0
  2756     0224  1303               	bcf	3,6	;RP1=0, select bank0
  2757     0225  00C2               	movwf	sprintf@sp
  2758     0226  3000               	movlw	0
  2759     0227  00C3               	movwf	sprintf@sp+1
  2760     0228  300B               	movlw	(low ((STR_4-__stringbase)| (0+32768)))& (0+255)
  2761     0229  00C4               	movwf	sprintf@f
  2762     022A  087B               	movf	_ultrasonicValue,w
  2763     022B  00D2               	movwf	??_LCDprint
  2764     022C  01D3               	clrf	??_LCDprint+1
  2765     022D  0852               	movf	??_LCDprint,w
  2766     022E  00C5               	movwf	?_sprintf+3
  2767     022F  0853               	movf	??_LCDprint+1,w
  2768     0230  00C6               	movwf	?_sprintf+4
  2769     0231  120A  118A  201E  120A  118A  	fcall	_sprintf
  2770     0236                     l2343:
  2771                           
  2772                           ;E:/Universidad/Semestre2_2023/Digital-2/Proyecto1/Master/MasterPIC.X/MasterPIC.c: 248: 
      +                                  Lcd_Write_String(lineLCD);
  2773     0236  302E               	movlw	(low (_lineLCD| 0))& (0+255)
  2774     0237  00F5               	movwf	Lcd_Write_String@a
  2775     0238  3000               	movlw	0
  2776     0239  00F6               	movwf	Lcd_Write_String@a+1
  2777     023A  120A  118A  24A7  120A  118A  	fcall	_Lcd_Write_String
  2778     023F                     l2345:
  2779                           
  2780                           ;E:/Universidad/Semestre2_2023/Digital-2/Proyecto1/Master/MasterPIC.X/MasterPIC.c: 249: 
      +                                  usSensor();
  2781     023F  120A  118A  2625  120A  118A  	fcall	_usSensor
  2782     0244                     l2347:
  2783                           
  2784                           ;E:/Universidad/Semestre2_2023/Digital-2/Proyecto1/Master/MasterPIC.X/MasterPIC.c: 251: 
      +                                  Lcd_Set_Cursor(2,1);
  2785     0244  01F6               	clrf	Lcd_Set_Cursor@b
  2786     0245  0AF6               	incf	Lcd_Set_Cursor@b,f
  2787     0246  3002               	movlw	2
  2788     0247  120A  118A  26AB  120A  118A  	fcall	_Lcd_Set_Cursor
  2789                           
  2790                           ;E:/Universidad/Semestre2_2023/Digital-2/Proyecto1/Master/MasterPIC.X/MasterPIC.c: 252: 
      +                                  sprintf(lineLCD,"Basket: %.2d", fsrValue);
  2791     024C  302E               	movlw	(low (_lineLCD| 0))& (0+255)
  2792     024D  1283               	bcf	3,5	;RP0=0, select bank0
  2793     024E  1303               	bcf	3,6	;RP1=0, select bank0
  2794     024F  00C2               	movwf	sprintf@sp
  2795     0250  3000               	movlw	0
  2796     0251  00C3               	movwf	sprintf@sp+1
  2797     0252  301A               	movlw	(low ((STR_5-__stringbase)| (0+32768)))& (0+255)
  2798     0253  00C4               	movwf	sprintf@f
  2799     0254  082C               	movf	_fsrValue,w
  2800     0255  00D2               	movwf	??_LCDprint
  2801     0256  01D3               	clrf	??_LCDprint+1
  2802     0257  0852               	movf	??_LCDprint,w
  2803     0258  00C5               	movwf	?_sprintf+3
  2804     0259  0853               	movf	??_LCDprint+1,w
  2805     025A  00C6               	movwf	?_sprintf+4
  2806     025B  120A  118A  201E  120A  118A  	fcall	_sprintf
  2807                           
  2808                           ;E:/Universidad/Semestre2_2023/Digital-2/Proyecto1/Master/MasterPIC.X/MasterPIC.c: 253: 
      +                                  Lcd_Write_String(lineLCD);
  2809     0260  302E               	movlw	(low (_lineLCD| 0))& (0+255)
  2810     0261  00F5               	movwf	Lcd_Write_String@a
  2811     0262  3000               	movlw	0
  2812     0263  00F6               	movwf	Lcd_Write_String@a+1
  2813     0264  120A  118A  24A7  120A  118A  	fcall	_Lcd_Write_String
  2814                           
  2815                           ;E:/Universidad/Semestre2_2023/Digital-2/Proyecto1/Master/MasterPIC.X/MasterPIC.c: 255: 
      +                                  } else{
  2816     0269  2A86               	goto	l215
  2817     026A                     l2349:
  2818                           
  2819                           ;E:/Universidad/Semestre2_2023/Digital-2/Proyecto1/Master/MasterPIC.X/MasterPIC.c: 258: 
      +                                  fsrValue = 0;
  2820     026A  01AC               	clrf	_fsrValue
  2821     026B                     l2351:
  2822                           
  2823                           ;E:/Universidad/Semestre2_2023/Digital-2/Proyecto1/Master/MasterPIC.X/MasterPIC.c: 259: 
      +                                  dcStop();
  2824     026B  120A  118A  27A5  120A  118A  	fcall	_dcStop
  2825     0270                     l2353:
  2826                           
  2827                           ;E:/Universidad/Semestre2_2023/Digital-2/Proyecto1/Master/MasterPIC.X/MasterPIC.c: 261: 
      +                                  Lcd_Clear();
  2828     0270  120A  118A  275F  120A  118A  	fcall	_Lcd_Clear
  2829     0275                     l2355:
  2830                           
  2831                           ;E:/Universidad/Semestre2_2023/Digital-2/Proyecto1/Master/MasterPIC.X/MasterPIC.c: 262: 
      +                                  Lcd_Set_Cursor(1,1);
  2832     0275  01F6               	clrf	Lcd_Set_Cursor@b
  2833     0276  0AF6               	incf	Lcd_Set_Cursor@b,f
  2834     0277  3001               	movlw	1
  2835     0278  120A  118A  26AB  120A  118A  	fcall	_Lcd_Set_Cursor
  2836     027D                     l2357:
  2837                           
  2838                           ;E:/Universidad/Semestre2_2023/Digital-2/Proyecto1/Master/MasterPIC.X/MasterPIC.c: 263: 
      +                                  Lcd_Write_String("Off");
  2839     027D  303D               	movlw	(low ((STR_6-__stringbase)| (0+32768)))& (0+255)
  2840     027E  00F5               	movwf	Lcd_Write_String@a
  2841     027F  3080               	movlw	128
  2842     0280  00F6               	movwf	Lcd_Write_String@a+1
  2843     0281  120A  118A  24A7  120A  118A  	fcall	_Lcd_Write_String
  2844     0286                     l215:
  2845     0286  0008               	return
  2846     0287                     __end_of_LCDprint:
  2847                           
  2848                           	psect	text16
  2849     0625                     __ptext16:	
  2850 ;; *************** function _usSensor *****************
  2851 ;; Defined at:
  2852 ;;		line 271 in file "E:/Universidad/Semestre2_2023/Digital-2/Proyecto1/Master/MasterPIC.X/MasterPIC.c"
  2853 ;; Parameters:    Size  Location     Type
  2854 ;;		None
  2855 ;; Auto vars:     Size  Location     Type
  2856 ;;		None
  2857 ;; Return value:  Size  Location     Type
  2858 ;;                  1    wreg      void 
  2859 ;; Registers used:
  2860 ;;		wreg, fsr0l, fsr0h, status,2, status,0, btemp+1, pclath, cstack
  2861 ;; Tracked objects:
  2862 ;;		On entry : 0/0
  2863 ;;		On exit  : 0/0
  2864 ;;		Unchanged: 0/0
  2865 ;; Data sizes:     COMMON   BANK0   BANK1   BANK3   BANK2
  2866 ;;      Params:         0       0       0       0       0
  2867 ;;      Locals:         0       0       0       0       0
  2868 ;;      Temps:          0       0       0       0       0
  2869 ;;      Totals:         0       0       0       0       0
  2870 ;;Total ram usage:        0 bytes
  2871 ;; Hardware stack levels used: 1
  2872 ;; Hardware stack levels required when called: 4
  2873 ;; This function calls:
  2874 ;;		_Lcd_Set_Cursor
  2875 ;;		_Lcd_Write_String
  2876 ;;		_dcForward
  2877 ;;		_dcRight
  2878 ;; This function is called by:
  2879 ;;		_LCDprint
  2880 ;; This function uses a non-reentrant model
  2881 ;;
  2882                           
  2883     0625                     _usSensor:	
  2884                           ;psect for function _usSensor
  2885                           
  2886     0625                     l2225:	
  2887                           ;incstack = 0
  2888                           ; Regs used in _usSensor: [wreg-fsr0h+status,2+status,0+btemp+1+pclath+cstack]
  2889                           
  2890                           
  2891                           ;E:/Universidad/Semestre2_2023/Digital-2/Proyecto1/Master/MasterPIC.X/MasterPIC.c: 272: 
      +                              Lcd_Set_Cursor(1,15);
  2892     0625  300F               	movlw	15
  2893     0626  00F6               	movwf	Lcd_Set_Cursor@b
  2894     0627  3001               	movlw	1
  2895     0628  120A  118A  26AB  120A  118A  	fcall	_Lcd_Set_Cursor
  2896     062D                     l2227:
  2897                           
  2898                           ;E:/Universidad/Semestre2_2023/Digital-2/Proyecto1/Master/MasterPIC.X/MasterPIC.c: 274: 
      +                              if (ultrasonicValue <= 7) {
  2899     062D  3008               	movlw	8
  2900     062E  027B               	subwf	_ultrasonicValue,w
  2901     062F  1803               	skipnc
  2902     0630  2E32               	goto	u1531
  2903     0631  2E33               	goto	u1530
  2904     0632                     u1531:
  2905     0632  2E45               	goto	l2235
  2906     0633                     u1530:
  2907     0633                     l2229:
  2908                           
  2909                           ;E:/Universidad/Semestre2_2023/Digital-2/Proyecto1/Master/MasterPIC.X/MasterPIC.c: 275: 
      +                                  Lcd_Write_String("!!");
  2910     0633  3044               	movlw	(low ((STR_7-__stringbase)| (0+32768)))& (0+255)
  2911     0634  00F5               	movwf	Lcd_Write_String@a
  2912     0635  3080               	movlw	128
  2913     0636  00F6               	movwf	Lcd_Write_String@a+1
  2914     0637  120A  118A  24A7  120A  118A  	fcall	_Lcd_Write_String
  2915     063C                     l2231:
  2916                           
  2917                           ;E:/Universidad/Semestre2_2023/Digital-2/Proyecto1/Master/MasterPIC.X/MasterPIC.c: 276: 
      +                                  fanOnOff = 0;
  2918     063C  1283               	bcf	3,5	;RP0=0, select bank0
  2919     063D  1303               	bcf	3,6	;RP1=0, select bank0
  2920     063E  01A8               	clrf	_fanOnOff
  2921     063F                     l2233:
  2922                           
  2923                           ;E:/Universidad/Semestre2_2023/Digital-2/Proyecto1/Master/MasterPIC.X/MasterPIC.c: 277: 
      +                                  dcRight();
  2924     063F  120A  118A  2793  120A  118A  	fcall	_dcRight
  2925                           
  2926                           ;E:/Universidad/Semestre2_2023/Digital-2/Proyecto1/Master/MasterPIC.X/MasterPIC.c: 278: 
      +                              }
  2927     0644  2E57               	goto	l220
  2928     0645                     l2235:
  2929                           
  2930                           ;E:/Universidad/Semestre2_2023/Digital-2/Proyecto1/Master/MasterPIC.X/MasterPIC.c: 280: 
      +                                  Lcd_Write_String("  ");
  2931     0645  3041               	movlw	(low ((STR_8-__stringbase)| (0+32768)))& (0+255)
  2932     0646  00F5               	movwf	Lcd_Write_String@a
  2933     0647  3080               	movlw	128
  2934     0648  00F6               	movwf	Lcd_Write_String@a+1
  2935     0649  120A  118A  24A7  120A  118A  	fcall	_Lcd_Write_String
  2936     064E                     l2237:
  2937                           
  2938                           ;E:/Universidad/Semestre2_2023/Digital-2/Proyecto1/Master/MasterPIC.X/MasterPIC.c: 281: 
      +                                  fanOnOff = 1;
  2939     064E  1283               	bcf	3,5	;RP0=0, select bank0
  2940     064F  1303               	bcf	3,6	;RP1=0, select bank0
  2941     0650  01A8               	clrf	_fanOnOff
  2942     0651  0AA8               	incf	_fanOnOff,f
  2943     0652                     l2239:
  2944                           
  2945                           ;E:/Universidad/Semestre2_2023/Digital-2/Proyecto1/Master/MasterPIC.X/MasterPIC.c: 282: 
      +                                  dcForward();
  2946     0652  120A  118A  279C  120A  118A  	fcall	_dcForward
  2947     0657                     l220:
  2948     0657  0008               	return
  2949     0658                     __end_of_usSensor:
  2950                           
  2951                           	psect	text17
  2952     0793                     __ptext17:	
  2953 ;; *************** function _dcRight *****************
  2954 ;; Defined at:
  2955 ;;		line 314 in file "E:/Universidad/Semestre2_2023/Digital-2/Proyecto1/Master/MasterPIC.X/MasterPIC.c"
  2956 ;; Parameters:    Size  Location     Type
  2957 ;;		None
  2958 ;; Auto vars:     Size  Location     Type
  2959 ;;		None
  2960 ;; Return value:  Size  Location     Type
  2961 ;;                  1    wreg      void 
  2962 ;; Registers used:
  2963 ;;		None
  2964 ;; Tracked objects:
  2965 ;;		On entry : 0/0
  2966 ;;		On exit  : 0/0
  2967 ;;		Unchanged: 0/0
  2968 ;; Data sizes:     COMMON   BANK0   BANK1   BANK3   BANK2
  2969 ;;      Params:         0       0       0       0       0
  2970 ;;      Locals:         0       0       0       0       0
  2971 ;;      Temps:          0       0       0       0       0
  2972 ;;      Totals:         0       0       0       0       0
  2973 ;;Total ram usage:        0 bytes
  2974 ;; Hardware stack levels used: 1
  2975 ;; Hardware stack levels required when called: 1
  2976 ;; This function calls:
  2977 ;;		Nothing
  2978 ;; This function is called by:
  2979 ;;		_usSensor
  2980 ;; This function uses a non-reentrant model
  2981 ;;
  2982                           
  2983     0793                     _dcRight:	
  2984                           ;psect for function _dcRight
  2985                           
  2986     0793                     l1639:	
  2987                           ;incstack = 0
  2988                           ; Regs used in _dcRight: []
  2989                           
  2990                           
  2991                           ;E:/Universidad/Semestre2_2023/Digital-2/Proyecto1/Master/MasterPIC.X/MasterPIC.c: 315: 
      +                              RA0 = 1;
  2992     0793  1283               	bcf	3,5	;RP0=0, select bank0
  2993     0794  1303               	bcf	3,6	;RP1=0, select bank0
  2994     0795  1405               	bsf	5,0	;volatile
  2995                           
  2996                           ;E:/Universidad/Semestre2_2023/Digital-2/Proyecto1/Master/MasterPIC.X/MasterPIC.c: 316: 
      +                              RA1 = 0;
  2997     0796  1085               	bcf	5,1	;volatile
  2998                           
  2999                           ;E:/Universidad/Semestre2_2023/Digital-2/Proyecto1/Master/MasterPIC.X/MasterPIC.c: 317: 
      +                              RA2 = 1;
  3000     0797  1505               	bsf	5,2	;volatile
  3001                           
  3002                           ;E:/Universidad/Semestre2_2023/Digital-2/Proyecto1/Master/MasterPIC.X/MasterPIC.c: 319: 
      +                              RA5 = 1;
  3003     0798  1685               	bsf	5,5	;volatile
  3004                           
  3005                           ;E:/Universidad/Semestre2_2023/Digital-2/Proyecto1/Master/MasterPIC.X/MasterPIC.c: 320: 
      +                              RA3 = 0;
  3006     0799  1185               	bcf	5,3	;volatile
  3007                           
  3008                           ;E:/Universidad/Semestre2_2023/Digital-2/Proyecto1/Master/MasterPIC.X/MasterPIC.c: 321: 
      +                              RA4 = 1;
  3009     079A  1605               	bsf	5,4	;volatile
  3010     079B                     l226:
  3011     079B  0008               	return
  3012     079C                     __end_of_dcRight:
  3013                           
  3014                           	psect	text18
  3015     079C                     __ptext18:	
  3016 ;; *************** function _dcForward *****************
  3017 ;; Defined at:
  3018 ;;		line 303 in file "E:/Universidad/Semestre2_2023/Digital-2/Proyecto1/Master/MasterPIC.X/MasterPIC.c"
  3019 ;; Parameters:    Size  Location     Type
  3020 ;;		None
  3021 ;; Auto vars:     Size  Location     Type
  3022 ;;		None
  3023 ;; Return value:  Size  Location     Type
  3024 ;;                  1    wreg      void 
  3025 ;; Registers used:
  3026 ;;		None
  3027 ;; Tracked objects:
  3028 ;;		On entry : 0/0
  3029 ;;		On exit  : 0/0
  3030 ;;		Unchanged: 0/0
  3031 ;; Data sizes:     COMMON   BANK0   BANK1   BANK3   BANK2
  3032 ;;      Params:         0       0       0       0       0
  3033 ;;      Locals:         0       0       0       0       0
  3034 ;;      Temps:          0       0       0       0       0
  3035 ;;      Totals:         0       0       0       0       0
  3036 ;;Total ram usage:        0 bytes
  3037 ;; Hardware stack levels used: 1
  3038 ;; Hardware stack levels required when called: 1
  3039 ;; This function calls:
  3040 ;;		Nothing
  3041 ;; This function is called by:
  3042 ;;		_usSensor
  3043 ;; This function uses a non-reentrant model
  3044 ;;
  3045                           
  3046     079C                     _dcForward:	
  3047                           ;psect for function _dcForward
  3048                           
  3049     079C                     l1641:	
  3050                           ;incstack = 0
  3051                           ; Regs used in _dcForward: []
  3052                           
  3053                           
  3054                           ;E:/Universidad/Semestre2_2023/Digital-2/Proyecto1/Master/MasterPIC.X/MasterPIC.c: 304: 
      +                              RA0 = 1;
  3055     079C  1283               	bcf	3,5	;RP0=0, select bank0
  3056     079D  1303               	bcf	3,6	;RP1=0, select bank0
  3057     079E  1405               	bsf	5,0	;volatile
  3058                           
  3059                           ;E:/Universidad/Semestre2_2023/Digital-2/Proyecto1/Master/MasterPIC.X/MasterPIC.c: 305: 
      +                              RA1 = 0;
  3060     079F  1085               	bcf	5,1	;volatile
  3061                           
  3062                           ;E:/Universidad/Semestre2_2023/Digital-2/Proyecto1/Master/MasterPIC.X/MasterPIC.c: 306: 
      +                              RA2 = 1;
  3063     07A0  1505               	bsf	5,2	;volatile
  3064                           
  3065                           ;E:/Universidad/Semestre2_2023/Digital-2/Proyecto1/Master/MasterPIC.X/MasterPIC.c: 308: 
      +                              RA5 = 1;
  3066     07A1  1685               	bsf	5,5	;volatile
  3067                           
  3068                           ;E:/Universidad/Semestre2_2023/Digital-2/Proyecto1/Master/MasterPIC.X/MasterPIC.c: 309: 
      +                              RA3 = 1;
  3069     07A2  1585               	bsf	5,3	;volatile
  3070                           
  3071                           ;E:/Universidad/Semestre2_2023/Digital-2/Proyecto1/Master/MasterPIC.X/MasterPIC.c: 310: 
      +                              RA4 = 0;
  3072     07A3  1205               	bcf	5,4	;volatile
  3073     07A4                     l223:
  3074     07A4  0008               	return
  3075     07A5                     __end_of_dcForward:
  3076                           
  3077                           	psect	text19
  3078     04A7                     __ptext19:	
  3079 ;; *************** function _Lcd_Write_String *****************
  3080 ;; Defined at:
  3081 ;;		line 104 in file "E:/Universidad/Semestre2_2023/Digital-2/Proyecto1/Master/MasterPIC.X/LCD.c"
  3082 ;; Parameters:    Size  Location     Type
  3083 ;;  a               2    5[COMMON] PTR unsigned char 
  3084 ;;		 -> STR_8(3), STR_7(3), STR_6(4), lineLCD(16), 
  3085 ;; Auto vars:     Size  Location     Type
  3086 ;;  i               2    0[BANK0 ] int 
  3087 ;; Return value:  Size  Location     Type
  3088 ;;                  1    wreg      void 
  3089 ;; Registers used:
  3090 ;;		wreg, fsr0l, fsr0h, status,2, status,0, btemp+1, pclath, cstack
  3091 ;; Tracked objects:
  3092 ;;		On entry : 0/0
  3093 ;;		On exit  : 0/0
  3094 ;;		Unchanged: 0/0
  3095 ;; Data sizes:     COMMON   BANK0   BANK1   BANK3   BANK2
  3096 ;;      Params:         2       0       0       0       0
  3097 ;;      Locals:         0       2       0       0       0
  3098 ;;      Temps:          3       0       0       0       0
  3099 ;;      Totals:         5       2       0       0       0
  3100 ;;Total ram usage:        7 bytes
  3101 ;; Hardware stack levels used: 1
  3102 ;; Hardware stack levels required when called: 3
  3103 ;; This function calls:
  3104 ;;		_Lcd_Write_Char
  3105 ;; This function is called by:
  3106 ;;		_LCDprint
  3107 ;;		_usSensor
  3108 ;; This function uses a non-reentrant model
  3109 ;;
  3110                           
  3111     04A7                     _Lcd_Write_String:	
  3112                           ;psect for function _Lcd_Write_String
  3113                           
  3114     04A7                     l2167:	
  3115                           ;incstack = 0
  3116                           ; Regs used in _Lcd_Write_String: [wreg-fsr0h+status,2+status,0+btemp+1+pclath+cstack]
  3117                           
  3118                           
  3119                           ;E:/Universidad/Semestre2_2023/Digital-2/Proyecto1/Master/MasterPIC.X/LCD.c: 105:     in
      +                          t i;;E:/Universidad/Semestre2_2023/Digital-2/Proyecto1/Master/MasterPIC.X/LCD.c: 106:   
      +                            for (i = 0; a[i] != '\0'; i++)
  3120     04A7  1283               	bcf	3,5	;RP0=0, select bank0
  3121     04A8  1303               	bcf	3,6	;RP1=0, select bank0
  3122     04A9  01BE               	clrf	Lcd_Write_String@i
  3123     04AA  01BF               	clrf	Lcd_Write_String@i+1
  3124     04AB  2CD0               	goto	l2173
  3125     04AC                     l2169:
  3126                           
  3127                           ;E:/Universidad/Semestre2_2023/Digital-2/Proyecto1/Master/MasterPIC.X/LCD.c: 107:       
      +                            Lcd_Write_Char(a[i]);
  3128     04AC  083E               	movf	Lcd_Write_String@i,w
  3129     04AD  0775               	addwf	Lcd_Write_String@a,w
  3130     04AE  00F8               	movwf	??_Lcd_Write_String+1
  3131     04AF  0876               	movf	Lcd_Write_String@a+1,w
  3132     04B0  00F7               	movwf	??_Lcd_Write_String
  3133     04B1  1803               	skipnc
  3134     04B2  0AF7               	incf	??_Lcd_Write_String,f
  3135     04B3  1FBE               	btfss	Lcd_Write_String@i,7
  3136     04B4  2CB6               	goto	u1420
  3137     04B5  03F7               	decf	??_Lcd_Write_String,f
  3138     04B6                     u1420:
  3139     04B6  0877               	movf	??_Lcd_Write_String,w
  3140     04B7  00F9               	movwf	??_Lcd_Write_String+2
  3141     04B8  0879               	movf	??_Lcd_Write_String+2,w
  3142     04B9  1283               	bcf	3,5	;RP0=0, select bank0
  3143     04BA  1303               	bcf	3,6	;RP1=0, select bank0
  3144     04BB  00FF               	movwf	btemp+1
  3145     04BC  0878               	movf	??_Lcd_Write_String+1,w
  3146     04BD  0084               	movwf	4
  3147     04BE  120A  118A  2400  120A  118A  	fcall	stringtab
  3148     04C3  120A  118A  2705  120A  118A  	fcall	_Lcd_Write_Char
  3149     04C8                     l2171:
  3150     04C8  3001               	movlw	1
  3151     04C9  1283               	bcf	3,5	;RP0=0, select bank0
  3152     04CA  1303               	bcf	3,6	;RP1=0, select bank0
  3153     04CB  07BE               	addwf	Lcd_Write_String@i,f
  3154     04CC  1803               	skipnc
  3155     04CD  0ABF               	incf	Lcd_Write_String@i+1,f
  3156     04CE  3000               	movlw	0
  3157     04CF  07BF               	addwf	Lcd_Write_String@i+1,f
  3158     04D0                     l2173:
  3159     04D0  083E               	movf	Lcd_Write_String@i,w
  3160     04D1  0775               	addwf	Lcd_Write_String@a,w
  3161     04D2  00F8               	movwf	??_Lcd_Write_String+1
  3162     04D3  0876               	movf	Lcd_Write_String@a+1,w
  3163     04D4  00F7               	movwf	??_Lcd_Write_String
  3164     04D5  1803               	skipnc
  3165     04D6  0AF7               	incf	??_Lcd_Write_String,f
  3166     04D7  1FBE               	btfss	Lcd_Write_String@i,7
  3167     04D8  2CDA               	goto	u1430
  3168     04D9  03F7               	decf	??_Lcd_Write_String,f
  3169     04DA                     u1430:
  3170     04DA  0877               	movf	??_Lcd_Write_String,w
  3171     04DB  00F9               	movwf	??_Lcd_Write_String+2
  3172     04DC  0879               	movf	??_Lcd_Write_String+2,w
  3173     04DD  1283               	bcf	3,5	;RP0=0, select bank0
  3174     04DE  1303               	bcf	3,6	;RP1=0, select bank0
  3175     04DF  00FF               	movwf	btemp+1
  3176     04E0  0878               	movf	??_Lcd_Write_String+1,w
  3177     04E1  0084               	movwf	4
  3178     04E2  120A  118A  2400  120A  118A  	fcall	stringtab
  3179     04E7  3A00               	xorlw	0
  3180     04E8  1D03               	skipz
  3181     04E9  2CEB               	goto	u1441
  3182     04EA  2CEC               	goto	u1440
  3183     04EB                     u1441:
  3184     04EB  2CAC               	goto	l2169
  3185     04EC                     u1440:
  3186     04EC                     l299:
  3187     04EC  0008               	return
  3188     04ED                     __end_of_Lcd_Write_String:
  3189                           
  3190                           	psect	text20
  3191     0705                     __ptext20:	
  3192 ;; *************** function _Lcd_Write_Char *****************
  3193 ;; Defined at:
  3194 ;;		line 96 in file "E:/Universidad/Semestre2_2023/Digital-2/Proyecto1/Master/MasterPIC.X/LCD.c"
  3195 ;; Parameters:    Size  Location     Type
  3196 ;;  a               1    wreg     unsigned char 
  3197 ;; Auto vars:     Size  Location     Type
  3198 ;;  a               1    4[COMMON] unsigned char 
  3199 ;; Return value:  Size  Location     Type
  3200 ;;                  1    wreg      void 
  3201 ;; Registers used:
  3202 ;;		wreg, status,2, status,0, pclath, cstack
  3203 ;; Tracked objects:
  3204 ;;		On entry : 0/0
  3205 ;;		On exit  : 0/0
  3206 ;;		Unchanged: 0/0
  3207 ;; Data sizes:     COMMON   BANK0   BANK1   BANK3   BANK2
  3208 ;;      Params:         0       0       0       0       0
  3209 ;;      Locals:         1       0       0       0       0
  3210 ;;      Temps:          1       0       0       0       0
  3211 ;;      Totals:         2       0       0       0       0
  3212 ;;Total ram usage:        2 bytes
  3213 ;; Hardware stack levels used: 1
  3214 ;; Hardware stack levels required when called: 2
  3215 ;; This function calls:
  3216 ;;		_Lcd_Port
  3217 ;; This function is called by:
  3218 ;;		_Lcd_Write_String
  3219 ;; This function uses a non-reentrant model
  3220 ;;
  3221                           
  3222     0705                     _Lcd_Write_Char:	
  3223                           ;psect for function _Lcd_Write_Char
  3224                           
  3225                           
  3226                           ;incstack = 0
  3227                           ; Regs used in _Lcd_Write_Char: [wreg+status,2+status,0+pclath+cstack]
  3228                           ;Lcd_Write_Char@a stored from wreg
  3229     0705  00F4               	movwf	Lcd_Write_Char@a
  3230     0706                     l2145:
  3231                           
  3232                           ;E:/Universidad/Semestre2_2023/Digital-2/Proyecto1/Master/MasterPIC.X/LCD.c: 97:     RC0
      +                           = 1;
  3233     0706  1283               	bcf	3,5	;RP0=0, select bank0
  3234     0707  1303               	bcf	3,6	;RP1=0, select bank0
  3235     0708  1407               	bsf	7,0	;volatile
  3236     0709                     l2147:
  3237                           
  3238                           ;E:/Universidad/Semestre2_2023/Digital-2/Proyecto1/Master/MasterPIC.X/LCD.c: 98:     Lcd
      +                          _Port(a);
  3239     0709  0874               	movf	Lcd_Write_Char@a,w
  3240     070A  120A  118A  2573  120A  118A  	fcall	_Lcd_Port
  3241     070F                     l2149:
  3242                           
  3243                           ;E:/Universidad/Semestre2_2023/Digital-2/Proyecto1/Master/MasterPIC.X/LCD.c: 99:     RC1
      +                           = 1;
  3244     070F  1283               	bcf	3,5	;RP0=0, select bank0
  3245     0710  1303               	bcf	3,6	;RP1=0, select bank0
  3246     0711  1487               	bsf	7,1	;volatile
  3247     0712                     l2151:
  3248                           
  3249                           ;E:/Universidad/Semestre2_2023/Digital-2/Proyecto1/Master/MasterPIC.X/LCD.c: 100:     _d
      +                          elay((unsigned long)((40)*(8000000/4000000.0)));
  3250     0712  301A               	movlw	26
  3251     0713  00F3               	movwf	??_Lcd_Write_Char
  3252     0714                     u1647:
  3253     0714  0BF3               	decfsz	??_Lcd_Write_Char,f
  3254     0715  2F14               	goto	u1647
  3255     0716  0000               	nop
  3256     0717                     l2153:
  3257                           
  3258                           ;E:/Universidad/Semestre2_2023/Digital-2/Proyecto1/Master/MasterPIC.X/LCD.c: 101:     RC
      +                          1 = 0;
  3259     0717  1283               	bcf	3,5	;RP0=0, select bank0
  3260     0718  1303               	bcf	3,6	;RP1=0, select bank0
  3261     0719  1087               	bcf	7,1	;volatile
  3262     071A                     l293:
  3263     071A  0008               	return
  3264     071B                     __end_of_Lcd_Write_Char:
  3265                           
  3266                           	psect	text21
  3267     06AB                     __ptext21:	
  3268 ;; *************** function _Lcd_Set_Cursor *****************
  3269 ;; Defined at:
  3270 ;;		line 68 in file "E:/Universidad/Semestre2_2023/Digital-2/Proyecto1/Master/MasterPIC.X/LCD.c"
  3271 ;; Parameters:    Size  Location     Type
  3272 ;;  a               1    wreg     unsigned char 
  3273 ;;  b               1    6[COMMON] unsigned char 
  3274 ;; Auto vars:     Size  Location     Type
  3275 ;;  a               1    7[COMMON] unsigned char 
  3276 ;;  temp            1    8[COMMON] unsigned char 
  3277 ;; Return value:  Size  Location     Type
  3278 ;;                  1    wreg      void 
  3279 ;; Registers used:
  3280 ;;		wreg, status,2, status,0, pclath, cstack
  3281 ;; Tracked objects:
  3282 ;;		On entry : 0/0
  3283 ;;		On exit  : 0/0
  3284 ;;		Unchanged: 0/0
  3285 ;; Data sizes:     COMMON   BANK0   BANK1   BANK3   BANK2
  3286 ;;      Params:         1       0       0       0       0
  3287 ;;      Locals:         2       0       0       0       0
  3288 ;;      Temps:          0       0       0       0       0
  3289 ;;      Totals:         3       0       0       0       0
  3290 ;;Total ram usage:        3 bytes
  3291 ;; Hardware stack levels used: 1
  3292 ;; Hardware stack levels required when called: 3
  3293 ;; This function calls:
  3294 ;;		_Lcd_Cmd
  3295 ;; This function is called by:
  3296 ;;		_LCDprint
  3297 ;;		_usSensor
  3298 ;; This function uses a non-reentrant model
  3299 ;;
  3300                           
  3301     06AB                     _Lcd_Set_Cursor:	
  3302                           ;psect for function _Lcd_Set_Cursor
  3303                           
  3304                           
  3305                           ;incstack = 0
  3306                           ; Regs used in _Lcd_Set_Cursor: [wreg+status,2+status,0+pclath+cstack]
  3307                           ;Lcd_Set_Cursor@a stored from wreg
  3308     06AB  00F7               	movwf	Lcd_Set_Cursor@a
  3309     06AC                     l2155:
  3310                           
  3311                           ;E:/Universidad/Semestre2_2023/Digital-2/Proyecto1/Master/MasterPIC.X/LCD.c: 69:     uns
      +                          igned char temp;;E:/Universidad/Semestre2_2023/Digital-2/Proyecto1/Master/MasterPIC.X/LC
      +                          D.c: 70:     if (a == 1) {
  3312     06AC  0377               	decf	Lcd_Set_Cursor@a,w
  3313     06AD  1D03               	btfss	3,2
  3314     06AE  2EB0               	goto	u1401
  3315     06AF  2EB1               	goto	u1400
  3316     06B0                     u1401:
  3317     06B0  2EBB               	goto	l2161
  3318     06B1                     u1400:
  3319     06B1                     l2157:
  3320                           
  3321                           ;E:/Universidad/Semestre2_2023/Digital-2/Proyecto1/Master/MasterPIC.X/LCD.c: 71:        
      +                           temp = 0x80 + b - 1;
  3322     06B1  0876               	movf	Lcd_Set_Cursor@b,w
  3323     06B2  3E7F               	addlw	127
  3324     06B3  00F8               	movwf	Lcd_Set_Cursor@temp
  3325     06B4                     l2159:
  3326                           
  3327                           ;E:/Universidad/Semestre2_2023/Digital-2/Proyecto1/Master/MasterPIC.X/LCD.c: 72:        
      +                           Lcd_Cmd(temp);
  3328     06B4  0878               	movf	Lcd_Set_Cursor@temp,w
  3329     06B5  120A  118A  26EB  120A  118A  	fcall	_Lcd_Cmd
  3330                           
  3331                           ;E:/Universidad/Semestre2_2023/Digital-2/Proyecto1/Master/MasterPIC.X/LCD.c: 74:     } e
      +                          lse if (a == 2) {
  3332     06BA  2ECA               	goto	l287
  3333     06BB                     l2161:
  3334     06BB  3002               	movlw	2
  3335     06BC  0677               	xorwf	Lcd_Set_Cursor@a,w
  3336     06BD  1D03               	btfss	3,2
  3337     06BE  2EC0               	goto	u1411
  3338     06BF  2EC1               	goto	u1410
  3339     06C0                     u1411:
  3340     06C0  2ECA               	goto	l287
  3341     06C1                     u1410:
  3342     06C1                     l2163:
  3343                           
  3344                           ;E:/Universidad/Semestre2_2023/Digital-2/Proyecto1/Master/MasterPIC.X/LCD.c: 75:        
      +                           temp = 0xC0 + b - 1;
  3345     06C1  0876               	movf	Lcd_Set_Cursor@b,w
  3346     06C2  3EBF               	addlw	191
  3347     06C3  00F8               	movwf	Lcd_Set_Cursor@temp
  3348     06C4                     l2165:
  3349                           
  3350                           ;E:/Universidad/Semestre2_2023/Digital-2/Proyecto1/Master/MasterPIC.X/LCD.c: 76:        
      +                           Lcd_Cmd(temp);
  3351     06C4  0878               	movf	Lcd_Set_Cursor@temp,w
  3352     06C5  120A  118A  26EB  120A  118A  	fcall	_Lcd_Cmd
  3353     06CA                     l287:
  3354     06CA  0008               	return
  3355     06CB                     __end_of_Lcd_Set_Cursor:
  3356                           
  3357                           	psect	text22
  3358     001E                     __ptext22:	
  3359 ;; *************** function _sprintf *****************
  3360 ;; Defined at:
  3361 ;;		line 505 in file "C:\Program Files\Microchip\xc8\v2.41\pic\sources\c90\common\doprnt.c"
  3362 ;; Parameters:    Size  Location     Type
  3363 ;;  sp              2    4[BANK0 ] PTR unsigned char 
  3364 ;;		 -> lineLCD(16), RAM(512), 
  3365 ;;  f               1    6[BANK0 ] PTR const unsigned char 
  3366 ;;		 -> STR_5(13), STR_4(15), STR_3(8), STR_2(8), 
  3367 ;; Auto vars:     Size  Location     Type
  3368 ;;  tmpval          4    0        struct .
  3369 ;;  val             2   16[BANK0 ] unsigned int 
  3370 ;;  cp              2    0        PTR const unsigned char 
  3371 ;;  len             2    0        unsigned int 
  3372 ;;  c               1   19[BANK0 ] unsigned char 
  3373 ;;  prec            1   18[BANK0 ] char 
  3374 ;;  flag            1   15[BANK0 ] unsigned char 
  3375 ;;  ap              1   14[BANK0 ] PTR void [1]
  3376 ;;		 -> ?_sprintf(2), 
  3377 ;; Return value:  Size  Location     Type
  3378 ;;                  2    4[BANK0 ] int 
  3379 ;; Registers used:
  3380 ;;		wreg, fsr0l, fsr0h, status,2, status,0, btemp+1, pclath, cstack
  3381 ;; Tracked objects:
  3382 ;;		On entry : 0/0
  3383 ;;		On exit  : 0/0
  3384 ;;		Unchanged: 0/0
  3385 ;; Data sizes:     COMMON   BANK0   BANK1   BANK3   BANK2
  3386 ;;      Params:         0       7       0       0       0
  3387 ;;      Locals:         0       6       0       0       0
  3388 ;;      Temps:          0       3       0       0       0
  3389 ;;      Totals:         0      16       0       0       0
  3390 ;;Total ram usage:       16 bytes
  3391 ;; Hardware stack levels used: 1
  3392 ;; Hardware stack levels required when called: 2
  3393 ;; This function calls:
  3394 ;;		___bmul
  3395 ;;		___lwdiv
  3396 ;;		___lwmod
  3397 ;;		_isdigit
  3398 ;; This function is called by:
  3399 ;;		_main
  3400 ;;		_LCDprint
  3401 ;; This function uses a non-reentrant model
  3402 ;;
  3403                           
  3404     001E                     _sprintf:	
  3405                           ;psect for function _sprintf
  3406                           
  3407     001E                     l1785:	
  3408                           ;incstack = 0
  3409                           ; Regs used in _sprintf: [wreg-fsr0h+status,2+status,0+btemp+1+pclath+cstack]
  3410                           
  3411                           
  3412                           ;C:\Program Files\Microchip\xc8\v2.41\pic\sources\c90\common\doprnt.c: 505: sprintf(char
      +                           * sp, const char * f, ...);C:\Program Files\Microchip\xc8\v2.41\pic\sources\c90\common\
      +                          doprnt.c: 506: {;C:\Program Files\Microchip\xc8\v2.41\pic\sources\c90\common\doprnt.c: 5
      +                          07:  va_list ap;;C:\Program Files\Microchip\xc8\v2.41\pic\sources\c90\common\doprnt.c: 5
      +                          12:  char c;;C:\Program Files\Microchip\xc8\v2.41\pic\sources\c90\common\doprnt.c: 521: 
      +                           signed char prec;;C:\Program Files\Microchip\xc8\v2.41\pic\sources\c90\common\doprnt.c:
      +                           525:  unsigned char flag;
  3413     001E  3045               	movlw	(low ((?_sprintf| 0+3)))& (0+255)
  3414     001F  1283               	bcf	3,5	;RP0=0, select bank0
  3415     0020  1303               	bcf	3,6	;RP1=0, select bank0
  3416     0021  00CC               	movwf	sprintf@ap
  3417                           
  3418                           ;C:\Program Files\Microchip\xc8\v2.41\pic\sources\c90\common\doprnt.c: 553:  while((c = 
      +                          *f++)) {
  3419     0022  2965               	goto	l1867
  3420     0023                     l1787:
  3421                           
  3422                           ;C:\Program Files\Microchip\xc8\v2.41\pic\sources\c90\common\doprnt.c: 555:   if(c != '%
      +                          ')
  3423     0023  3025               	movlw	37
  3424     0024  0651               	xorwf	sprintf@c,w
  3425     0025  1903               	btfsc	3,2
  3426     0026  2828               	goto	u1091
  3427     0027  2829               	goto	u1090
  3428     0028                     u1091:
  3429     0028  2837               	goto	l1793
  3430     0029                     u1090:
  3431     0029                     l1789:
  3432                           
  3433                           ;C:\Program Files\Microchip\xc8\v2.41\pic\sources\c90\common\doprnt.c: 557:   {;C:\Progr
      +                          am Files\Microchip\xc8\v2.41\pic\sources\c90\common\doprnt.c: 558:    ((*sp++ = (c)));
  3434     0029  0842               	movf	sprintf@sp,w
  3435     002A  0084               	movwf	4
  3436     002B  1783               	bsf	3,7
  3437     002C  1C43               	btfss	sprintf@sp+1,0
  3438     002D  1383               	bcf	3,7
  3439     002E  0851               	movf	sprintf@c,w
  3440     002F  0080               	movwf	0
  3441     0030                     l1791:
  3442     0030  3001               	movlw	1
  3443     0031  07C2               	addwf	sprintf@sp,f
  3444     0032  1803               	skipnc
  3445     0033  0AC3               	incf	sprintf@sp+1,f
  3446     0034  3000               	movlw	0
  3447     0035  07C3               	addwf	sprintf@sp+1,f
  3448                           
  3449                           ;C:\Program Files\Microchip\xc8\v2.41\pic\sources\c90\common\doprnt.c: 559:    continue;
  3450     0036  2965               	goto	l1867
  3451     0037                     l1793:
  3452                           
  3453                           ;C:\Program Files\Microchip\xc8\v2.41\pic\sources\c90\common\doprnt.c: 565:   flag = 0;
  3454     0037  01CD               	clrf	sprintf@flag
  3455     0038                     l1795:
  3456                           
  3457                           ;C:\Program Files\Microchip\xc8\v2.41\pic\sources\c90\common\doprnt.c: 628:   if(*f == '
      +                          .') {
  3458     0038  0844               	movf	sprintf@f,w
  3459     0039  0084               	movwf	4
  3460     003A  120A  118A  240A  120A  118A  	fcall	stringdir
  3461     003F  3A2E               	xorlw	46
  3462     0040  1D03               	skipz
  3463     0041  2843               	goto	u1101
  3464     0042  2844               	goto	u1100
  3465     0043                     u1101:
  3466     0043  2877               	goto	l1809
  3467     0044                     u1100:
  3468     0044                     l1797:
  3469                           
  3470                           ;C:\Program Files\Microchip\xc8\v2.41\pic\sources\c90\common\doprnt.c: 630:    f++;
  3471     0044  3001               	movlw	1
  3472     0045  00FF               	movwf	btemp+1
  3473     0046  087F               	movf	btemp+1,w
  3474     0047  07C4               	addwf	sprintf@f,f
  3475     0048                     l1799:
  3476                           
  3477                           ;C:\Program Files\Microchip\xc8\v2.41\pic\sources\c90\common\doprnt.c: 644:    {;C:\Prog
      +                          ram Files\Microchip\xc8\v2.41\pic\sources\c90\common\doprnt.c: 645:     prec = 0;
  3478     0048  01D0               	clrf	sprintf@prec
  3479                           
  3480                           ;C:\Program Files\Microchip\xc8\v2.41\pic\sources\c90\common\doprnt.c: 646:     while(is
      +                          digit((unsigned)*f)) {
  3481     0049  2866               	goto	l1807
  3482     004A                     l1801:
  3483                           
  3484                           ;C:\Program Files\Microchip\xc8\v2.41\pic\sources\c90\common\doprnt.c: 647:      prec *=
      +                           10;
  3485     004A  1283               	bcf	3,5	;RP0=0, select bank0
  3486     004B  1303               	bcf	3,6	;RP1=0, select bank0
  3487     004C  0850               	movf	sprintf@prec,w
  3488     004D  00F2               	movwf	___bmul@multiplicand
  3489     004E  300A               	movlw	10
  3490     004F  120A  118A  271B  120A  118A  	fcall	___bmul
  3491     0054  1283               	bcf	3,5	;RP0=0, select bank0
  3492     0055  1303               	bcf	3,6	;RP1=0, select bank0
  3493     0056  00D0               	movwf	sprintf@prec
  3494     0057                     l1803:
  3495                           
  3496                           ;C:\Program Files\Microchip\xc8\v2.41\pic\sources\c90\common\doprnt.c: 648:         prec
      +                           += *f++ - '0';
  3497     0057  0844               	movf	sprintf@f,w
  3498     0058  0084               	movwf	4
  3499     0059  120A  118A  240A  120A  118A  	fcall	stringdir
  3500     005E  3ED0               	addlw	-48
  3501     005F  00FF               	movwf	btemp+1
  3502     0060  087F               	movf	btemp+1,w
  3503     0061  07D0               	addwf	sprintf@prec,f
  3504     0062                     l1805:
  3505     0062  3001               	movlw	1
  3506     0063  00FF               	movwf	btemp+1
  3507     0064  087F               	movf	btemp+1,w
  3508     0065  07C4               	addwf	sprintf@f,f
  3509     0066                     l1807:
  3510                           
  3511                           ;C:\Program Files\Microchip\xc8\v2.41\pic\sources\c90\common\doprnt.c: 646:     while(is
      +                          digit((unsigned)*f)) {
  3512     0066  0844               	movf	sprintf@f,w
  3513     0067  0084               	movwf	4
  3514     0068  120A  118A  240A  120A  118A  	fcall	stringdir
  3515     006D  120A  118A  2730  120A  118A  	fcall	_isdigit
  3516     0072  1803               	btfsc	3,0
  3517     0073  2875               	goto	u1111
  3518     0074  2876               	goto	u1110
  3519     0075                     u1111:
  3520     0075  284A               	goto	l1801
  3521     0076                     u1110:
  3522     0076  2878               	goto	l1813
  3523     0077                     l1809:
  3524                           
  3525                           ;C:\Program Files\Microchip\xc8\v2.41\pic\sources\c90\common\doprnt.c: 652:    prec = 0;
  3526     0077  01D0               	clrf	sprintf@prec
  3527     0078                     l1813:
  3528     0078  3001               	movlw	1
  3529     0079  1283               	bcf	3,5	;RP0=0, select bank0
  3530     007A  1303               	bcf	3,6	;RP1=0, select bank0
  3531     007B  07C4               	addwf	sprintf@f,f
  3532     007C  30FF               	movlw	-1
  3533     007D  0744               	addwf	sprintf@f,w
  3534     007E  0084               	movwf	4
  3535     007F  120A  118A  240A  120A  118A  	fcall	stringdir
  3536     0084  00D1               	movwf	sprintf@c
  3537     0085  00C9               	movwf	??_sprintf
  3538     0086  01CA               	clrf	??_sprintf+1
  3539                           
  3540                           ; Switch on 2 bytes has been partitioned into a top level switch of size 1, and 1 sub-sw
      +                          itches
  3541                           ; Switch size 1, requested type "simple"
  3542                           ; Number of cases is 1, Range of values is 0 to 0
  3543                           ; switch strategies available:
  3544                           ; Name         Instructions Cycles
  3545                           ; simple_byte            4     3 (average)
  3546                           ; direct_byte           11     8 (fixed)
  3547                           ; jumptable            260     6 (fixed)
  3548                           ;	Chosen strategy is simple_byte
  3549     0087  084A               	movf	??_sprintf+1,w
  3550     0088  3A00               	xorlw	0	; case 0
  3551     0089  1903               	skipnz
  3552     008A  288C               	goto	l2407
  3553     008B  2965               	goto	l1867
  3554     008C                     l2407:
  3555                           
  3556                           ; Switch size 1, requested type "simple"
  3557                           ; Number of cases is 3, Range of values is 0 to 105
  3558                           ; switch strategies available:
  3559                           ; Name         Instructions Cycles
  3560                           ; simple_byte           10     6 (average)
  3561                           ; jumptable            260     6 (fixed)
  3562                           ;	Chosen strategy is simple_byte
  3563     008C  0849               	movf	??_sprintf,w
  3564     008D  3A00               	xorlw	0	; case 0
  3565     008E  1903               	skipnz
  3566     008F  2975               	goto	l1869
  3567     0090  3A64               	xorlw	100	; case 100
  3568     0091  1903               	skipnz
  3569     0092  2897               	goto	l1815
  3570     0093  3A0D               	xorlw	13	; case 105
  3571     0094  1903               	skipnz
  3572     0095  2897               	goto	l1815
  3573     0096  2965               	goto	l1867
  3574     0097                     l1815:
  3575                           
  3576                           ;C:\Program Files\Microchip\xc8\v2.41\pic\sources\c90\common\doprnt.c: 1279:   {;C:\Prog
      +                          ram Files\Microchip\xc8\v2.41\pic\sources\c90\common\doprnt.c: 1285:     val = (unsigned
      +                           int)(*(int *)__va_arg((*(int **)ap), (int)0));
  3577     0097  084C               	movf	sprintf@ap,w
  3578     0098  0084               	movwf	4
  3579     0099  1383               	bcf	3,7	;select IRP bank0
  3580     009A  0800               	movf	0,w
  3581     009B  00CE               	movwf	sprintf@val
  3582     009C  0A84               	incf	4,f
  3583     009D  0800               	movf	0,w
  3584     009E  00CF               	movwf	sprintf@val+1
  3585     009F                     l1817:
  3586     009F  3002               	movlw	2
  3587     00A0  00FF               	movwf	btemp+1
  3588     00A1  087F               	movf	btemp+1,w
  3589     00A2  07CC               	addwf	sprintf@ap,f
  3590     00A3                     l1819:
  3591                           
  3592                           ;C:\Program Files\Microchip\xc8\v2.41\pic\sources\c90\common\doprnt.c: 1287:    if((int)
      +                          val < 0) {
  3593     00A3  1FCF               	btfss	sprintf@val+1,7
  3594     00A4  28A6               	goto	u1121
  3595     00A5  28A7               	goto	u1120
  3596     00A6                     u1121:
  3597     00A6  28B0               	goto	l1825
  3598     00A7                     u1120:
  3599     00A7                     l1821:
  3600                           
  3601                           ;C:\Program Files\Microchip\xc8\v2.41\pic\sources\c90\common\doprnt.c: 1288:     flag |=
      +                           0x03;
  3602     00A7  3003               	movlw	3
  3603     00A8  00FF               	movwf	btemp+1
  3604     00A9  087F               	movf	btemp+1,w
  3605     00AA  04CD               	iorwf	sprintf@flag,f
  3606     00AB                     l1823:
  3607                           
  3608                           ;C:\Program Files\Microchip\xc8\v2.41\pic\sources\c90\common\doprnt.c: 1289:     val = -
      +                          val;
  3609     00AB  09CE               	comf	sprintf@val,f
  3610     00AC  09CF               	comf	sprintf@val+1,f
  3611     00AD  0ACE               	incf	sprintf@val,f
  3612     00AE  1903               	skipnz
  3613     00AF  0ACF               	incf	sprintf@val+1,f
  3614     00B0                     l1825:
  3615                           
  3616                           ;C:\Program Files\Microchip\xc8\v2.41\pic\sources\c90\common\doprnt.c: 1292:   };C:\Prog
      +                          ram Files\Microchip\xc8\v2.41\pic\sources\c90\common\doprnt.c: 1316:   if(prec == 0 && v
      +                          al == 0)
  3617     00B0  0850               	movf	sprintf@prec,w
  3618     00B1  1D03               	btfss	3,2
  3619     00B2  28B4               	goto	u1131
  3620     00B3  28B5               	goto	u1130
  3621     00B4                     u1131:
  3622     00B4  28BF               	goto	l1831
  3623     00B5                     u1130:
  3624     00B5                     l1827:
  3625     00B5  084E               	movf	sprintf@val,w
  3626     00B6  044F               	iorwf	sprintf@val+1,w
  3627     00B7  1D03               	btfss	3,2
  3628     00B8  28BA               	goto	u1141
  3629     00B9  28BB               	goto	u1140
  3630     00BA                     u1141:
  3631     00BA  28BF               	goto	l1831
  3632     00BB                     u1140:
  3633     00BB                     l1829:
  3634                           
  3635                           ;C:\Program Files\Microchip\xc8\v2.41\pic\sources\c90\common\doprnt.c: 1317:    prec++;
  3636     00BB  3001               	movlw	1
  3637     00BC  00FF               	movwf	btemp+1
  3638     00BD  087F               	movf	btemp+1,w
  3639     00BE  07D0               	addwf	sprintf@prec,f
  3640     00BF                     l1831:
  3641                           
  3642                           ;C:\Program Files\Microchip\xc8\v2.41\pic\sources\c90\common\doprnt.c: 1331:    for(c = 
      +                          1 ; c != sizeof dpowers/sizeof dpowers[0] ; c++)
  3643     00BF  01D1               	clrf	sprintf@c
  3644     00C0  0AD1               	incf	sprintf@c,f
  3645     00C1                     l1837:
  3646                           
  3647                           ;C:\Program Files\Microchip\xc8\v2.41\pic\sources\c90\common\doprnt.c: 1332:     if(val 
      +                          < dpowers[c])
  3648     00C1  0851               	movf	sprintf@c,w
  3649     00C2  00C9               	movwf	??_sprintf
  3650     00C3  0749               	addwf	??_sprintf,w
  3651     00C4  3E01               	addlw	low ((_dpowers-__stringbase)| (0+32768))
  3652     00C5  0084               	movwf	4
  3653     00C6  120A  118A  240A  120A  118A  	fcall	stringdir
  3654     00CB  00CA               	movwf	??_sprintf+1
  3655     00CC  120A  118A  240A  120A  118A  	fcall	stringdir
  3656     00D1  00CB               	movwf	??_sprintf+2
  3657     00D2  084B               	movf	??_sprintf+2,w
  3658     00D3  024F               	subwf	sprintf@val+1,w
  3659     00D4  1D03               	skipz
  3660     00D5  28D8               	goto	u1155
  3661     00D6  084A               	movf	??_sprintf+1,w
  3662     00D7  024E               	subwf	sprintf@val,w
  3663     00D8                     u1155:
  3664     00D8  1803               	skipnc
  3665     00D9  28DB               	goto	u1151
  3666     00DA  28DC               	goto	u1150
  3667     00DB                     u1151:
  3668     00DB  28DD               	goto	l1841
  3669     00DC                     u1150:
  3670     00DC  28E7               	goto	l1845
  3671     00DD                     l1841:
  3672     00DD  3001               	movlw	1
  3673     00DE  00FF               	movwf	btemp+1
  3674     00DF  087F               	movf	btemp+1,w
  3675     00E0  07D1               	addwf	sprintf@c,f
  3676     00E1                     l1843:
  3677     00E1  3005               	movlw	5
  3678     00E2  0651               	xorwf	sprintf@c,w
  3679     00E3  1D03               	btfss	3,2
  3680     00E4  28E6               	goto	u1161
  3681     00E5  28E7               	goto	u1160
  3682     00E6                     u1161:
  3683     00E6  28C1               	goto	l1837
  3684     00E7                     u1160:
  3685     00E7                     l1845:
  3686                           
  3687                           ;C:\Program Files\Microchip\xc8\v2.41\pic\sources\c90\common\doprnt.c: 1365:   if(c < pr
      +                          ec)
  3688     00E7  0850               	movf	sprintf@prec,w
  3689     00E8  00C9               	movwf	??_sprintf
  3690     00E9  01CA               	clrf	??_sprintf+1
  3691     00EA  1BC9               	btfsc	??_sprintf,7
  3692     00EB  03CA               	decf	??_sprintf+1,f
  3693     00EC  084A               	movf	??_sprintf+1,w
  3694     00ED  3A80               	xorlw	128
  3695     00EE  3C80               	sublw	128
  3696     00EF  1D03               	skipz
  3697     00F0  28F3               	goto	u1175
  3698     00F1  0849               	movf	??_sprintf,w
  3699     00F2  0251               	subwf	sprintf@c,w
  3700     00F3                     u1175:
  3701     00F3  1803               	skipnc
  3702     00F4  28F6               	goto	u1171
  3703     00F5  28F7               	goto	u1170
  3704     00F6                     u1171:
  3705     00F6  28F8               	goto	l1849
  3706     00F7                     u1170:
  3707     00F7                     l1847:
  3708     00F7  2910               	goto	l1853
  3709     00F8                     l1849:
  3710     00F8  1283               	bcf	3,5	;RP0=0, select bank0
  3711     00F9  1303               	bcf	3,6	;RP1=0, select bank0
  3712     00FA  0850               	movf	sprintf@prec,w
  3713     00FB  00C9               	movwf	??_sprintf
  3714     00FC  01CA               	clrf	??_sprintf+1
  3715     00FD  1BC9               	btfsc	??_sprintf,7
  3716     00FE  03CA               	decf	??_sprintf+1,f
  3717     00FF  084A               	movf	??_sprintf+1,w
  3718     0100  3A80               	xorlw	128
  3719     0101  00CB               	movwf	??_sprintf+2
  3720     0102  3080               	movlw	128
  3721     0103  024B               	subwf	??_sprintf+2,w
  3722     0104  1D03               	skipz
  3723     0105  2908               	goto	u1185
  3724     0106  0851               	movf	sprintf@c,w
  3725     0107  0249               	subwf	??_sprintf,w
  3726     0108                     u1185:
  3727     0108  1803               	skipnc
  3728     0109  290B               	goto	u1181
  3729     010A  290C               	goto	u1180
  3730     010B                     u1181:
  3731     010B  2910               	goto	l1853
  3732     010C                     u1180:
  3733     010C                     l1851:
  3734                           
  3735                           ;C:\Program Files\Microchip\xc8\v2.41\pic\sources\c90\common\doprnt.c: 1368:    prec = c
      +                          ;
  3736     010C  1283               	bcf	3,5	;RP0=0, select bank0
  3737     010D  1303               	bcf	3,6	;RP1=0, select bank0
  3738     010E  0851               	movf	sprintf@c,w
  3739     010F  00D0               	movwf	sprintf@prec
  3740     0110                     l1853:
  3741                           
  3742                           ;C:\Program Files\Microchip\xc8\v2.41\pic\sources\c90\common\doprnt.c: 1448:   {;C:\Prog
      +                          ram Files\Microchip\xc8\v2.41\pic\sources\c90\common\doprnt.c: 1464:    if(flag & 0x03)
  3743     0110  1283               	bcf	3,5	;RP0=0, select bank0
  3744     0111  1303               	bcf	3,6	;RP1=0, select bank0
  3745     0112  084D               	movf	sprintf@flag,w
  3746     0113  3903               	andlw	3
  3747     0114  1903               	btfsc	3,2
  3748     0115  2917               	goto	u1191
  3749     0116  2918               	goto	u1190
  3750     0117                     u1191:
  3751     0117  295C               	goto	l1865
  3752     0118                     u1190:
  3753     0118                     l1855:
  3754                           
  3755                           ;C:\Program Files\Microchip\xc8\v2.41\pic\sources\c90\common\doprnt.c: 1465:     ((*sp++
      +                           = ('-')));
  3756     0118  0842               	movf	sprintf@sp,w
  3757     0119  0084               	movwf	4
  3758     011A  1783               	bsf	3,7
  3759     011B  1C43               	btfss	sprintf@sp+1,0
  3760     011C  1383               	bcf	3,7
  3761     011D  302D               	movlw	45
  3762     011E  0080               	movwf	0
  3763     011F                     l1857:
  3764     011F  3001               	movlw	1
  3765     0120  07C2               	addwf	sprintf@sp,f
  3766     0121  1803               	skipnc
  3767     0122  0AC3               	incf	sprintf@sp+1,f
  3768     0123  3000               	movlw	0
  3769     0124  07C3               	addwf	sprintf@sp+1,f
  3770     0125  295C               	goto	l1865
  3771     0126                     l1859:
  3772                           
  3773                           ;C:\Program Files\Microchip\xc8\v2.41\pic\sources\c90\common\doprnt.c: 1504:    {;C:\Pro
      +                          gram Files\Microchip\xc8\v2.41\pic\sources\c90\common\doprnt.c: 1515:     c = (val / dpo
      +                          wers[(unsigned char)prec]) % 10 + '0';
  3774     0126  300A               	movlw	10
  3775     0127  00BE               	movwf	___lwmod@divisor
  3776     0128  3000               	movlw	0
  3777     0129  00BF               	movwf	___lwmod@divisor+1
  3778     012A  0850               	movf	sprintf@prec,w
  3779     012B  00C9               	movwf	??_sprintf
  3780     012C  0749               	addwf	??_sprintf,w
  3781     012D  3E01               	addlw	low ((_dpowers-__stringbase)| (0+32768))
  3782     012E  0084               	movwf	4
  3783     012F  120A  118A  240A  120A  118A  	fcall	stringdir
  3784     0134  00F2               	movwf	___lwdiv@divisor
  3785     0135  120A  118A  240A  120A  118A  	fcall	stringdir
  3786     013A  00F3               	movwf	___lwdiv@divisor+1
  3787     013B  084F               	movf	sprintf@val+1,w
  3788     013C  00F5               	movwf	___lwdiv@dividend+1
  3789     013D  084E               	movf	sprintf@val,w
  3790     013E  00F4               	movwf	___lwdiv@dividend
  3791     013F  120A  118A  24ED  120A  118A  	fcall	___lwdiv
  3792     0144  0873               	movf	?___lwdiv+1,w
  3793     0145  1283               	bcf	3,5	;RP0=0, select bank0
  3794     0146  1303               	bcf	3,6	;RP1=0, select bank0
  3795     0147  00C1               	movwf	___lwmod@dividend+1
  3796     0148  0872               	movf	?___lwdiv,w
  3797     0149  00C0               	movwf	___lwmod@dividend
  3798     014A  120A  118A  25B1  120A  118A  	fcall	___lwmod
  3799     014F  1283               	bcf	3,5	;RP0=0, select bank0
  3800     0150  1303               	bcf	3,6	;RP1=0, select bank0
  3801     0151  083E               	movf	?___lwmod,w
  3802     0152  3E30               	addlw	48
  3803     0153  00D1               	movwf	sprintf@c
  3804     0154                     l1861:
  3805                           
  3806                           ;C:\Program Files\Microchip\xc8\v2.41\pic\sources\c90\common\doprnt.c: 1549:    };C:\Pro
      +                          gram Files\Microchip\xc8\v2.41\pic\sources\c90\common\doprnt.c: 1550:    ((*sp++ = (c)))
      +                          ;
  3807     0154  0842               	movf	sprintf@sp,w
  3808     0155  0084               	movwf	4
  3809     0156  1783               	bsf	3,7
  3810     0157  1C43               	btfss	sprintf@sp+1,0
  3811     0158  1383               	bcf	3,7
  3812     0159  0851               	movf	sprintf@c,w
  3813     015A  0080               	movwf	0
  3814     015B  291F               	goto	l1857
  3815     015C                     l1865:
  3816                           
  3817                           ;C:\Program Files\Microchip\xc8\v2.41\pic\sources\c90\common\doprnt.c: 1500:   while(pre
      +                          c--) {
  3818     015C  30FF               	movlw	255
  3819     015D  00FF               	movwf	btemp+1
  3820     015E  087F               	movf	btemp+1,w
  3821     015F  07D0               	addwf	sprintf@prec,f
  3822     0160  0A50               	incf	sprintf@prec,w
  3823     0161  1D03               	btfss	3,2
  3824     0162  2964               	goto	u1201
  3825     0163  2965               	goto	u1200
  3826     0164                     u1201:
  3827     0164  2926               	goto	l1859
  3828     0165                     u1200:
  3829     0165                     l1867:
  3830                           
  3831                           ;C:\Program Files\Microchip\xc8\v2.41\pic\sources\c90\common\doprnt.c: 553:  while((c = 
      +                          *f++)) {
  3832     0165  3001               	movlw	1
  3833     0166  07C4               	addwf	sprintf@f,f
  3834     0167  30FF               	movlw	-1
  3835     0168  0744               	addwf	sprintf@f,w
  3836     0169  0084               	movwf	4
  3837     016A  120A  118A  240A  120A  118A  	fcall	stringdir
  3838     016F  00D1               	movwf	sprintf@c
  3839     0170  0851               	movf	sprintf@c,w
  3840     0171  1D03               	btfss	3,2
  3841     0172  2974               	goto	u1211
  3842     0173  2975               	goto	u1210
  3843     0174                     u1211:
  3844     0174  2823               	goto	l1787
  3845     0175                     u1210:
  3846     0175                     l1869:
  3847                           
  3848                           ;C:\Program Files\Microchip\xc8\v2.41\pic\sources\c90\common\doprnt.c: 1564:  *sp = 0;
  3849     0175  0842               	movf	sprintf@sp,w
  3850     0176  0084               	movwf	4
  3851     0177  1783               	bsf	3,7
  3852     0178  1C43               	btfss	sprintf@sp+1,0
  3853     0179  1383               	bcf	3,7
  3854     017A  0180               	clrf	0
  3855     017B                     l482:
  3856     017B  0008               	return
  3857     017C                     __end_of_sprintf:
  3858                           
  3859                           	psect	text23
  3860     0730                     __ptext23:	
  3861 ;; *************** function _isdigit *****************
  3862 ;; Defined at:
  3863 ;;		line 8 in file "C:\Program Files\Microchip\xc8\v2.41\pic\sources\c90\common\isdigit.c"
  3864 ;; Parameters:    Size  Location     Type
  3865 ;;  c               1    wreg     unsigned char 
  3866 ;; Auto vars:     Size  Location     Type
  3867 ;;  c               1    3[COMMON] unsigned char 
  3868 ;; Return value:  Size  Location     Type
  3869 ;;		None               void
  3870 ;; Registers used:
  3871 ;;		wreg, status,2, status,0
  3872 ;; Tracked objects:
  3873 ;;		On entry : 0/0
  3874 ;;		On exit  : 0/0
  3875 ;;		Unchanged: 0/0
  3876 ;; Data sizes:     COMMON   BANK0   BANK1   BANK3   BANK2
  3877 ;;      Params:         0       0       0       0       0
  3878 ;;      Locals:         2       0       0       0       0
  3879 ;;      Temps:          0       0       0       0       0
  3880 ;;      Totals:         2       0       0       0       0
  3881 ;;Total ram usage:        2 bytes
  3882 ;; Hardware stack levels used: 1
  3883 ;; Hardware stack levels required when called: 1
  3884 ;; This function calls:
  3885 ;;		Nothing
  3886 ;; This function is called by:
  3887 ;;		_sprintf
  3888 ;; This function uses a non-reentrant model
  3889 ;;
  3890                           
  3891     0730                     _isdigit:	
  3892                           ;psect for function _isdigit
  3893                           
  3894                           
  3895                           ;incstack = 0
  3896                           ; Regs used in _isdigit: [wreg+status,2+status,0]
  3897                           ;isdigit@c stored from wreg
  3898     0730  00F3               	movwf	isdigit@c
  3899     0731                     l1643:
  3900     0731  01F2               	clrf	_isdigit$1164
  3901     0732                     l1645:
  3902     0732  303A               	movlw	58
  3903     0733  0273               	subwf	isdigit@c,w
  3904     0734  1803               	skipnc
  3905     0735  2F37               	goto	u831
  3906     0736  2F38               	goto	u830
  3907     0737                     u831:
  3908     0737  2F40               	goto	l1651
  3909     0738                     u830:
  3910     0738                     l1647:
  3911     0738  3030               	movlw	48
  3912     0739  0273               	subwf	isdigit@c,w
  3913     073A  1C03               	skipc
  3914     073B  2F3D               	goto	u841
  3915     073C  2F3E               	goto	u840
  3916     073D                     u841:
  3917     073D  2F40               	goto	l1651
  3918     073E                     u840:
  3919     073E                     l1649:
  3920     073E  01F2               	clrf	_isdigit$1164
  3921     073F  0AF2               	incf	_isdigit$1164,f
  3922     0740                     l1651:
  3923     0740  0C72               	rrf	_isdigit$1164,w
  3924     0741                     l939:
  3925     0741  0008               	return
  3926     0742                     __end_of_isdigit:
  3927                           
  3928                           	psect	text24
  3929     05B1                     __ptext24:	
  3930 ;; *************** function ___lwmod *****************
  3931 ;; Defined at:
  3932 ;;		line 5 in file "C:\Program Files\Microchip\xc8\v2.41\pic\sources\c90\common\lwmod.c"
  3933 ;; Parameters:    Size  Location     Type
  3934 ;;  divisor         2    0[BANK0 ] unsigned int 
  3935 ;;  dividend        2    2[BANK0 ] unsigned int 
  3936 ;; Auto vars:     Size  Location     Type
  3937 ;;  counter         1    9[COMMON] unsigned char 
  3938 ;; Return value:  Size  Location     Type
  3939 ;;                  2    0[BANK0 ] unsigned int 
  3940 ;; Registers used:
  3941 ;;		wreg, status,2, status,0, btemp+1
  3942 ;; Tracked objects:
  3943 ;;		On entry : 0/0
  3944 ;;		On exit  : 0/0
  3945 ;;		Unchanged: 0/0
  3946 ;; Data sizes:     COMMON   BANK0   BANK1   BANK3   BANK2
  3947 ;;      Params:         0       4       0       0       0
  3948 ;;      Locals:         1       0       0       0       0
  3949 ;;      Temps:          0       0       0       0       0
  3950 ;;      Totals:         1       4       0       0       0
  3951 ;;Total ram usage:        5 bytes
  3952 ;; Hardware stack levels used: 1
  3953 ;; Hardware stack levels required when called: 1
  3954 ;; This function calls:
  3955 ;;		Nothing
  3956 ;; This function is called by:
  3957 ;;		_sprintf
  3958 ;; This function uses a non-reentrant model
  3959 ;;
  3960                           
  3961     05B1                     ___lwmod:	
  3962                           ;psect for function ___lwmod
  3963                           
  3964     05B1                     l1723:	
  3965                           ;incstack = 0
  3966                           ; Regs used in ___lwmod: [wreg+status,2+status,0+btemp+1]
  3967                           
  3968     05B1  1283               	bcf	3,5	;RP0=0, select bank0
  3969     05B2  1303               	bcf	3,6	;RP1=0, select bank0
  3970     05B3  083E               	movf	___lwmod@divisor,w
  3971     05B4  043F               	iorwf	___lwmod@divisor+1,w
  3972     05B5  1903               	btfsc	3,2
  3973     05B6  2DB8               	goto	u1011
  3974     05B7  2DB9               	goto	u1010
  3975     05B8                     u1011:
  3976     05B8  2DE8               	goto	l1741
  3977     05B9                     u1010:
  3978     05B9                     l1725:
  3979     05B9  01F9               	clrf	___lwmod@counter
  3980     05BA  0AF9               	incf	___lwmod@counter,f
  3981     05BB  2DC7               	goto	l1731
  3982     05BC                     l1727:
  3983     05BC  3001               	movlw	1
  3984     05BD                     u1025:
  3985     05BD  1003               	clrc
  3986     05BE  0DBE               	rlf	___lwmod@divisor,f
  3987     05BF  0DBF               	rlf	___lwmod@divisor+1,f
  3988     05C0  3EFF               	addlw	-1
  3989     05C1  1D03               	skipz
  3990     05C2  2DBD               	goto	u1025
  3991     05C3                     l1729:
  3992     05C3  3001               	movlw	1
  3993     05C4  00FF               	movwf	btemp+1
  3994     05C5  087F               	movf	btemp+1,w
  3995     05C6  07F9               	addwf	___lwmod@counter,f
  3996     05C7                     l1731:
  3997     05C7  1FBF               	btfss	___lwmod@divisor+1,7
  3998     05C8  2DCA               	goto	u1031
  3999     05C9  2DCB               	goto	u1030
  4000     05CA                     u1031:
  4001     05CA  2DBC               	goto	l1727
  4002     05CB                     u1030:
  4003     05CB                     l1733:
  4004     05CB  083F               	movf	___lwmod@divisor+1,w
  4005     05CC  0241               	subwf	___lwmod@dividend+1,w
  4006     05CD  1D03               	skipz
  4007     05CE  2DD1               	goto	u1045
  4008     05CF  083E               	movf	___lwmod@divisor,w
  4009     05D0  0240               	subwf	___lwmod@dividend,w
  4010     05D1                     u1045:
  4011     05D1  1C03               	skipc
  4012     05D2  2DD4               	goto	u1041
  4013     05D3  2DD5               	goto	u1040
  4014     05D4                     u1041:
  4015     05D4  2DDB               	goto	l1737
  4016     05D5                     u1040:
  4017     05D5                     l1735:
  4018     05D5  083E               	movf	___lwmod@divisor,w
  4019     05D6  02C0               	subwf	___lwmod@dividend,f
  4020     05D7  083F               	movf	___lwmod@divisor+1,w
  4021     05D8  1C03               	skipc
  4022     05D9  03C1               	decf	___lwmod@dividend+1,f
  4023     05DA  02C1               	subwf	___lwmod@dividend+1,f
  4024     05DB                     l1737:
  4025     05DB  3001               	movlw	1
  4026     05DC                     u1055:
  4027     05DC  1003               	clrc
  4028     05DD  0CBF               	rrf	___lwmod@divisor+1,f
  4029     05DE  0CBE               	rrf	___lwmod@divisor,f
  4030     05DF  3EFF               	addlw	-1
  4031     05E0  1D03               	skipz
  4032     05E1  2DDC               	goto	u1055
  4033     05E2                     l1739:
  4034     05E2  3001               	movlw	1
  4035     05E3  02F9               	subwf	___lwmod@counter,f
  4036     05E4  1D03               	btfss	3,2
  4037     05E5  2DE7               	goto	u1061
  4038     05E6  2DE8               	goto	u1060
  4039     05E7                     u1061:
  4040     05E7  2DCB               	goto	l1733
  4041     05E8                     u1060:
  4042     05E8                     l1741:
  4043     05E8  0841               	movf	___lwmod@dividend+1,w
  4044     05E9  00BF               	movwf	?___lwmod+1
  4045     05EA  0840               	movf	___lwmod@dividend,w
  4046     05EB  00BE               	movwf	?___lwmod
  4047     05EC                     l768:
  4048     05EC  0008               	return
  4049     05ED                     __end_of___lwmod:
  4050                           
  4051                           	psect	text25
  4052     04ED                     __ptext25:	
  4053 ;; *************** function ___lwdiv *****************
  4054 ;; Defined at:
  4055 ;;		line 5 in file "C:\Program Files\Microchip\xc8\v2.41\pic\sources\c90\common\lwdiv.c"
  4056 ;; Parameters:    Size  Location     Type
  4057 ;;  divisor         2    2[COMMON] unsigned int 
  4058 ;;  dividend        2    4[COMMON] unsigned int 
  4059 ;; Auto vars:     Size  Location     Type
  4060 ;;  quotient        2    6[COMMON] unsigned int 
  4061 ;;  counter         1    8[COMMON] unsigned char 
  4062 ;; Return value:  Size  Location     Type
  4063 ;;                  2    2[COMMON] unsigned int 
  4064 ;; Registers used:
  4065 ;;		wreg, status,2, status,0, btemp+1
  4066 ;; Tracked objects:
  4067 ;;		On entry : 0/0
  4068 ;;		On exit  : 0/0
  4069 ;;		Unchanged: 0/0
  4070 ;; Data sizes:     COMMON   BANK0   BANK1   BANK3   BANK2
  4071 ;;      Params:         4       0       0       0       0
  4072 ;;      Locals:         3       0       0       0       0
  4073 ;;      Temps:          0       0       0       0       0
  4074 ;;      Totals:         7       0       0       0       0
  4075 ;;Total ram usage:        7 bytes
  4076 ;; Hardware stack levels used: 1
  4077 ;; Hardware stack levels required when called: 1
  4078 ;; This function calls:
  4079 ;;		Nothing
  4080 ;; This function is called by:
  4081 ;;		_sprintf
  4082 ;; This function uses a non-reentrant model
  4083 ;;
  4084                           
  4085     04ED                     ___lwdiv:	
  4086                           ;psect for function ___lwdiv
  4087                           
  4088     04ED                     l1697:	
  4089                           ;incstack = 0
  4090                           ; Regs used in ___lwdiv: [wreg+status,2+status,0+btemp+1]
  4091                           
  4092     04ED  01F6               	clrf	___lwdiv@quotient
  4093     04EE  01F7               	clrf	___lwdiv@quotient+1
  4094     04EF                     l1699:
  4095     04EF  0872               	movf	___lwdiv@divisor,w
  4096     04F0  0473               	iorwf	___lwdiv@divisor+1,w
  4097     04F1  1903               	btfsc	3,2
  4098     04F2  2CF4               	goto	u941
  4099     04F3  2CF5               	goto	u940
  4100     04F4                     u941:
  4101     04F4  2D2C               	goto	l1719
  4102     04F5                     u940:
  4103     04F5                     l1701:
  4104     04F5  01F8               	clrf	___lwdiv@counter
  4105     04F6  0AF8               	incf	___lwdiv@counter,f
  4106     04F7  2D03               	goto	l1707
  4107     04F8                     l1703:
  4108     04F8  3001               	movlw	1
  4109     04F9                     u955:
  4110     04F9  1003               	clrc
  4111     04FA  0DF2               	rlf	___lwdiv@divisor,f
  4112     04FB  0DF3               	rlf	___lwdiv@divisor+1,f
  4113     04FC  3EFF               	addlw	-1
  4114     04FD  1D03               	skipz
  4115     04FE  2CF9               	goto	u955
  4116     04FF                     l1705:
  4117     04FF  3001               	movlw	1
  4118     0500  00FF               	movwf	btemp+1
  4119     0501  087F               	movf	btemp+1,w
  4120     0502  07F8               	addwf	___lwdiv@counter,f
  4121     0503                     l1707:
  4122     0503  1FF3               	btfss	___lwdiv@divisor+1,7
  4123     0504  2D06               	goto	u961
  4124     0505  2D07               	goto	u960
  4125     0506                     u961:
  4126     0506  2CF8               	goto	l1703
  4127     0507                     u960:
  4128     0507                     l1709:
  4129     0507  3001               	movlw	1
  4130     0508                     u975:
  4131     0508  1003               	clrc
  4132     0509  0DF6               	rlf	___lwdiv@quotient,f
  4133     050A  0DF7               	rlf	___lwdiv@quotient+1,f
  4134     050B  3EFF               	addlw	-1
  4135     050C  1D03               	skipz
  4136     050D  2D08               	goto	u975
  4137     050E  0873               	movf	___lwdiv@divisor+1,w
  4138     050F  0275               	subwf	___lwdiv@dividend+1,w
  4139     0510  1D03               	skipz
  4140     0511  2D14               	goto	u985
  4141     0512  0872               	movf	___lwdiv@divisor,w
  4142     0513  0274               	subwf	___lwdiv@dividend,w
  4143     0514                     u985:
  4144     0514  1C03               	skipc
  4145     0515  2D17               	goto	u981
  4146     0516  2D18               	goto	u980
  4147     0517                     u981:
  4148     0517  2D1F               	goto	l1715
  4149     0518                     u980:
  4150     0518                     l1711:
  4151     0518  0872               	movf	___lwdiv@divisor,w
  4152     0519  02F4               	subwf	___lwdiv@dividend,f
  4153     051A  0873               	movf	___lwdiv@divisor+1,w
  4154     051B  1C03               	skipc
  4155     051C  03F5               	decf	___lwdiv@dividend+1,f
  4156     051D  02F5               	subwf	___lwdiv@dividend+1,f
  4157     051E                     l1713:
  4158     051E  1476               	bsf	___lwdiv@quotient,0
  4159     051F                     l1715:
  4160     051F  3001               	movlw	1
  4161     0520                     u995:
  4162     0520  1003               	clrc
  4163     0521  0CF3               	rrf	___lwdiv@divisor+1,f
  4164     0522  0CF2               	rrf	___lwdiv@divisor,f
  4165     0523  3EFF               	addlw	-1
  4166     0524  1D03               	skipz
  4167     0525  2D20               	goto	u995
  4168     0526                     l1717:
  4169     0526  3001               	movlw	1
  4170     0527  02F8               	subwf	___lwdiv@counter,f
  4171     0528  1D03               	btfss	3,2
  4172     0529  2D2B               	goto	u1001
  4173     052A  2D2C               	goto	u1000
  4174     052B                     u1001:
  4175     052B  2D07               	goto	l1709
  4176     052C                     u1000:
  4177     052C                     l1719:
  4178     052C  0877               	movf	___lwdiv@quotient+1,w
  4179     052D  00F3               	movwf	?___lwdiv+1
  4180     052E  0876               	movf	___lwdiv@quotient,w
  4181     052F  00F2               	movwf	?___lwdiv
  4182     0530                     l758:
  4183     0530  0008               	return
  4184     0531                     __end_of___lwdiv:
  4185                           
  4186                           	psect	text26
  4187     071B                     __ptext26:	
  4188 ;; *************** function ___bmul *****************
  4189 ;; Defined at:
  4190 ;;		line 4 in file "C:\Program Files\Microchip\xc8\v2.41\pic\sources\c90\common\Umul8.c"
  4191 ;; Parameters:    Size  Location     Type
  4192 ;;  multiplier      1    wreg     unsigned char 
  4193 ;;  multiplicand    1    2[COMMON] unsigned char 
  4194 ;; Auto vars:     Size  Location     Type
  4195 ;;  multiplier      1    4[COMMON] unsigned char 
  4196 ;;  product         1    3[COMMON] unsigned char 
  4197 ;; Return value:  Size  Location     Type
  4198 ;;                  1    wreg      unsigned char 
  4199 ;; Registers used:
  4200 ;;		wreg, status,2, status,0, btemp+1
  4201 ;; Tracked objects:
  4202 ;;		On entry : 0/0
  4203 ;;		On exit  : 0/0
  4204 ;;		Unchanged: 0/0
  4205 ;; Data sizes:     COMMON   BANK0   BANK1   BANK3   BANK2
  4206 ;;      Params:         1       0       0       0       0
  4207 ;;      Locals:         2       0       0       0       0
  4208 ;;      Temps:          0       0       0       0       0
  4209 ;;      Totals:         3       0       0       0       0
  4210 ;;Total ram usage:        3 bytes
  4211 ;; Hardware stack levels used: 1
  4212 ;; Hardware stack levels required when called: 1
  4213 ;; This function calls:
  4214 ;;		Nothing
  4215 ;; This function is called by:
  4216 ;;		_sprintf
  4217 ;; This function uses a non-reentrant model
  4218 ;;
  4219                           
  4220     071B                     ___bmul:	
  4221                           ;psect for function ___bmul
  4222                           
  4223                           
  4224                           ;incstack = 0
  4225                           ; Regs used in ___bmul: [wreg+status,2+status,0+btemp+1]
  4226                           ;___bmul@multiplier stored from wreg
  4227     071B  00F4               	movwf	___bmul@multiplier
  4228     071C                     l1655:
  4229     071C  01F3               	clrf	___bmul@product
  4230     071D                     l1657:
  4231     071D  1C74               	btfss	___bmul@multiplier,0
  4232     071E  2F20               	goto	u851
  4233     071F  2F21               	goto	u850
  4234     0720                     u851:
  4235     0720  2F25               	goto	l1661
  4236     0721                     u850:
  4237     0721                     l1659:
  4238     0721  0872               	movf	___bmul@multiplicand,w
  4239     0722  00FF               	movwf	btemp+1
  4240     0723  087F               	movf	btemp+1,w
  4241     0724  07F3               	addwf	___bmul@product,f
  4242     0725                     l1661:
  4243     0725  1003               	clrc
  4244     0726  0DF2               	rlf	___bmul@multiplicand,f
  4245     0727                     l1663:
  4246     0727  1003               	clrc
  4247     0728  0CF4               	rrf	___bmul@multiplier,f
  4248     0729                     l1665:
  4249     0729  0874               	movf	___bmul@multiplier,w
  4250     072A  1D03               	btfss	3,2
  4251     072B  2F2D               	goto	u861
  4252     072C  2F2E               	goto	u860
  4253     072D                     u861:
  4254     072D  2F1D               	goto	l1657
  4255     072E                     u860:
  4256     072E                     l1667:
  4257     072E  0873               	movf	___bmul@product,w
  4258     072F                     l512:
  4259     072F  0008               	return
  4260     0730                     __end_of___bmul:
  4261                           
  4262                           	psect	text27
  4263     07A5                     __ptext27:	
  4264 ;; *************** function _dcStop *****************
  4265 ;; Defined at:
  4266 ;;		line 325 in file "E:/Universidad/Semestre2_2023/Digital-2/Proyecto1/Master/MasterPIC.X/MasterPIC.c"
  4267 ;; Parameters:    Size  Location     Type
  4268 ;;		None
  4269 ;; Auto vars:     Size  Location     Type
  4270 ;;		None
  4271 ;; Return value:  Size  Location     Type
  4272 ;;                  1    wreg      void 
  4273 ;; Registers used:
  4274 ;;		None
  4275 ;; Tracked objects:
  4276 ;;		On entry : 0/0
  4277 ;;		On exit  : 0/0
  4278 ;;		Unchanged: 0/0
  4279 ;; Data sizes:     COMMON   BANK0   BANK1   BANK3   BANK2
  4280 ;;      Params:         0       0       0       0       0
  4281 ;;      Locals:         0       0       0       0       0
  4282 ;;      Temps:          0       0       0       0       0
  4283 ;;      Totals:         0       0       0       0       0
  4284 ;;Total ram usage:        0 bytes
  4285 ;; Hardware stack levels used: 1
  4286 ;; Hardware stack levels required when called: 1
  4287 ;; This function calls:
  4288 ;;		Nothing
  4289 ;; This function is called by:
  4290 ;;		_LCDprint
  4291 ;; This function uses a non-reentrant model
  4292 ;;
  4293                           
  4294     07A5                     _dcStop:	
  4295                           ;psect for function _dcStop
  4296                           
  4297     07A5                     l1911:	
  4298                           ;incstack = 0
  4299                           ; Regs used in _dcStop: []
  4300                           
  4301                           
  4302                           ;E:/Universidad/Semestre2_2023/Digital-2/Proyecto1/Master/MasterPIC.X/MasterPIC.c: 326: 
      +                              RA0 = 1;
  4303     07A5  1283               	bcf	3,5	;RP0=0, select bank0
  4304     07A6  1303               	bcf	3,6	;RP1=0, select bank0
  4305     07A7  1405               	bsf	5,0	;volatile
  4306                           
  4307                           ;E:/Universidad/Semestre2_2023/Digital-2/Proyecto1/Master/MasterPIC.X/MasterPIC.c: 327: 
      +                              RA1 = 0;
  4308     07A8  1085               	bcf	5,1	;volatile
  4309                           
  4310                           ;E:/Universidad/Semestre2_2023/Digital-2/Proyecto1/Master/MasterPIC.X/MasterPIC.c: 328: 
      +                              RA2 = 0;
  4311     07A9  1105               	bcf	5,2	;volatile
  4312                           
  4313                           ;E:/Universidad/Semestre2_2023/Digital-2/Proyecto1/Master/MasterPIC.X/MasterPIC.c: 330: 
      +                              RA5 = 1;
  4314     07AA  1685               	bsf	5,5	;volatile
  4315                           
  4316                           ;E:/Universidad/Semestre2_2023/Digital-2/Proyecto1/Master/MasterPIC.X/MasterPIC.c: 331: 
      +                              RA3 = 0;
  4317     07AB  1185               	bcf	5,3	;volatile
  4318                           
  4319                           ;E:/Universidad/Semestre2_2023/Digital-2/Proyecto1/Master/MasterPIC.X/MasterPIC.c: 332: 
      +                              RA4 = 0;
  4320     07AC  1205               	bcf	5,4	;volatile
  4321     07AD                     l229:
  4322     07AD  0008               	return
  4323     07AE                     __end_of_dcStop:
  4324                           
  4325                           	psect	text28
  4326     075F                     __ptext28:	
  4327 ;; *************** function _Lcd_Clear *****************
  4328 ;; Defined at:
  4329 ;;		line 63 in file "E:/Universidad/Semestre2_2023/Digital-2/Proyecto1/Master/MasterPIC.X/LCD.c"
  4330 ;; Parameters:    Size  Location     Type
  4331 ;;		None
  4332 ;; Auto vars:     Size  Location     Type
  4333 ;;		None
  4334 ;; Return value:  Size  Location     Type
  4335 ;;                  1    wreg      void 
  4336 ;; Registers used:
  4337 ;;		wreg, status,2, status,0, pclath, cstack
  4338 ;; Tracked objects:
  4339 ;;		On entry : 0/0
  4340 ;;		On exit  : 0/0
  4341 ;;		Unchanged: 0/0
  4342 ;; Data sizes:     COMMON   BANK0   BANK1   BANK3   BANK2
  4343 ;;      Params:         0       0       0       0       0
  4344 ;;      Locals:         0       0       0       0       0
  4345 ;;      Temps:          0       0       0       0       0
  4346 ;;      Totals:         0       0       0       0       0
  4347 ;;Total ram usage:        0 bytes
  4348 ;; Hardware stack levels used: 1
  4349 ;; Hardware stack levels required when called: 3
  4350 ;; This function calls:
  4351 ;;		_Lcd_Cmd
  4352 ;; This function is called by:
  4353 ;;		_LCDprint
  4354 ;; This function uses a non-reentrant model
  4355 ;;
  4356                           
  4357     075F                     _Lcd_Clear:	
  4358                           ;psect for function _Lcd_Clear
  4359                           
  4360     075F                     l2223:	
  4361                           ;incstack = 0
  4362                           ; Regs used in _Lcd_Clear: [wreg+status,2+status,0+pclath+cstack]
  4363                           
  4364                           
  4365                           ;E:/Universidad/Semestre2_2023/Digital-2/Proyecto1/Master/MasterPIC.X/LCD.c: 64:     Lcd
      +                          _Cmd(0);
  4366     075F  3000               	movlw	0
  4367     0760  120A  118A  26EB  120A  118A  	fcall	_Lcd_Cmd
  4368                           
  4369                           ;E:/Universidad/Semestre2_2023/Digital-2/Proyecto1/Master/MasterPIC.X/LCD.c: 65:     Lcd
      +                          _Cmd(1);
  4370     0765  3001               	movlw	1
  4371     0766  120A  118A  26EB  120A  118A  	fcall	_Lcd_Cmd
  4372     076B                     l281:
  4373     076B  0008               	return
  4374     076C                     __end_of_Lcd_Clear:
  4375                           
  4376                           	psect	text29
  4377     06EB                     __ptext29:	
  4378 ;; *************** function _Lcd_Cmd *****************
  4379 ;; Defined at:
  4380 ;;		line 55 in file "E:/Universidad/Semestre2_2023/Digital-2/Proyecto1/Master/MasterPIC.X/LCD.c"
  4381 ;; Parameters:    Size  Location     Type
  4382 ;;  a               1    wreg     unsigned char 
  4383 ;; Auto vars:     Size  Location     Type
  4384 ;;  a               1    5[COMMON] unsigned char 
  4385 ;; Return value:  Size  Location     Type
  4386 ;;                  1    wreg      void 
  4387 ;; Registers used:
  4388 ;;		wreg, status,2, status,0, pclath, cstack
  4389 ;; Tracked objects:
  4390 ;;		On entry : 0/0
  4391 ;;		On exit  : 0/0
  4392 ;;		Unchanged: 0/0
  4393 ;; Data sizes:     COMMON   BANK0   BANK1   BANK3   BANK2
  4394 ;;      Params:         0       0       0       0       0
  4395 ;;      Locals:         1       0       0       0       0
  4396 ;;      Temps:          2       0       0       0       0
  4397 ;;      Totals:         3       0       0       0       0
  4398 ;;Total ram usage:        3 bytes
  4399 ;; Hardware stack levels used: 1
  4400 ;; Hardware stack levels required when called: 2
  4401 ;; This function calls:
  4402 ;;		_Lcd_Port
  4403 ;; This function is called by:
  4404 ;;		_Lcd_Clear
  4405 ;;		_Lcd_Set_Cursor
  4406 ;;		_Lcd_Init
  4407 ;;		_Lcd_Shift_Right
  4408 ;;		_Lcd_Shift_Left
  4409 ;; This function uses a non-reentrant model
  4410 ;;
  4411                           
  4412     06EB                     _Lcd_Cmd:	
  4413                           ;psect for function _Lcd_Cmd
  4414                           
  4415                           
  4416                           ;incstack = 0
  4417                           ; Regs used in _Lcd_Cmd: [wreg+status,2+status,0+pclath+cstack]
  4418                           ;Lcd_Cmd@a stored from wreg
  4419     06EB  00F5               	movwf	Lcd_Cmd@a
  4420     06EC                     l2135:
  4421                           
  4422                           ;E:/Universidad/Semestre2_2023/Digital-2/Proyecto1/Master/MasterPIC.X/LCD.c: 56:     RC0
      +                           = 0;
  4423     06EC  1283               	bcf	3,5	;RP0=0, select bank0
  4424     06ED  1303               	bcf	3,6	;RP1=0, select bank0
  4425     06EE  1007               	bcf	7,0	;volatile
  4426     06EF                     l2137:
  4427                           
  4428                           ;E:/Universidad/Semestre2_2023/Digital-2/Proyecto1/Master/MasterPIC.X/LCD.c: 57:     Lcd
      +                          _Port(a);
  4429     06EF  0875               	movf	Lcd_Cmd@a,w
  4430     06F0  120A  118A  2573  120A  118A  	fcall	_Lcd_Port
  4431     06F5                     l2139:
  4432                           
  4433                           ;E:/Universidad/Semestre2_2023/Digital-2/Proyecto1/Master/MasterPIC.X/LCD.c: 58:     RC1
      +                           = 1;
  4434     06F5  1283               	bcf	3,5	;RP0=0, select bank0
  4435     06F6  1303               	bcf	3,6	;RP1=0, select bank0
  4436     06F7  1487               	bsf	7,1	;volatile
  4437     06F8                     l2141:
  4438                           
  4439                           ;E:/Universidad/Semestre2_2023/Digital-2/Proyecto1/Master/MasterPIC.X/LCD.c: 59:     _de
      +                          lay((unsigned long)((4)*(8000000/4000.0)));
  4440     06F8  300B               	movlw	11
  4441     06F9  00F4               	movwf	??_Lcd_Cmd+1
  4442     06FA  3062               	movlw	98
  4443     06FB  00F3               	movwf	??_Lcd_Cmd
  4444     06FC                     u1657:
  4445     06FC  0BF3               	decfsz	??_Lcd_Cmd,f
  4446     06FD  2EFC               	goto	u1657
  4447     06FE  0BF4               	decfsz	??_Lcd_Cmd+1,f
  4448     06FF  2EFC               	goto	u1657
  4449     0700  0000               	nop
  4450     0701                     l2143:
  4451                           
  4452                           ;E:/Universidad/Semestre2_2023/Digital-2/Proyecto1/Master/MasterPIC.X/LCD.c: 60:     RC1
      +                           = 0;
  4453     0701  1283               	bcf	3,5	;RP0=0, select bank0
  4454     0702  1303               	bcf	3,6	;RP1=0, select bank0
  4455     0703  1087               	bcf	7,1	;volatile
  4456     0704                     l278:
  4457     0704  0008               	return
  4458     0705                     __end_of_Lcd_Cmd:
  4459                           
  4460                           	psect	text30
  4461     0573                     __ptext30:	
  4462 ;; *************** function _Lcd_Port *****************
  4463 ;; Defined at:
  4464 ;;		line 13 in file "E:/Universidad/Semestre2_2023/Digital-2/Proyecto1/Master/MasterPIC.X/LCD.c"
  4465 ;; Parameters:    Size  Location     Type
  4466 ;;  a               1    wreg     unsigned char 
  4467 ;; Auto vars:     Size  Location     Type
  4468 ;;  a               1    2[COMMON] unsigned char 
  4469 ;; Return value:  Size  Location     Type
  4470 ;;                  1    wreg      void 
  4471 ;; Registers used:
  4472 ;;		wreg
  4473 ;; Tracked objects:
  4474 ;;		On entry : 0/0
  4475 ;;		On exit  : 0/0
  4476 ;;		Unchanged: 0/0
  4477 ;; Data sizes:     COMMON   BANK0   BANK1   BANK3   BANK2
  4478 ;;      Params:         0       0       0       0       0
  4479 ;;      Locals:         1       0       0       0       0
  4480 ;;      Temps:          0       0       0       0       0
  4481 ;;      Totals:         1       0       0       0       0
  4482 ;;Total ram usage:        1 bytes
  4483 ;; Hardware stack levels used: 1
  4484 ;; Hardware stack levels required when called: 1
  4485 ;; This function calls:
  4486 ;;		Nothing
  4487 ;; This function is called by:
  4488 ;;		_Lcd_Cmd
  4489 ;;		_Lcd_Init
  4490 ;;		_Lcd_Write_Char
  4491 ;; This function uses a non-reentrant model
  4492 ;;
  4493                           
  4494     0573                     _Lcd_Port:	
  4495                           ;psect for function _Lcd_Port
  4496                           
  4497                           
  4498                           ;incstack = 0
  4499                           ; Regs used in _Lcd_Port: [wreg]
  4500                           ;Lcd_Port@a stored from wreg
  4501     0573  00F2               	movwf	Lcd_Port@a
  4502     0574                     l2117:
  4503                           
  4504                           ;E:/Universidad/Semestre2_2023/Digital-2/Proyecto1/Master/MasterPIC.X/LCD.c: 14:     if 
      +                          (a & 1)
  4505     0574  1C72               	btfss	Lcd_Port@a,0
  4506     0575  2D77               	goto	u1321
  4507     0576  2D78               	goto	u1320
  4508     0577                     u1321:
  4509     0577  2D7C               	goto	l259
  4510     0578                     u1320:
  4511     0578                     l2119:
  4512                           
  4513                           ;E:/Universidad/Semestre2_2023/Digital-2/Proyecto1/Master/MasterPIC.X/LCD.c: 15:        
      +                           RD0 = 1;
  4514     0578  1283               	bcf	3,5	;RP0=0, select bank0
  4515     0579  1303               	bcf	3,6	;RP1=0, select bank0
  4516     057A  1408               	bsf	8,0	;volatile
  4517     057B  2D7F               	goto	l260
  4518     057C                     l259:	
  4519                           ;E:/Universidad/Semestre2_2023/Digital-2/Proyecto1/Master/MasterPIC.X/LCD.c: 16:     els
      +                          e
  4520                           
  4521                           
  4522                           ;E:/Universidad/Semestre2_2023/Digital-2/Proyecto1/Master/MasterPIC.X/LCD.c: 17:        
      +                           RD0 = 0;
  4523     057C  1283               	bcf	3,5	;RP0=0, select bank0
  4524     057D  1303               	bcf	3,6	;RP1=0, select bank0
  4525     057E  1008               	bcf	8,0	;volatile
  4526     057F                     l260:
  4527                           
  4528                           ;E:/Universidad/Semestre2_2023/Digital-2/Proyecto1/Master/MasterPIC.X/LCD.c: 19:     if 
      +                          (a & 2)
  4529     057F  1CF2               	btfss	Lcd_Port@a,1
  4530     0580  2D82               	goto	u1331
  4531     0581  2D83               	goto	u1330
  4532     0582                     u1331:
  4533     0582  2D85               	goto	l261
  4534     0583                     u1330:
  4535     0583                     l2121:
  4536                           
  4537                           ;E:/Universidad/Semestre2_2023/Digital-2/Proyecto1/Master/MasterPIC.X/LCD.c: 20:        
      +                           RD1 = 1;
  4538     0583  1488               	bsf	8,1	;volatile
  4539     0584  2D86               	goto	l262
  4540     0585                     l261:	
  4541                           ;E:/Universidad/Semestre2_2023/Digital-2/Proyecto1/Master/MasterPIC.X/LCD.c: 21:     els
      +                          e
  4542                           
  4543                           
  4544                           ;E:/Universidad/Semestre2_2023/Digital-2/Proyecto1/Master/MasterPIC.X/LCD.c: 22:        
      +                           RD1 = 0;
  4545     0585  1088               	bcf	8,1	;volatile
  4546     0586                     l262:
  4547                           
  4548                           ;E:/Universidad/Semestre2_2023/Digital-2/Proyecto1/Master/MasterPIC.X/LCD.c: 24:     if 
      +                          (a & 4)
  4549     0586  1D72               	btfss	Lcd_Port@a,2
  4550     0587  2D89               	goto	u1341
  4551     0588  2D8A               	goto	u1340
  4552     0589                     u1341:
  4553     0589  2D8C               	goto	l263
  4554     058A                     u1340:
  4555     058A                     l2123:
  4556                           
  4557                           ;E:/Universidad/Semestre2_2023/Digital-2/Proyecto1/Master/MasterPIC.X/LCD.c: 25:        
      +                           RD2 = 1;
  4558     058A  1508               	bsf	8,2	;volatile
  4559     058B  2D8D               	goto	l264
  4560     058C                     l263:	
  4561                           ;E:/Universidad/Semestre2_2023/Digital-2/Proyecto1/Master/MasterPIC.X/LCD.c: 26:     els
      +                          e
  4562                           
  4563                           
  4564                           ;E:/Universidad/Semestre2_2023/Digital-2/Proyecto1/Master/MasterPIC.X/LCD.c: 27:        
      +                           RD2 = 0;
  4565     058C  1108               	bcf	8,2	;volatile
  4566     058D                     l264:
  4567                           
  4568                           ;E:/Universidad/Semestre2_2023/Digital-2/Proyecto1/Master/MasterPIC.X/LCD.c: 29:     if 
      +                          (a & 8)
  4569     058D  1DF2               	btfss	Lcd_Port@a,3
  4570     058E  2D90               	goto	u1351
  4571     058F  2D91               	goto	u1350
  4572     0590                     u1351:
  4573     0590  2D93               	goto	l265
  4574     0591                     u1350:
  4575     0591                     l2125:
  4576                           
  4577                           ;E:/Universidad/Semestre2_2023/Digital-2/Proyecto1/Master/MasterPIC.X/LCD.c: 30:        
      +                           RD3 = 1;
  4578     0591  1588               	bsf	8,3	;volatile
  4579     0592  2D94               	goto	l266
  4580     0593                     l265:	
  4581                           ;E:/Universidad/Semestre2_2023/Digital-2/Proyecto1/Master/MasterPIC.X/LCD.c: 31:     els
      +                          e
  4582                           
  4583                           
  4584                           ;E:/Universidad/Semestre2_2023/Digital-2/Proyecto1/Master/MasterPIC.X/LCD.c: 32:        
      +                           RD3 = 0;
  4585     0593  1188               	bcf	8,3	;volatile
  4586     0594                     l266:
  4587                           
  4588                           ;E:/Universidad/Semestre2_2023/Digital-2/Proyecto1/Master/MasterPIC.X/LCD.c: 34:     if 
      +                          (a & 16)
  4589     0594  1E72               	btfss	Lcd_Port@a,4
  4590     0595  2D97               	goto	u1361
  4591     0596  2D98               	goto	u1360
  4592     0597                     u1361:
  4593     0597  2D9A               	goto	l267
  4594     0598                     u1360:
  4595     0598                     l2127:
  4596                           
  4597                           ;E:/Universidad/Semestre2_2023/Digital-2/Proyecto1/Master/MasterPIC.X/LCD.c: 35:        
      +                           RD4 = 1;
  4598     0598  1608               	bsf	8,4	;volatile
  4599     0599  2D9B               	goto	l268
  4600     059A                     l267:	
  4601                           ;E:/Universidad/Semestre2_2023/Digital-2/Proyecto1/Master/MasterPIC.X/LCD.c: 36:     els
      +                          e
  4602                           
  4603                           
  4604                           ;E:/Universidad/Semestre2_2023/Digital-2/Proyecto1/Master/MasterPIC.X/LCD.c: 37:        
      +                           RD4 = 0;
  4605     059A  1208               	bcf	8,4	;volatile
  4606     059B                     l268:
  4607                           
  4608                           ;E:/Universidad/Semestre2_2023/Digital-2/Proyecto1/Master/MasterPIC.X/LCD.c: 39:     if 
      +                          (a & 32)
  4609     059B  1EF2               	btfss	Lcd_Port@a,5
  4610     059C  2D9E               	goto	u1371
  4611     059D  2D9F               	goto	u1370
  4612     059E                     u1371:
  4613     059E  2DA1               	goto	l269
  4614     059F                     u1370:
  4615     059F                     l2129:
  4616                           
  4617                           ;E:/Universidad/Semestre2_2023/Digital-2/Proyecto1/Master/MasterPIC.X/LCD.c: 40:        
      +                           RD5 = 1;
  4618     059F  1688               	bsf	8,5	;volatile
  4619     05A0  2DA2               	goto	l270
  4620     05A1                     l269:	
  4621                           ;E:/Universidad/Semestre2_2023/Digital-2/Proyecto1/Master/MasterPIC.X/LCD.c: 41:     els
      +                          e
  4622                           
  4623                           
  4624                           ;E:/Universidad/Semestre2_2023/Digital-2/Proyecto1/Master/MasterPIC.X/LCD.c: 42:        
      +                           RD5 = 0;
  4625     05A1  1288               	bcf	8,5	;volatile
  4626     05A2                     l270:
  4627                           
  4628                           ;E:/Universidad/Semestre2_2023/Digital-2/Proyecto1/Master/MasterPIC.X/LCD.c: 44:     if 
      +                          (a & 64)
  4629     05A2  1F72               	btfss	Lcd_Port@a,6
  4630     05A3  2DA5               	goto	u1381
  4631     05A4  2DA6               	goto	u1380
  4632     05A5                     u1381:
  4633     05A5  2DA8               	goto	l271
  4634     05A6                     u1380:
  4635     05A6                     l2131:
  4636                           
  4637                           ;E:/Universidad/Semestre2_2023/Digital-2/Proyecto1/Master/MasterPIC.X/LCD.c: 45:        
      +                           RD6 = 1;
  4638     05A6  1708               	bsf	8,6	;volatile
  4639     05A7  2DA9               	goto	l272
  4640     05A8                     l271:	
  4641                           ;E:/Universidad/Semestre2_2023/Digital-2/Proyecto1/Master/MasterPIC.X/LCD.c: 46:     els
      +                          e
  4642                           
  4643                           
  4644                           ;E:/Universidad/Semestre2_2023/Digital-2/Proyecto1/Master/MasterPIC.X/LCD.c: 47:        
      +                           RD6 = 0;
  4645     05A8  1308               	bcf	8,6	;volatile
  4646     05A9                     l272:
  4647                           
  4648                           ;E:/Universidad/Semestre2_2023/Digital-2/Proyecto1/Master/MasterPIC.X/LCD.c: 49:     if 
      +                          (a & 128)
  4649     05A9  1FF2               	btfss	Lcd_Port@a,7
  4650     05AA  2DAC               	goto	u1391
  4651     05AB  2DAD               	goto	u1390
  4652     05AC                     u1391:
  4653     05AC  2DAF               	goto	l273
  4654     05AD                     u1390:
  4655     05AD                     l2133:
  4656                           
  4657                           ;E:/Universidad/Semestre2_2023/Digital-2/Proyecto1/Master/MasterPIC.X/LCD.c: 50:        
      +                           RD7 = 1;
  4658     05AD  1788               	bsf	8,7	;volatile
  4659     05AE  2DB0               	goto	l275
  4660     05AF                     l273:	
  4661                           ;E:/Universidad/Semestre2_2023/Digital-2/Proyecto1/Master/MasterPIC.X/LCD.c: 51:     els
      +                          e
  4662                           
  4663                           
  4664                           ;E:/Universidad/Semestre2_2023/Digital-2/Proyecto1/Master/MasterPIC.X/LCD.c: 52:        
      +                           RD7 = 0;
  4665     05AF  1388               	bcf	8,7	;volatile
  4666     05B0                     l275:
  4667     05B0  0008               	return
  4668     05B1                     __end_of_Lcd_Port:
  4669                           
  4670                           	psect	text31
  4671     06CB                     __ptext31:	
  4672 ;; *************** function _isr *****************
  4673 ;; Defined at:
  4674 ;;		line 91 in file "E:/Universidad/Semestre2_2023/Digital-2/Proyecto1/Master/MasterPIC.X/MasterPIC.c"
  4675 ;; Parameters:    Size  Location     Type
  4676 ;;		None
  4677 ;; Auto vars:     Size  Location     Type
  4678 ;;		None
  4679 ;; Return value:  Size  Location     Type
  4680 ;;                  1    wreg      void 
  4681 ;; Registers used:
  4682 ;;		wreg, status,2, status,0
  4683 ;; Tracked objects:
  4684 ;;		On entry : 0/0
  4685 ;;		On exit  : 0/0
  4686 ;;		Unchanged: 0/0
  4687 ;; Data sizes:     COMMON   BANK0   BANK1   BANK3   BANK2
  4688 ;;      Params:         0       0       0       0       0
  4689 ;;      Locals:         0       0       0       0       0
  4690 ;;      Temps:          2       0       0       0       0
  4691 ;;      Totals:         2       0       0       0       0
  4692 ;;Total ram usage:        2 bytes
  4693 ;; Hardware stack levels used: 1
  4694 ;; This function calls:
  4695 ;;		Nothing
  4696 ;; This function is called by:
  4697 ;;		Interrupt level 1
  4698 ;; This function uses a non-reentrant model
  4699 ;;
  4700                           
  4701     06CB                     _isr:	
  4702                           ;psect for function _isr
  4703                           
  4704     06CB                     i1l2045:
  4705                           
  4706                           ;E:/Universidad/Semestre2_2023/Digital-2/Proyecto1/Master/MasterPIC.X/MasterPIC.c: 93:  
      +                             if(RBIF == 1) {
  4707     06CB  1C0B               	btfss	11,0	;volatile
  4708     06CC  2ECE               	goto	u128_21
  4709     06CD  2ECF               	goto	u128_20
  4710     06CE                     u128_21:
  4711     06CE  2EE4               	goto	i1l188
  4712     06CF                     u128_20:
  4713     06CF                     i1l2047:
  4714                           
  4715                           ;E:/Universidad/Semestre2_2023/Digital-2/Proyecto1/Master/MasterPIC.X/MasterPIC.c: 94:  
      +                             if (RB0 == 1){
  4716     06CF  1283               	bcf	3,5	;RP0=0, select bank0
  4717     06D0  1303               	bcf	3,6	;RP1=0, select bank0
  4718     06D1  1C06               	btfss	6,0	;volatile
  4719     06D2  2ED4               	goto	u129_21
  4720     06D3  2ED5               	goto	u129_20
  4721     06D4                     u129_21:
  4722     06D4  2EE3               	goto	i1l2055
  4723     06D5                     u129_20:
  4724     06D5                     i1l2049:
  4725                           
  4726                           ;E:/Universidad/Semestre2_2023/Digital-2/Proyecto1/Master/MasterPIC.X/MasterPIC.c: 95:  
      +                                 if (OnOff == 1){
  4727     06D5  0326               	decf	_OnOff,w
  4728     06D6  0427               	iorwf	_OnOff+1,w
  4729     06D7  1D03               	btfss	3,2
  4730     06D8  2EDA               	goto	u130_21
  4731     06D9  2EDB               	goto	u130_20
  4732     06DA                     u130_21:
  4733     06DA  2EDF               	goto	i1l2053
  4734     06DB                     u130_20:
  4735     06DB                     i1l2051:
  4736                           
  4737                           ;E:/Universidad/Semestre2_2023/Digital-2/Proyecto1/Master/MasterPIC.X/MasterPIC.c: 96:  
      +                                     OnOff = 0;
  4738     06DB  01A6               	clrf	_OnOff
  4739     06DC  01A7               	clrf	_OnOff+1
  4740                           
  4741                           ;E:/Universidad/Semestre2_2023/Digital-2/Proyecto1/Master/MasterPIC.X/MasterPIC.c: 97:  
      +                                     fanOnOff = 0;
  4742     06DD  01A8               	clrf	_fanOnOff
  4743                           
  4744                           ;E:/Universidad/Semestre2_2023/Digital-2/Proyecto1/Master/MasterPIC.X/MasterPIC.c: 98:  
      +                                 }
  4745     06DE  2EE3               	goto	i1l2055
  4746     06DF                     i1l2053:
  4747     06DF  3001               	movlw	1
  4748     06E0  00A6               	movwf	_OnOff
  4749     06E1  3000               	movlw	0
  4750     06E2  00A7               	movwf	_OnOff+1
  4751     06E3                     i1l2055:
  4752                           
  4753                           ;E:/Universidad/Semestre2_2023/Digital-2/Proyecto1/Master/MasterPIC.X/MasterPIC.c: 102: 
      +                                  INTCONbits.RBIF = 0;
  4754     06E3  100B               	bcf	11,0	;volatile
  4755     06E4                     i1l188:
  4756     06E4  0871               	movf	??_isr+1,w
  4757     06E5  008A               	movwf	10
  4758     06E6  0E70               	swapf	??_isr,w
  4759     06E7  0083               	movwf	3
  4760     06E8  0EFE               	swapf	btemp,f
  4761     06E9  0E7E               	swapf	btemp,w
  4762     06EA  0009               	retfie
  4763     06EB                     __end_of_isr:
  4764     007E                     btemp	set	126	;btemp
  4765     007E                     wtemp0	set	126
  4766                           
  4767                           	psect	intentry
  4768     0004                     __pintentry:	
  4769                           ;incstack = 0
  4770                           ; Regs used in _isr: [wreg+status,2+status,0]
  4771                           
  4772     0004                     interrupt_function:
  4773     007E                     saved_w	set	btemp
  4774     0004  00FE               	movwf	btemp
  4775     0005  0E03               	swapf	3,w
  4776     0006  00F0               	movwf	??_isr
  4777     0007  080A               	movf	10,w
  4778     0008  00F1               	movwf	??_isr+1
  4779     0009  120A  118A  2ECB   	ljmp	_isr
  4780                           
  4781                           	psect	idloc
  4782                           
  4783                           ;Config register IDLOC0 @ 0x2000
  4784                           ;	unspecified, using default values
  4785     2000                     	org	8192
  4786     2000  3FFF               	dw	16383
  4787                           
  4788                           ;Config register IDLOC1 @ 0x2001
  4789                           ;	unspecified, using default values
  4790     2001                     	org	8193
  4791     2001  3FFF               	dw	16383
  4792                           
  4793                           ;Config register IDLOC2 @ 0x2002
  4794                           ;	unspecified, using default values
  4795     2002                     	org	8194
  4796     2002  3FFF               	dw	16383
  4797                           
  4798                           ;Config register IDLOC3 @ 0x2003
  4799                           ;	unspecified, using default values
  4800     2003                     	org	8195
  4801     2003  3FFF               	dw	16383
  4802                           
  4803                           	psect	config
  4804                           
  4805                           ;Config register CONFIG1 @ 0x2007
  4806                           ;	Oscillator Selection bits
  4807                           ;	FOSC = INTRC_NOCLKOUT, INTOSCIO oscillator: I/O function on RA6/OSC2/CLKOUT pin, I/O f
      +                          unction on RA7/OSC1/CLKIN
  4808                           ;	Watchdog Timer Enable bit
  4809                           ;	WDTE = OFF, WDT disabled and can be enabled by SWDTEN bit of the WDTCON register
  4810                           ;	Power-up Timer Enable bit
  4811                           ;	PWRTE = OFF, PWRT disabled
  4812                           ;	RE3/MCLR pin function select bit
  4813                           ;	MCLRE = OFF, RE3/MCLR pin function is digital input, MCLR internally tied to VDD
  4814                           ;	Code Protection bit
  4815                           ;	CP = OFF, Program memory code protection is disabled
  4816                           ;	Data Code Protection bit
  4817                           ;	CPD = OFF, Data memory code protection is disabled
  4818                           ;	Brown Out Reset Selection bits
  4819                           ;	BOREN = OFF, BOR disabled
  4820                           ;	Internal External Switchover bit
  4821                           ;	IESO = OFF, Internal/External Switchover mode is disabled
  4822                           ;	Fail-Safe Clock Monitor Enabled bit
  4823                           ;	FCMEN = OFF, Fail-Safe Clock Monitor is disabled
  4824                           ;	Low Voltage Programming Enable bit
  4825                           ;	LVP = OFF, RB3 pin has digital I/O, HV on MCLR must be used for programming
  4826                           ;	In-Circuit Debugger Mode bit
  4827                           ;	DEBUG = 0x1, unprogramme  4828     2007                     	org	8199
  4829     2007  20D4               	dw	8404
  4830                           
  4831                           ;Config register CONFIG2 @ 0x2008
  4832                           ;	Brown-out Reset Selection bit
  4833                           ;	BOR4V = BOR40V, Brown-out Reset set to 4.0V
  4834                           ;	Flash Program Memory Self Write Enable bits
  4835                           ;	WRT = OFF, Write protection off
  4836     2008                     	org	8200
  4837     2008  3FFF               	dw	16383

Data Sizes:
    Strings     60
    Constant    10
    Data        0
    BSS         32
    Persistent  0
    Stack       0

Auto Spaces:
    Space          Size  Autos    Used
    COMMON           14     10      12
    BANK0            80     28      58
    BANK1            80      0       0
    BANK3            96      0       0
    BANK2            96      0       0

Pointer List with Targets:

    sprintf@f	PTR const unsigned char  size(1) Largest target is 15
		 -> STR_5(CODE[13]), STR_4(CODE[15]), STR_3(CODE[8]), STR_2(CODE[8]), 

    sprintf@sp	PTR unsigned char  size(2) Largest target is 512
		 -> lineLCD(BANK0[16]), RAM(DATA[512]), 

    sprintf@ap	PTR void [1] size(1) Largest target is 2
		 -> ?_sprintf(BANK0[2]), 

    enviocadena@cadena	PTR unsigned char  size(2) Largest target is 512
		 -> RAM(DATA[512]), 

    Lcd_Write_String@a	PTR unsigned char  size(2) Largest target is 16
		 -> STR_8(CODE[3]), STR_7(CODE[3]), STR_6(CODE[4]), lineLCD(BANK0[16]), 


Critical Paths under _main in COMMON

    _slave2Communication->_I2C_Master_Read
    _slave1Communication->_I2C_Master_Read
    _Lcd_Init->_Lcd_Cmd
    _I2C_Master_Init->___lldiv
    _enviocadena->_enviocaracter
    _LCDprint->_Lcd_Write_String
    _usSensor->_Lcd_Write_String
    _Lcd_Write_String->_Lcd_Write_Char
    _Lcd_Write_Char->_Lcd_Port
    _Lcd_Set_Cursor->_Lcd_Cmd
    _sprintf->___lwmod
    ___lwmod->___lwdiv
    _Lcd_Clear->_Lcd_Cmd
    _Lcd_Cmd->_Lcd_Port

Critical Paths under _isr in COMMON

    None.

Critical Paths under _main in BANK0

    _main->_LCDprint
    _setup->_I2C_Master_Init
    _I2C_Master_Init->___lldiv
    _LCDprint->_sprintf
    _usSensor->_Lcd_Write_String
    _sprintf->___lwmod

Critical Paths under _isr in BANK0

    None.

Critical Paths under _main in BANK1

    None.

Critical Paths under _isr in BANK1

    None.

Critical Paths under _main in BANK3

    None.

Critical Paths under _isr in BANK3

    None.

Critical Paths under _main in BANK2

    None.

Critical Paths under _isr in BANK2

    None.

Call Graph Tables:

 ---------------------------------------------------------------------------------
 (Depth) Function   	        Calls       Base Space   Used Autos Params    Refs
 ---------------------------------------------------------------------------------
 (0) _main                                                 6     6      0   12153
                                             22 BANK0      6     6      0
                           _LCDprint
                        _enviocadena
                      _enviocaracter
                              _setup
                _slave1Communication
                _slave2Communication
                            _sprintf
 ---------------------------------------------------------------------------------
 (1) _slave2Communication                                  4     4      0    1396
                                              8 COMMON     1     1      0
                                              0 BANK0      3     3      0
                    _I2C_Master_Read
                   _I2C_Master_Start
                    _I2C_Master_Stop
                   _I2C_Master_Write
 ---------------------------------------------------------------------------------
 (1) _slave1Communication                                  4     4      0    1396
                                              8 COMMON     1     1      0
                                              0 BANK0      3     3      0
                    _I2C_Master_Read
                   _I2C_Master_Start
                    _I2C_Master_Stop
                   _I2C_Master_Write
 ---------------------------------------------------------------------------------
 (2) _I2C_Master_Write                                     2     0      2     706
                                              2 COMMON     2     0      2
                    _I2C_Master_Wait
 ---------------------------------------------------------------------------------
 (2) _I2C_Master_Stop                                      0     0      0       0
                    _I2C_Master_Wait
 ---------------------------------------------------------------------------------
 (2) _I2C_Master_Start                                     0     0      0       0
                    _I2C_Master_Wait
 ---------------------------------------------------------------------------------
 (2) _I2C_Master_Read                                      6     4      2     653
                                              2 COMMON     6     4      2
                    _I2C_Master_Wait
 ---------------------------------------------------------------------------------
 (3) _I2C_Master_Wait                                      0     0      0       0
 ---------------------------------------------------------------------------------
 (1) _setup                                                0     0      0    1069
                    _I2C_Master_Init
                           _Lcd_Init
                           _ioc_init
 ---------------------------------------------------------------------------------
 (2) _ioc_init                                             1     1      0       0
 ---------------------------------------------------------------------------------
 (2) _Lcd_Init                                             2     2      0     527
                                              6 COMMON     2     2      0
                            _Lcd_Cmd
                           _Lcd_Port
 ---------------------------------------------------------------------------------
 (2) _I2C_Master_Init                                      8     4      4     542
                                              6 BANK0      8     4      4
                            ___lldiv
 ---------------------------------------------------------------------------------
 (3) ___lldiv                                             14     6      8     421
                                              2 COMMON     8     0      8
                                              0 BANK0      6     6      0
 ---------------------------------------------------------------------------------
 (1) _enviocadena                                          2     0      2     219
                                              3 COMMON     2     0      2
                      _enviocaracter
 ---------------------------------------------------------------------------------
 (1) _enviocaracter                                        1     1      0      22
                                              2 COMMON     1     1      0
 ---------------------------------------------------------------------------------
 (1) _LCDprint                                             2     2      0    5855
                                             20 BANK0      2     2      0
                          _Lcd_Clear
                     _Lcd_Set_Cursor
                   _Lcd_Write_String
                             _dcStop
                            _sprintf
                           _usSensor
 ---------------------------------------------------------------------------------
 (2) _usSensor                                             0     0      0    1690
                     _Lcd_Set_Cursor
                   _Lcd_Write_String
                          _dcForward
                            _dcRight
 ---------------------------------------------------------------------------------
 (3) _dcRight                                              0     0      0       0
 ---------------------------------------------------------------------------------
 (3) _dcForward                                            0     0      0       0
 ---------------------------------------------------------------------------------
 (3) _Lcd_Write_String                                     7     5      2     859
                                              5 COMMON     5     3      2
                                              0 BANK0      2     2      0
                     _Lcd_Write_Char
 ---------------------------------------------------------------------------------
 (4) _Lcd_Write_Char                                       2     2      0     279
                                              3 COMMON     2     2      0
                           _Lcd_Port
 ---------------------------------------------------------------------------------
 (3) _Lcd_Set_Cursor                                       3     2      1     831
                                              6 COMMON     3     2      1
                            _Lcd_Cmd
 ---------------------------------------------------------------------------------
 (1) _sprintf                                             24    17      7    2196
                                              4 BANK0     16     9      7
                             ___bmul
                            ___lwdiv
                            ___lwmod
                            _isdigit
 ---------------------------------------------------------------------------------
 (2) _isdigit                                              2     2      0      68
                                              2 COMMON     2     2      0
 ---------------------------------------------------------------------------------
 (2) ___lwmod                                              5     1      4     311
                                              9 COMMON     1     1      0
                                              0 BANK0      4     0      4
                            ___lwdiv (ARG)
 ---------------------------------------------------------------------------------
 (2) ___lwdiv                                              7     3      4     314
                                              2 COMMON     7     3      4
 ---------------------------------------------------------------------------------
 (2) ___bmul                                               3     2      1     168
                                              2 COMMON     3     2      1
 ---------------------------------------------------------------------------------
 (2) _dcStop                                               0     0      0       0
 ---------------------------------------------------------------------------------
 (2) _Lcd_Clear                                            0     0      0     279
                            _Lcd_Cmd
 ---------------------------------------------------------------------------------
 (3) _Lcd_Cmd                                              3     3      0     279
                                              3 COMMON     3     3      0
                           _Lcd_Port
 ---------------------------------------------------------------------------------
 (3) _Lcd_Port                                             1     1      0     248
                                              2 COMMON     1     1      0
 ---------------------------------------------------------------------------------
 Estimated maximum stack depth 4
 ---------------------------------------------------------------------------------
 (Depth) Function   	        Calls       Base Space   Used Autos Params    Refs
 ---------------------------------------------------------------------------------
 (6) _isr                                                  2     2      0       0
                                              0 COMMON     2     2      0
 ---------------------------------------------------------------------------------
 Estimated maximum stack depth 6
 ---------------------------------------------------------------------------------

 Call Graph Graphs:

 _main (ROOT)
   _LCDprint
     _Lcd_Clear
       _Lcd_Cmd
         _Lcd_Port
     _Lcd_Set_Cursor
       _Lcd_Cmd
     _Lcd_Write_String
       _Lcd_Write_Char
         _Lcd_Port
     _dcStop
     _sprintf
       ___bmul
       ___lwdiv
       ___lwmod
         ___lwdiv (ARG)
       _isdigit
     _usSensor
       _Lcd_Set_Cursor
       _Lcd_Write_String
       _dcForward
       _dcRight
   _enviocadena
     _enviocaracter
   _enviocaracter
   _setup
     _I2C_Master_Init
       ___lldiv
     _Lcd_Init
       _Lcd_Cmd
       _Lcd_Port
     _ioc_init
   _slave1Communication
     _I2C_Master_Read
       _I2C_Master_Wait
     _I2C_Master_Start
       _I2C_Master_Wait
     _I2C_Master_Stop
       _I2C_Master_Wait
     _I2C_Master_Write
       _I2C_Master_Wait
   _slave2Communication
     _I2C_Master_Read
     _I2C_Master_Start
     _I2C_Master_Stop
     _I2C_Master_Write
   _sprintf

 _isr (ROOT)

 Address spaces:
Name               Size   Autos  Total    Cost      Usage
BITCOMMON            E      0       0       0        0.0%
EEDATA             100      0       0       0        0.0%
NULL                 0      0       0       0        0.0%
CODE                 0      0       0       0        0.0%
COMMON               E      A       C       1       85.7%
BITSFR0              0      0       0       1        0.0%
SFR0                 0      0       0       1        0.0%
BITSFR1              0      0       0       2        0.0%
SFR1                 0      0       0       2        0.0%
STACK                0      0       0       2        0.0%
ABS                  0      0      46       3        0.0%
BITBANK0            50      0       0       4        0.0%
BITSFR3              0      0       0       4        0.0%
SFR3                 0      0       0       4        0.0%
BANK0               50     1C      3A       5       72.5%
BITSFR2              0      0       0       5        0.0%
SFR2                 0      0       0       5        0.0%
BITBANK1            50      0       0       6        0.0%
BANK1               50      0       0       7        0.0%
BITBANK3            60      0       0       8        0.0%
BANK3               60      0       0       9        0.0%
BITBANK2            60      0       0      10        0.0%
BANK2               60      0       0      11        0.0%
DATA                 0      0      46      12        0.0%


Microchip Technology PIC Macro Assembler V2.41 build 20230208172133 
Symbol Table                                                                                   Tue Aug 22 04:38:40 2023

                          _a 002D                            pc 0002               ___bmul@product 0073  
                         l32 0752                           l50 067D                           l35 075E  
                         l51 0680                           l52 0685                           l44 0789  
                         l29 0624                           l38 0792                           l47 0780  
                         fsr 0004              _ultrasonicValue 007B                          l201 0572  
                        l210 034F                          l220 0657                          l223 07A4  
                        l215 0286                          l207 03AB                          l232 0776  
                        l226 079B                          l260 057F                          l261 0585  
                        l229 07AD                          l270 05A2                          l262 0586  
                        l271 05A8                          l263 058C                          l343 0743  
                        l272 05A9                          l264 058D                          l512 072F  
                        l352 06A2                          l273 05AF                          l265 0593  
                        l281 076B                          l345 0749                          l266 0594  
                        l354 06AA                          l522 02EE                          l290 04A6  
                        l275 05B0                          l267 059A                          l259 057C  
                        l347 0751                          l268 059B                          l269 05A1  
                        l293 071A                          l278 0704                          l287 06CA  
                        l482 017B                          l299 04EC                          l758 0530  
                        l768 05EC                          l939 0741                          _GIE 005F  
                        _RA0 0028                          _RA1 0029                          _RB0 0030  
                        _RA2 002A                          _RA3 002B                          _RA4 002C  
                        _RC0 0038                          _RA5 002D                          _RC1 0039  
                        _RD0 0040                          _RD1 0041                          _RD2 0042  
                        _RD3 0043                          _RD4 0044                          _RD5 0045  
                        _RD6 0046                          _RD7 0047                          u830 0738  
                        u831 0737                          u840 073E                          u760 0758  
                        u841 073D                          u761 0757                          u850 0721  
                        u770 075E                          u851 0720                          u771 075D  
                        u860 072E                          u940 04F5                          u861 072D  
                        u941 04F4                          u960 0507                          u961 0506  
                        u955 04F9                          u980 0518                          u981 0517  
                        u975 0508                          u985 0514                          u995 0520  
                        _isr 06CB                          fsr0 0004                          indf 0000  
                       l2121 0583                         l2041 0698                         l2201 05ED  
                       l2131 05A6                         l2123 058A                         l2043 06A8  
                       l2035 0686                         l2211 0623                         l2203 05F1  
                       l2133 05AD                         l2125 0591                         l2117 0574  
                       l2141 06F8                         l2037 0687                         l2205 05F4  
                       l2221 047A                         l2213 0456                         l2301 037C  
                       l2127 0598                         l2119 0578                         l2143 0701  
                       l2135 06EC                         l2223 075F                         l2151 0712  
                       l2231 063C                         l2039 0692                         l2207 0621  
                       l2215 045C                         l2311 039C                         l2303 0381  
                       l2129 059F                         l2137 06EF                         l2161 06BB  
                       l2153 0717                         l2145 0706                         l2233 063F  
                       l2225 0625                         l2209 0622                         l2217 0465  
                       l2241 0531                         l2305 038A                         l2321 0307  
                       l2313 02EF                         l2139 06F5                         l2163 06C1  
                       l2155 06AC                         l2147 0709                         l2171 04C8  
                       l2235 0645                         l2227 062D                         l2219 0474  
                       l2251 053B                         l2243 0535                         l2307 0395  
                       l2331 0337                         l2323 030C                         l2315 02EF  
                       l1701 04F5                         l2165 06C4                         l2157 06B1  
                       l2149 070F                         l2173 04D0                         l2237 064E  
                       l2229 0633                         l2341 0222                         l2181 02A5  
                       l2261 0548                         l2253 053F                         l2245 0536  
                       l2309 039A                         l2333 033C                         l2325 031B  
                       l2317 02F4                         l1711 0518                         l1703 04F8  
                       l2407 008C                         l2159 06B4                         l2167 04A7  
                       l2239 0652                         l2351 026B                         l2343 0236  
                       l2191 02D6                         l2183 02A9                         l2175 0287  
                       l2271 0550                         l2263 0549                         l2255 0540  
                       l2247 0537                         l1615 0752                         l2335 0340  
                       l2327 0320                         l2319 02FD                         l1713 051E  
                       l1705 04FF                         l1801 004A                         l2169 04AC  
                       l1641 079C                         l2353 0270                         l2345 023F  
                       l2337 020D                         l2193 02D7                         l2185 02AD  
                       l2177 0299                         l2281 0555                         l2273 0551  
                       l2265 054B                         l2257 0543                         l2249 0538  
                       l1617 0758                         l2329 0329                         l2361 0181  
                       l1715 051F                         l1707 0503                         l1731 05C7  
                       l1723 05B1                         l1651 0740                         l1643 0731  
                       l1803 0057                         l2355 0275                         l2347 0244  
                       l2339 0215                         l2195 02E0                         l2187 02B6  
                       l2179 029C                         l2283 0558                         l2275 0552  
                       l2267 054C                         l2259 0544                         l2291 0350  
                       l2371 01B5                         l2363 0189                         l1661 0725  
                       l1717 0526                         l1709 0507                         l1733 05CB  
                       l1725 05B9                         l1741 05E8                         l1645 0732  
                       l1821 00A7                         l1813 0078                         l1805 0062  
                       l2357 027D                         l2349 026A                         l2189 02C8  
                       l2197 02E6                         l2285 055E                         l2277 0553  
                       l2269 054F                         l2293 0355                         l2381 0203  
                       l2373 01C3                         l2365 0193                         l1911 07A5  
                       l1663 0727                         l1655 071C                         l1719 052C  
                       l1735 05D5                         l1727 05BC                         l1647 0738  
                       l1831 00BF                         l1823 00AB                         l1815 0097  
                       l1807 0066                         l1639 0793                         l2287 056D  
                       l2279 0554                         l2295 035E                         l2375 01C9  
                       l2367 0198                         l2359 017C                         l1665 0729  
                       l1657 071D                         l1737 05DB                         l1729 05C3  
                       l1649 073E                         l1841 00DD                         l1825 00B0  
                       l1817 009F                         l1809 0077                         l1761 0781  
                       l2297 0368                         l2289 0350                         l2377 01D7  
                       l2369 019A                         l1667 072E                         l1659 0721  
                       l1739 05E2                         l1851 010C                         l1843 00E1  
                       l1827 00B5                         l1819 00A3                         l1771 065D  
                       l1763 0786                         l2299 036D                         l2379 01F5  
                       l1861 0154                         l1853 0110                         l1845 00E7  
                       l1837 00C1                         l1829 00BB                         l1781 0681  
                       l1773 0665                         l1757 078A                         l1765 0777  
                       l1855 0118                         l1847 00F7                         l1791 0030  
                       l1775 066E                         l1759 078F                         l1767 077C  
                       l1697 04ED                         l1857 011F                         l1865 015C  
                       l1849 00F8                         l1793 0037                         l1785 001E  
                       l1881 076C                         l1777 0673                         l1769 0658  
                       l1699 04EF                         l1859 0126                         l1795 0038  
                       l1787 0023                         l1867 0165                         l1779 0679  
                       l1869 0175                         l1797 0044                         l1789 0029  
                       l1877 0743                         l1799 0048                         l1879 074F  
                       ?_isr 0070                         STR_1 0446                         STR_2 0436  
                       STR_3 043E                         STR_4 041A                         STR_5 0429  
                       STR_6 044C                         STR_7 0453                         STR_8 0450  
                       u1000 052C                         _CREN 00C4                         u1001 052B  
                       u1010 05B9                         u1011 05B8                         u1100 0044  
                       u1101 0043                         u1030 05CB                         u1110 0076  
                       u1031 05CA                         u1111 0075                         u1040 05D5  
                       u1200 0165                         u1120 00A7                         u1041 05D4  
                       u1025 05BD                         u1201 0164                         u1121 00A6  
                       u1210 0175                         u1130 00B5                         u1211 0174  
                       u1131 00B4                         u1060 05E8                         u1140 00BB  
                       u1220 0749                         u1061 05E7                         u1045 05D1  
                       u1141 00BA                         u1221 0748                         u1150 00DC  
                       u1230 074F                         u1055 05DC                         u1151 00DB  
                       u1231 074E                         u1320 0578                         u1160 00E7  
                       u1400 06B1                         u1080 0679                         u1321 0577  
                       u1161 00E6                         u1401 06B0                         u1081 0678  
                       u1330 0583                         u1170 00F7                         u1090 0029  
                       u1410 06C1                         u1331 0582                         u1171 00F6  
                       u1155 00D8                         u1091 0028                         u1411 06C0  
                       u1340 058A                         u1180 010C                         u1420 04B6  
                       u1260 06A2                         u1341 0589                         u1181 010B  
                       u1261 06A1                         u1350 0591                         u1190 0118  
                       u1430 04DA                         u1270 06A8                         u1510 02E6  
                       u1351 0590                         u1191 0117                         u1175 00F3  
                       u1271 06A7                         u1511 02E5                         u1360 0598  
                       u1440 04EC                         u1520 0604                         u1361 0597  
                       u1185 0108                         u1441 04EB                         u1505 02D8  
                       u1370 059F                         u1530 0633                         u1450 0299  
                       u1371 059E                         u1531 0632                         u1451 0298  
                       u1380 05A6                         u1540 0215                         u1381 05A5  
                       u1541 0214                         u1525 05FF                         u1390 05AD  
                       u1470 02AD                         u1550 0189                         u1391 05AC  
                       u1471 02AC                         u1607 03A4                         u1551 0188  
                       u1465 029E                         u1617 0460                         u1490 02C8  
                       u1491 02C7                         u1627 046F                         u1485 02AF  
                       u1637 047E                         u1647 0714                         u1495 02C4  
                       u1567 01D1                         u1657 06FC                         u1577 0314  
                       u1587 0348                         u1597 0375                         _PEIE 005E  
                       _RBIF 0058                         _RCIF 0065                         _OERR 00C1  
          ?_Lcd_Write_String 0075                         _main 017C                         btemp 007E  
                       start 000C           ??_Lcd_Write_String 0077              __end_of_Lcd_Cmd 0705  
          ___bmul@multiplier 0074                 ?_enviocadena 0073                        ??_isr 0070  
           ?_I2C_Master_Init 0044             ?_I2C_Master_Read 0072             ?_I2C_Master_Wait 0070  
           ?_I2C_Master_Stop 0070                        ?_main 0070                        _EEADR 010D  
                      _EEDAT 010C                        _ANSEL 0188              __end_of___lldiv 02EF  
            __end_of_dcRight 079C             __end_of_LCDprint 0287              __end_of___lwdiv 0531  
            __end_of___lwmod 05ED                        i1l188 06E4                        _RCREG 001A  
                      _SPBRG 0099                        _PORTA 0005                        _PORTB 0006  
                      _PORTC 0007                        _PORTD 0008                        _TRISA 0085  
                      _TRISB 0086                        _TRISC 0087                        _TRISD 0088  
                      _SSPIE 0463                        _SSPIF 0063                        _TXREG 0019  
                      _OnOff 0026              __end_of_dpowers 041A                        _toESP 007A  
            __end_of_isdigit 0742                        _setup 0531                        pclath 000A  
                      status 0003                        wtemp0 007E              __end_of_sprintf 017C  
                ioc_init@pin 0070             __end_of_Lcd_Init 04A7  __end_of_slave1Communication 03AC  
           __end_of_Lcd_Port 05B1              __initialization 000F                 __end_of_main 020D  
                     ??_main 0054            ?_I2C_Master_Start 0070            ?_I2C_Master_Write 0072  
         ??_I2C_Master_Start 0072           ??_I2C_Master_Write 0074                       _EECON2 018D  
                     ?_setup 0070                       _ANSELH 0189                       i1l2051 06DB  
                     i1l2053 06DF                       i1l2045 06CB                       i1l2055 06E3  
                     i1l2047 06CF                       i1l2049 06D5                       u130_20 06DB  
                     u130_21 06DA                       u128_20 06CF                       u128_21 06CE  
                     u129_20 06D5                       u129_21 06D4                    ??_Lcd_Cmd 0073  
                     _SPBRGH 009A                       _SSPADD 0093                       _TRISC3 043B  
                     _TRISC4 043C                       _SSPCON 0014                       _SSPBUF 0013  
                     ___bmul 071B                       _dcStop 07A5             __end_of_ioc_init 0777  
                  ??___lldiv 003E                    ??_dcRight 0072                _enviocaracter 0742  
                  ??___lwdiv 0076                    ??___lwmod 0079                       _motor1 002B  
                     _motor2 002A                    ??_isdigit 0072                       saved_w 007E  
           __end_of_usSensor 0658                    ??_sprintf 0049              Lcd_Set_Cursor@a 0077  
            Lcd_Set_Cursor@b 0076      __end_of__initialization 001A   slave2Communication@valueS2 0078  
          __end_of_Lcd_Clear 076C                    ?_LCDprint 0070          ___bmul@multiplicand 0072  
__end_of_slave2Communication 0350               __pcstackCOMMON 0070               ?_enviocaracter 0070  
              __end_of_setup 0573               _Lcd_Set_Cursor 06AB               _OPTION_REGbits 0081  
                  ?_Lcd_Init 0070                    ?_Lcd_Port 0070                      ??_setup 007A  
                 __pbssBANK0 0020                   ??_LCDprint 0052                   __pmaintext 017C  
                    ?___bmul 0072                      ?_dcStop 0070                   __pintentry 0004  
          __end_of_dcForward 07A5       __end_of_Lcd_Set_Cursor 06CB                   ??_Lcd_Init 0076  
                 ??_Lcd_Port 0072                      _SSPCON2 0091                      _SSPSTAT 0094  
             enviocaracter@a 0072                   __stringtab 0400                    ?_ioc_init 0070  
             _Lcd_Write_Char 0705                      _Lcd_Cmd 06EB              ??_enviocaracter 0072  
                  ?_usSensor 0070                      ___lldiv 0287                      _dcRight 0793  
                    ___lwdiv 04ED                      ___lwmod 05B1              ?_Lcd_Set_Cursor 0076  
                    __ptext1 02EF                      __ptext2 0350                      __ptext3 0777  
                    __ptext4 0781                      __ptext5 078A                      __ptext6 0658  
                    __ptext7 0752                      __ptext8 0531                      __ptext9 076C  
                    _lineLCD 002E                      _dpowers 0410                      _isdigit 0730  
                    _sprintf 001E                      clrloop0 07AF       __end_of_Lcd_Write_Char 071B  
       end_of_initialization 001A                   ??_ioc_init 0072              ___lldiv@divisor 0072  
            ___lldiv@counter 0043                    _RCSTAbits 0018                   ??_usSensor 007A  
           I2C_Master_Init@c 0044             I2C_Master_Read@a 0072                    Lcd_Port@a 0072  
                  _TRISCbits 0087              ?_Lcd_Write_Char 0070            Lcd_Write_String@a 0075  
          Lcd_Write_String@i 003E                    _TXSTAbits 0098                    _Lcd_Clear 075F  
             __end_of___bmul 0730               __end_of_dcStop 07AE             _Lcd_Write_String 04A7  
                _BAUDCTLbits 0187          start_initialization 000F                  __end_of_isr 06EB  
          ??_I2C_Master_Init 0048            ??_I2C_Master_Read 0074            ??_I2C_Master_Wait 0072  
 slave1Communication@valueS1 0078            ??_I2C_Master_Stop 0072                ??_enviocadena 0075  
                 ?_Lcd_Clear 0070                     ??___bmul 0073                     ??_dcStop 0072  
            Lcd_Write_Char@a 0074                    _dcForward 079C                  __pbssCOMMON 007A  
                  ___latbits 0002                __pcstackBANK0 003E                 _isdigit$1164 0072  
                   ?_Lcd_Cmd 0070                  sprintf@flag 004D                  sprintf@prec 0050  
           _I2C_Master_Start 078A             _I2C_Master_Write 0777             ___lwdiv@dividend 0074  
           ??_Lcd_Set_Cursor 0077                     ?___lldiv 0072                     ?_dcRight 0070  
                   ?___lwdiv 0072                     ?___lwmod 003E          __end_of_enviocadena 06AB  
                  __pstrings 0400                     ?_isdigit 0070                   ?_dcForward 0070  
           ___lwdiv@quotient 0076                     ?_sprintf 0042          _slave1Communication 0350  
          interrupt_function 0004                     _IOCBbits 0096                    clear_ram0 07AE  
                   _LCDprint 020D                     Lcd_Cmd@a 0075                     _PIR1bits 000C  
                   _PIR2bits 000D                  ??_Lcd_Clear 0076        __end_of_enviocaracter 0752  
       ?_slave1Communication 0070                  __stringbase 040F                     _WPUBbits 0095  
           ??_Lcd_Write_Char 0073                     _Lcd_Init 0456                     _Lcd_Port 0573  
        I2C_Master_Read@temp 0076            enviocadena@cadena 0073     __end_of_Lcd_Write_String 04ED  
                 _EECON1bits 018C                  _enviocadena 0686                  _readFromESP 0029  
      ??_slave1Communication 003E           __end_of__stringtab 0410                     _fanOnOff 0028  
                 sprintf@val 004E              _I2C_Master_Init 05ED              _I2C_Master_Read 0658  
                ??_dcForward 0072              _I2C_Master_Wait 0752              _I2C_Master_Stop 0781  
            ___lwdiv@divisor 0072              ___lwdiv@counter 0078                     __ptext10 0456  
                   __ptext11 05ED                     __ptext20 0705                     __ptext12 0287  
                   __ptext21 06AB                     __ptext13 0686                     __ptext30 0573  
                   __ptext22 001E                     __ptext14 0742                     __ptext31 06CB  
                   __ptext23 0730                     __ptext15 020D                     __ptext24 05B1  
                   __ptext16 0625                     __ptext25 04ED                     __ptext17 0793  
                   __ptext26 071B                     __ptext18 079C                     __ptext27 07A5  
                   __ptext19 04A7                     __ptext28 075F                     __ptext29 06EB  
                   _ioc_init 076C                     _fsrValue 002C          _slave2Communication 02EF  
                   _gyroData 0020                     _usSensor 0625         ?_slave2Communication 0070  
   __end_of_I2C_Master_Start 0793     __end_of_I2C_Master_Write 0781                   _INTCONbits 000B  
                   isdigit@c 0073                     intlevel1 0000                    sprintf@ap 004C  
                  sprintf@sp 0042             ___lwmod@dividend 0040             ___lldiv@dividend 0076  
                  stringcode 040A                   _OSCCONbits 008F      __end_of_I2C_Master_Init 0625  
    __end_of_I2C_Master_Read 0686      __end_of_I2C_Master_Wait 075F      __end_of_I2C_Master_Stop 078A  
         Lcd_Set_Cursor@temp 0078        ??_slave2Communication 003E                     sprintf@c 0051  
                   sprintf@f 0044             ___lldiv@quotient 003F            I2C_Master_Write@d 0072  
            ___lwmod@divisor 003E              ___lwmod@counter 0079                     stringdir 040A  
                   stringtab 0400                  _SSPCON2bits 0091  
