

Microchip MPLAB XC8 Assembler V2.41 build 20230208172133 
                                                                                               Wed Aug 02 23:27:29 2023

Microchip MPLAB XC8 C Compiler v2.41 (Free license) build 20230208172133 Og1 
     1                           	processor	16F887
     2                           	pagewidth 120
     3                           	opt	flic
     4                           	psect	cinit,global,class=CODE,merge=1,delta=2
     5                           	psect	bssCOMMON,global,class=COMMON,space=1,delta=1,noexec
     6                           	psect	cstackCOMMON,global,class=COMMON,space=1,delta=1,noexec
     7                           	psect	cstackBANK0,global,class=BANK0,space=1,delta=1,noexec
     8                           	psect	maintext,global,class=CODE,split=1,delta=2
     9                           	psect	text1,local,class=CODE,merge=1,delta=2
    10                           	psect	text2,local,class=CODE,merge=1,delta=2
    11                           	psect	text3,local,class=CODE,merge=1,delta=2
    12                           	psect	text4,local,class=CODE,merge=1,delta=2
    13                           	psect	text5,local,class=CODE,merge=1,delta=2
    14                           	psect	text6,local,class=CODE,merge=1,delta=2
    15                           	psect	intentry,global,class=CODE,delta=2
    16                           	psect	text7,local,class=CODE,merge=1,delta=2
    17                           	psect	text8,local,class=CODE,merge=1,delta=2
    18                           	psect	text9,local,class=CODE,merge=1,delta=2
    19                           	psect	text10,local,class=CODE,merge=1,delta=2
    20                           	psect	text11,local,class=CODE,merge=1,delta=2
    21                           	psect	text12,local,class=CODE,merge=1,delta=2
    22                           	psect	idloc,global,abs,ovrld,class=IDLOC,space=5,delta=2,noexec
    23                           	psect	config,global,abs,ovrld,class=CONFIG,space=4,delta=2,noexec
    24                           	dabs	1,0x7E,2
    25     0000                     
    26                           ; Version 2.40
    27                           ; Generated 17/11/2021 GMT
    28                           ; 
    29                           ; Copyright © 2021, Microchip Technology Inc. and its subsidiaries ("Microchip")
    30                           ; All rights reserved.
    31                           ; 
    32                           ; This software is developed by Microchip Technology Inc. and its subsidiaries ("Microch
      +                          ip").
    33                           ; 
    34                           ; Redistribution and use in source and binary forms, with or without modification, are
    35                           ; permitted provided that the following conditions are met:
    36                           ; 
    37                           ;     1. Redistributions of source code must retain the above copyright notice, this lis
      +                          t of
    38                           ;        conditions and the following disclaimer.
    39                           ; 
    40                           ;     2. Redistributions in binary form must reproduce the above copyright notice, this 
      +                          list
    41                           ;        of conditions and the following disclaimer in the documentation and/or other
    42                           ;        materials provided with the distribution. Publication is not required when
    43                           ;        this file is used in an embedded application.
    44                           ; 
    45                           ;     3. Microchip's name may not be used to endorse or promote products derived from th
      +                          is
    46                           ;        software without specific prior written permission.
    47                           ; 
    48                           ; THIS SOFTWARE IS PROVIDED BY MICROCHIP "AS IS" AND ANY EXPRESS OR IMPLIED WARRANTIES,
    49                           ; INCLUDING, BUT NOT LIMITED TO, THE IMPLIED WARRANTIES OF MERCHANTABILITY AND FITNESS F
      +                          OR
    50                           ; PURPOSE ARE DISCLAIMED.  IN NO EVENT SHALL MICROCHIP BE LIABLE FOR ANY DIRECT, INDIREC
      +                          T,
    51                           ; INCIDENTAL, SPECIAL, EXEMPLARY, OR CONSEQUENTIAL DAMAGES (INCLUDING BUT NOT LIMITED TO
    52                           ; PROCUREMENT OF SUBSTITUTE GOODS OR SERVICES; LOSS OF USE, DATA OR PROFITS; OR BUSINESS
    53                           ; INTERRUPTION) HOWSOEVER CAUSED AND ON ANY THEORY OF LIABILITY, WHETHER IN CONTRACT, ST
      +                          RICT
    54                           ; LIABILITY, OR TORT (INCLUDING NEGLIGENCE OR OTHERWISE) ARISING IN ANY WAY OUT OF THE U
      +                          SE OF
    55                           ; THIS SOFTWARE, EVEN IF ADVISED OF THE POSSIBILITY OF SUCH DAMAGE.
    56                           ; 
    57                           ; 
    58                           ; Code-generator required, PIC16F887 Definitions
    59                           ; 
    60                           ; SFR Addresses
    61     0000                     	;# 
    62     0001                     	;# 
    63     0002                     	;# 
    64     0003                     	;# 
    65     0004                     	;# 
    66     0005                     	;# 
    67     0006                     	;# 
    68     0007                     	;# 
    69     0008                     	;# 
    70     0009                     	;# 
    71     000A                     	;# 
    72     000B                     	;# 
    73     000C                     	;# 
    74     000D                     	;# 
    75     000E                     	;# 
    76     000E                     	;# 
    77     000F                     	;# 
    78     0010                     	;# 
    79     0011                     	;# 
    80     0012                     	;# 
    81     0013                     	;# 
    82     0014                     	;# 
    83     0015                     	;# 
    84     0015                     	;# 
    85     0016                     	;# 
    86     0017                     	;# 
    87     0018                     	;# 
    88     0019                     	;# 
    89     001A                     	;# 
    90     001B                     	;# 
    91     001B                     	;# 
    92     001C                     	;# 
    93     001D                     	;# 
    94     001E                     	;# 
    95     001F                     	;# 
    96     0081                     	;# 
    97     0085                     	;# 
    98     0086                     	;# 
    99     0087                     	;# 
   100     0088                     	;# 
   101     0089                     	;# 
   102     008C                     	;# 
   103     008D                     	;# 
   104     008E                     	;# 
   105     008F                     	;# 
   106     0090                     	;# 
   107     0091                     	;# 
   108     0092                     	;# 
   109     0093                     	;# 
   110     0093                     	;# 
   111     0093                     	;# 
   112     0094                     	;# 
   113     0095                     	;# 
   114     0096                     	;# 
   115     0097                     	;# 
   116     0098                     	;# 
   117     0099                     	;# 
   118     009A                     	;# 
   119     009B                     	;# 
   120     009C                     	;# 
   121     009D                     	;# 
   122     009E                     	;# 
   123     009F                     	;# 
   124     0105                     	;# 
   125     0107                     	;# 
   126     0108                     	;# 
   127     0109                     	;# 
   128     010C                     	;# 
   129     010C                     	;# 
   130     010D                     	;# 
   131     010E                     	;# 
   132     010F                     	;# 
   133     0185                     	;# 
   134     0187                     	;# 
   135     0188                     	;# 
   136     0189                     	;# 
   137     018C                     	;# 
   138     018D                     	;# 
   139     0000                     	;# 
   140     0001                     	;# 
   141     0002                     	;# 
   142     0003                     	;# 
   143     0004                     	;# 
   144     0005                     	;# 
   145     0006                     	;# 
   146     0007                     	;# 
   147     0008                     	;# 
   148     0009                     	;# 
   149     000A                     	;# 
   150     000B                     	;# 
   151     000C                     	;# 
   152     000D                     	;# 
   153     000E                     	;# 
   154     000E                     	;# 
   155     000F                     	;# 
   156     0010                     	;# 
   157     0011                     	;# 
   158     0012                     	;# 
   159     0013                     	;# 
   160     0014                     	;# 
   161     0015                     	;# 
   162     0015                     	;# 
   163     0016                     	;# 
   164     0017                     	;# 
   165     0018                     	;# 
   166     0019                     	;# 
   167     001A                     	;# 
   168     001B                     	;# 
   169     001B                     	;# 
   170     001C                     	;# 
   171     001D                     	;# 
   172     001E                     	;# 
   173     001F                     	;# 
   174     0081                     	;# 
   175     0085                     	;# 
   176     0086                     	;# 
   177     0087                     	;# 
   178     0088                     	;# 
   179     0089                     	;# 
   180     008C                     	;# 
   181     008D                     	;# 
   182     008E                     	;# 
   183     008F                     	;# 
   184     0090                     	;# 
   185     0091                     	;# 
   186     0092                     	;# 
   187     0093                     	;# 
   188     0093                     	;# 
   189     0093                     	;# 
   190     0094                     	;# 
   191     0095                     	;# 
   192     0096                     	;# 
   193     0097                     	;# 
   194     0098                     	;# 
   195     0099                     	;# 
   196     009A                     	;# 
   197     009B                     	;# 
   198     009C                     	;# 
   199     009D                     	;# 
   200     009E                     	;# 
   201     009F                     	;# 
   202     0105                     	;# 
   203     0107                     	;# 
   204     0108                     	;# 
   205     0109                     	;# 
   206     010C                     	;# 
   207     010C                     	;# 
   208     010D                     	;# 
   209     010E                     	;# 
   210     010F                     	;# 
   211     0185                     	;# 
   212     0187                     	;# 
   213     0188                     	;# 
   214     0189                     	;# 
   215     018C                     	;# 
   216     018D                     	;# 
   217     0000                     	;# 
   218     0001                     	;# 
   219     0002                     	;# 
   220     0003                     	;# 
   221     0004                     	;# 
   222     0005                     	;# 
   223     0006                     	;# 
   224     0007                     	;# 
   225     0008                     	;# 
   226     0009                     	;# 
   227     000A                     	;# 
   228     000B                     	;# 
   229     000C                     	;# 
   230     000D                     	;# 
   231     000E                     	;# 
   232     000E                     	;# 
   233     000F                     	;# 
   234     0010                     	;# 
   235     0011                     	;# 
   236     0012                     	;# 
   237     0013                     	;# 
   238     0014                     	;# 
   239     0015                     	;# 
   240     0015                     	;# 
   241     0016                     	;# 
   242     0017                     	;# 
   243     0018                     	;# 
   244     0019                     	;# 
   245     001A                     	;# 
   246     001B                     	;# 
   247     001B                     	;# 
   248     001C                     	;# 
   249     001D                     	;# 
   250     001E                     	;# 
   251     001F                     	;# 
   252     0081                     	;# 
   253     0085                     	;# 
   254     0086                     	;# 
   255     0087                     	;# 
   256     0088                     	;# 
   257     0089                     	;# 
   258     008C                     	;# 
   259     008D                     	;# 
   260     008E                     	;# 
   261     008F                     	;# 
   262     0090                     	;# 
   263     0091                     	;# 
   264     0092                     	;# 
   265     0093                     	;# 
   266     0093                     	;# 
   267     0093                     	;# 
   268     0094                     	;# 
   269     0095                     	;# 
   270     0096                     	;# 
   271     0097                     	;# 
   272     0098                     	;# 
   273     0099                     	;# 
   274     009A                     	;# 
   275     009B                     	;# 
   276     009C                     	;# 
   277     009D                     	;# 
   278     009E                     	;# 
   279     009F                     	;# 
   280     0105                     	;# 
   281     0107                     	;# 
   282     0108                     	;# 
   283     0109                     	;# 
   284     010C                     	;# 
   285     010C                     	;# 
   286     010D                     	;# 
   287     010E                     	;# 
   288     010F                     	;# 
   289     0185                     	;# 
   290     0187                     	;# 
   291     0188                     	;# 
   292     0189                     	;# 
   293     018C                     	;# 
   294     018D                     	;# 
   295     0000                     	;# 
   296     0001                     	;# 
   297     0002                     	;# 
   298     0003                     	;# 
   299     0004                     	;# 
   300     0005                     	;# 
   301     0006                     	;# 
   302     0007                     	;# 
   303     0008                     	;# 
   304     0009                     	;# 
   305     000A                     	;# 
   306     000B                     	;# 
   307     000C                     	;# 
   308     000D                     	;# 
   309     000E                     	;# 
   310     000E                     	;# 
   311     000F                     	;# 
   312     0010                     	;# 
   313     0011                     	;# 
   314     0012                     	;# 
   315     0013                     	;# 
   316     0014                     	;# 
   317     0015                     	;# 
   318     0015                     	;# 
   319     0016                     	;# 
   320     0017                     	;# 
   321     0018                     	;# 
   322     0019                     	;# 
   323     001A                     	;# 
   324     001B                     	;# 
   325     001B                     	;# 
   326     001C                     	;# 
   327     001D                     	;# 
   328     001E                     	;# 
   329     001F                     	;# 
   330     0081                     	;# 
   331     0085                     	;# 
   332     0086                     	;# 
   333     0087                     	;# 
   334     0088                     	;# 
   335     0089                     	;# 
   336     008C                     	;# 
   337     008D                     	;# 
   338     008E                     	;# 
   339     008F                     	;# 
   340     0090                     	;# 
   341     0091                     	;# 
   342     0092                     	;# 
   343     0093                     	;# 
   344     0093                     	;# 
   345     0093                     	;# 
   346     0094                     	;# 
   347     0095                     	;# 
   348     0096                     	;# 
   349     0097                     	;# 
   350     0098                     	;# 
   351     0099                     	;# 
   352     009A                     	;# 
   353     009B                     	;# 
   354     009C                     	;# 
   355     009D                     	;# 
   356     009E                     	;# 
   357     009F                     	;# 
   358     0105                     	;# 
   359     0107                     	;# 
   360     0108                     	;# 
   361     0109                     	;# 
   362     010C                     	;# 
   363     010C                     	;# 
   364     010D                     	;# 
   365     010E                     	;# 
   366     010F                     	;# 
   367     0185                     	;# 
   368     0187                     	;# 
   369     0188                     	;# 
   370     0189                     	;# 
   371     018C                     	;# 
   372     018D                     	;# 
   373     0000                     	;# 
   374     0001                     	;# 
   375     0002                     	;# 
   376     0003                     	;# 
   377     0004                     	;# 
   378     0005                     	;# 
   379     0006                     	;# 
   380     0007                     	;# 
   381     0008                     	;# 
   382     0009                     	;# 
   383     000A                     	;# 
   384     000B                     	;# 
   385     000C                     	;# 
   386     000D                     	;# 
   387     000E                     	;# 
   388     000E                     	;# 
   389     000F                     	;# 
   390     0010                     	;# 
   391     0011                     	;# 
   392     0012                     	;# 
   393     0013                     	;# 
   394     0014                     	;# 
   395     0015                     	;# 
   396     0015                     	;# 
   397     0016                     	;# 
   398     0017                     	;# 
   399     0018                     	;# 
   400     0019                     	;# 
   401     001A                     	;# 
   402     001B                     	;# 
   403     001B                     	;# 
   404     001C                     	;# 
   405     001D                     	;# 
   406     001E                     	;# 
   407     001F                     	;# 
   408     0081                     	;# 
   409     0085                     	;# 
   410     0086                     	;# 
   411     0087                     	;# 
   412     0088                     	;# 
   413     0089                     	;# 
   414     008C                     	;# 
   415     008D                     	;# 
   416     008E                     	;# 
   417     008F                     	;# 
   418     0090                     	;# 
   419     0091                     	;# 
   420     0092                     	;# 
   421     0093                     	;# 
   422     0093                     	;# 
   423     0093                     	;# 
   424     0094                     	;# 
   425     0095                     	;# 
   426     0096                     	;# 
   427     0097                     	;# 
   428     0098                     	;# 
   429     0099                     	;# 
   430     009A                     	;# 
   431     009B                     	;# 
   432     009C                     	;# 
   433     009D                     	;# 
   434     009E                     	;# 
   435     009F                     	;# 
   436     0105                     	;# 
   437     0107                     	;# 
   438     0108                     	;# 
   439     0109                     	;# 
   440     010C                     	;# 
   441     010C                     	;# 
   442     010D                     	;# 
   443     010E                     	;# 
   444     010F                     	;# 
   445     0185                     	;# 
   446     0187                     	;# 
   447     0188                     	;# 
   448     0189                     	;# 
   449     018C                     	;# 
   450     018D                     	;# 
   451     0006                     _PORTB	set	6
   452     0005                     _PORTA	set	5
   453     000C                     _PIR1bits	set	12
   454     0008                     _PORTD	set	8
   455     001E                     _ADRESH	set	30
   456     000B                     _INTCONbits	set	11
   457     001F                     _ADCON0bits	set	31
   458     0013                     _SSPBUF	set	19
   459     0014                     _SSPCON	set	20
   460     0066                     _ADIF	set	102
   461     0063                     _SSPIF	set	99
   462     0031                     _RB1	set	49
   463     0030                     _RB0	set	48
   464     0058                     _RBIF	set	88
   465     0095                     _WPUBbits	set	149
   466     0081                     _OPTION_REGbits	set	129
   467     0096                     _IOCBbits	set	150
   468     0085                     _TRISAbits	set	133
   469     0088                     _TRISD	set	136
   470     0086                     _TRISB	set	134
   471     0085                     _TRISA	set	133
   472     008C                     _PIE1bits	set	140
   473     009F                     _ADCON1bits	set	159
   474     0094                     _SSPSTATbits	set	148
   475     0094                     _SSPSTAT	set	148
   476     008F                     _OSCCONbits	set	143
   477     043B                     _TRISC3	set	1083
   478     043D                     _TRISC5	set	1085
   479     0188                     _ANSELbits	set	392
   480     0189                     _ANSELH	set	393
   481                           
   482                           	psect	cinit
   483     0011                     start_initialization:	
   484                           ; #config settings
   485                           
   486     0011                     __initialization:
   487                           
   488                           ; Clear objects allocated to COMMON
   489     0011  01F5               	clrf	__pbssCOMMON& (0+127)
   490     0012  01F6               	clrf	(__pbssCOMMON+1)& (0+127)
   491     0013  01F7               	clrf	(__pbssCOMMON+2)& (0+127)
   492     0014  01F8               	clrf	(__pbssCOMMON+3)& (0+127)
   493     0015                     end_of_initialization:	
   494                           ;End of C runtime variable initialization code
   495                           
   496     0015                     __end_of__initialization:
   497     0015  0183               	clrf	3
   498     0016  120A  118A  291F   	ljmp	_main	;jump to C main() function
   499                           
   500                           	psect	bssCOMMON
   501     0075                     __pbssCOMMON:
   502     0075                     _slaveSelect:
   503     0075                     	ds	1
   504     0076                     _contValue:
   505     0076                     	ds	1
   506     0077                     _adcValue:
   507     0077                     	ds	1
   508     0078                     _temporal:
   509     0078                     	ds	1
   510                           
   511                           	psect	cstackCOMMON
   512     0070                     __pcstackCOMMON:
   513     0070                     ?_adcChannel:
   514     0070                     ?_upButtonF:	
   515                           ; 1 bytes @ 0x0
   516                           
   517     0070                     ??_upButtonF:	
   518                           ; 1 bytes @ 0x0
   519                           
   520     0070                     ?_downButtonF:	
   521                           ; 1 bytes @ 0x0
   522                           
   523     0070                     ??_downButtonF:	
   524                           ; 1 bytes @ 0x0
   525                           
   526     0070                     ?_setup:	
   527                           ; 1 bytes @ 0x0
   528                           
   529     0070                     ?_spiReceiveWait:	
   530                           ; 1 bytes @ 0x0
   531                           
   532     0070                     ??_spiReceiveWait:	
   533                           ; 1 bytes @ 0x0
   534                           
   535     0070                     ?_spiWrite:	
   536                           ; 1 bytes @ 0x0
   537                           
   538     0070                     ??_spiWrite:	
   539                           ; 1 bytes @ 0x0
   540                           
   541     0070                     ?_spiRead:	
   542                           ; 1 bytes @ 0x0
   543                           
   544     0070                     ??_spiRead:	
   545                           ; 1 bytes @ 0x0
   546                           
   547     0070                     ?_adcConfig:	
   548                           ; 1 bytes @ 0x0
   549                           
   550     0070                     ?_adcRead:	
   551                           ; 1 bytes @ 0x0
   552                           
   553     0070                     ??_adcRead:	
   554                           ; 1 bytes @ 0x0
   555                           
   556     0070                     ?_isr:	
   557                           ; 1 bytes @ 0x0
   558                           
   559     0070                     ?_main:	
   560                           ; 1 bytes @ 0x0
   561                           
   562     0070                     spiWrite@dat:	
   563                           ; 1 bytes @ 0x0
   564                           
   565                           
   566                           ; 1 bytes @ 0x0
   567     0070                     	ds	1
   568     0071                     ??_isr:
   569                           
   570                           ; 1 bytes @ 0x1
   571     0071                     	ds	4
   572     0075                     ??_configOsc:
   573     0075                     ??_spiInit:	
   574                           ; 1 bytes @ 0x5
   575                           
   576     0075                     ??_adcConfig:	
   577                           ; 1 bytes @ 0x5
   578                           
   579                           
   580                           	psect	cstackBANK0
   581     0020                     __pcstackBANK0:	
   582                           ; 1 bytes @ 0x5
   583                           
   584     0020                     ??_adcChannel:
   585     0020                     ?_configOsc:	
   586                           ; 1 bytes @ 0x0
   587                           
   588     0020                     ?_spiInit:	
   589                           ; 1 bytes @ 0x0
   590                           
   591     0020                     spiInit@sDataSample:	
   592                           ; 1 bytes @ 0x0
   593                           
   594     0020                     configOsc@frec:	
   595                           ; 1 bytes @ 0x0
   596                           
   597                           
   598                           ; 2 bytes @ 0x0
   599     0020                     	ds	1
   600     0021                     spiInit@sClockIdle:
   601     0021                     adcChannel@channel:	
   602                           ; 1 bytes @ 0x1
   603                           
   604                           
   605                           ; 1 bytes @ 0x1
   606     0021                     	ds	1
   607     0022                     spiInit@sTransmitEdge:
   608                           
   609                           ; 1 bytes @ 0x2
   610     0022                     	ds	1
   611     0023                     spiInit@sType:
   612                           
   613                           ; 1 bytes @ 0x3
   614     0023                     	ds	1
   615     0024                     ??_setup:
   616                           
   617                           ; 1 bytes @ 0x4
   618     0024                     	ds	1
   619     0025                     ??_main:
   620                           
   621                           ; 1 bytes @ 0x5
   622     0025                     	ds	1
   623                           
   624                           	psect	maintext
   625     011F                     __pmaintext:	
   626 ;;
   627 ;;Main: autosize = 0, tempsize = 1, incstack = 0, save=0
   628 ;;
   629 ;; *************** function _main *****************
   630 ;; Defined at:
   631 ;;		line 97 in file "E:/Universidad/Semestre2_2023/Digital-2/Lab3/Lab3_Slave_1.X/Lab3Slave1.c"
   632 ;; Parameters:    Size  Location     Type
   633 ;;		None
   634 ;; Auto vars:     Size  Location     Type
   635 ;;		None
   636 ;; Return value:  Size  Location     Type
   637 ;;                  1    wreg      void 
   638 ;; Registers used:
   639 ;;		wreg, status,2, status,0, pclath, cstack
   640 ;; Tracked objects:
   641 ;;		On entry : B00/0
   642 ;;		On exit  : 0/0
   643 ;;		Unchanged: 0/0
   644 ;; Data sizes:     COMMON   BANK0   BANK1   BANK3   BANK2
   645 ;;      Params:         0       0       0       0       0
   646 ;;      Locals:         0       0       0       0       0
   647 ;;      Temps:          0       1       0       0       0
   648 ;;      Totals:         0       1       0       0       0
   649 ;;Total ram usage:        1 bytes
   650 ;; Hardware stack levels required when called: 6
   651 ;; This function calls:
   652 ;;		_adcChannel
   653 ;;		_setup
   654 ;; This function is called by:
   655 ;;		Startup code after reset
   656 ;; This function uses a non-reentrant model
   657 ;;
   658                           
   659     011F                     _main:	
   660                           ;psect for function _main
   661                           
   662     011F                     l1108:	
   663                           ;incstack = 0
   664                           ; Regs used in _main: [wreg+status,2+status,0+pclath+cstack]
   665                           
   666                           
   667                           ;E:/Universidad/Semestre2_2023/Digital-2/Lab3/Lab3_Slave_1.X/Lab3Slave1.c: 98:     setup
      +                          ();
   668     011F  120A  118A  20DC  120A  118A  	fcall	_setup
   669     0124                     l1110:
   670                           
   671                           ;E:/Universidad/Semestre2_2023/Digital-2/Lab3/Lab3_Slave_1.X/Lab3Slave1.c: 103:        i
      +                          f (ADCON0bits.CHS == 0){
   672     0124  1283               	bcf	3,5	;RP0=0, select bank0
   673     0125  1303               	bcf	3,6	;RP1=0, select bank0
   674     0126  0C1F               	rrf	31,w	;volatile
   675     0127  00A5               	movwf	??_main
   676     0128  0C25               	rrf	??_main,w
   677     0129  390F               	andlw	15
   678     012A  3A00               	xorlw	0
   679     012B  1D03               	skipz
   680     012C  292E               	goto	u351
   681     012D  292F               	goto	u350
   682     012E                     u351:
   683     012E  2924               	goto	l1110
   684     012F                     u350:
   685     012F                     l1112:
   686                           
   687                           ;E:/Universidad/Semestre2_2023/Digital-2/Lab3/Lab3_Slave_1.X/Lab3Slave1.c: 104:        a
      +                          dcChannel(0);
   688     012F  3000               	movlw	0
   689     0130  120A  118A  2179  120A  118A  	fcall	_adcChannel
   690     0135                     l1114:
   691                           
   692                           ;E:/Universidad/Semestre2_2023/Digital-2/Lab3/Lab3_Slave_1.X/Lab3Slave1.c: 105:         
      +                          _delay((unsigned long)((20)*(8000000/4000000.0)));
   693     0135  300C               	movlw	12
   694     0136  1283               	bcf	3,5	;RP0=0, select bank0
   695     0137  1303               	bcf	3,6	;RP1=0, select bank0
   696     0138  00A5               	movwf	??_main
   697     0139                     u367:
   698     0139  0BA5               	decfsz	??_main,f
   699     013A  2939               	goto	u367
   700     013B  0000               	nop
   701     013C                     l1116:
   702                           
   703                           ;E:/Universidad/Semestre2_2023/Digital-2/Lab3/Lab3_Slave_1.X/Lab3Slave1.c: 106:         
      +                          ADCON0bits.GO = 1;
   704     013C  1283               	bcf	3,5	;RP0=0, select bank0
   705     013D  1303               	bcf	3,6	;RP1=0, select bank0
   706     013E  149F               	bsf	31,1	;volatile
   707     013F  2924               	goto	l1110
   708     0140  120A  118A  280E   	ljmp	start
   709     0143                     __end_of_main:
   710                           
   711                           	psect	text1
   712     00DC                     __ptext1:	
   713 ;; *************** function _setup *****************
   714 ;; Defined at:
   715 ;;		line 114 in file "E:/Universidad/Semestre2_2023/Digital-2/Lab3/Lab3_Slave_1.X/Lab3Slave1.c"
   716 ;; Parameters:    Size  Location     Type
   717 ;;		None
   718 ;; Auto vars:     Size  Location     Type
   719 ;;		None
   720 ;; Return value:  Size  Location     Type
   721 ;;                  1    wreg      void 
   722 ;; Registers used:
   723 ;;		wreg, status,2, status,0, pclath, cstack
   724 ;; Tracked objects:
   725 ;;		On entry : 0/0
   726 ;;		On exit  : 0/0
   727 ;;		Unchanged: 0/0
   728 ;; Data sizes:     COMMON   BANK0   BANK1   BANK3   BANK2
   729 ;;      Params:         0       0       0       0       0
   730 ;;      Locals:         0       0       0       0       0
   731 ;;      Temps:          0       1       0       0       0
   732 ;;      Totals:         0       1       0       0       0
   733 ;;Total ram usage:        1 bytes
   734 ;; Hardware stack levels used: 1
   735 ;; Hardware stack levels required when called: 5
   736 ;; This function calls:
   737 ;;		_adcConfig
   738 ;;		_configOsc
   739 ;;		_spiInit
   740 ;; This function is called by:
   741 ;;		_main
   742 ;; This function uses a non-reentrant model
   743 ;;
   744                           
   745     00DC                     _setup:	
   746                           ;psect for function _setup
   747                           
   748     00DC                     l1064:	
   749                           ;incstack = 0
   750                           ; Regs used in _setup: [wreg+status,2+status,0+pclath+cstack]
   751                           
   752                           
   753                           ;E:/Universidad/Semestre2_2023/Digital-2/Lab3/Lab3_Slave_1.X/Lab3Slave1.c: 115:     conf
      +                          igOsc(8);
   754     00DC  3008               	movlw	8
   755     00DD  1283               	bcf	3,5	;RP0=0, select bank0
   756     00DE  1303               	bcf	3,6	;RP1=0, select bank0
   757     00DF  00A0               	movwf	configOsc@frec
   758     00E0  3000               	movlw	0
   759     00E1  00A1               	movwf	configOsc@frec+1
   760     00E2  120A  118A  2019  120A  118A  	fcall	_configOsc
   761     00E7                     l1066:
   762                           
   763                           ;E:/Universidad/Semestre2_2023/Digital-2/Lab3/Lab3_Slave_1.X/Lab3Slave1.c: 117:     ANSE
      +                          LH = 0;
   764     00E7  1683               	bsf	3,5	;RP0=1, select bank3
   765     00E8  1703               	bsf	3,6	;RP1=1, select bank3
   766     00E9  0189               	clrf	9	;volatile
   767     00EA                     l1068:
   768                           
   769                           ;E:/Universidad/Semestre2_2023/Digital-2/Lab3/Lab3_Slave_1.X/Lab3Slave1.c: 118:     ANSE
      +                          Lbits.ANS0 = 1;
   770     00EA  1408               	bsf	8,0	;volatile
   771     00EB                     l1070:
   772                           
   773                           ;E:/Universidad/Semestre2_2023/Digital-2/Lab3/Lab3_Slave_1.X/Lab3Slave1.c: 120:     TRIS
      +                          A = 0b00000001;
   774     00EB  3001               	movlw	1
   775     00EC  1683               	bsf	3,5	;RP0=1, select bank1
   776     00ED  1303               	bcf	3,6	;RP1=0, select bank1
   777     00EE  0085               	movwf	5	;volatile
   778     00EF                     l1072:
   779                           
   780                           ;E:/Universidad/Semestre2_2023/Digital-2/Lab3/Lab3_Slave_1.X/Lab3Slave1.c: 122:     TRIS
      +                          B = 3;
   781     00EF  3003               	movlw	3
   782     00F0  0086               	movwf	6	;volatile
   783     00F1                     l1074:
   784                           
   785                           ;E:/Universidad/Semestre2_2023/Digital-2/Lab3/Lab3_Slave_1.X/Lab3Slave1.c: 123:     TRIS
      +                          D = 0;
   786     00F1  0188               	clrf	8	;volatile
   787     00F2                     l1076:
   788                           
   789                           ;E:/Universidad/Semestre2_2023/Digital-2/Lab3/Lab3_Slave_1.X/Lab3Slave1.c: 125:     PORT
      +                          A = 0;
   790     00F2  1283               	bcf	3,5	;RP0=0, select bank0
   791     00F3  1303               	bcf	3,6	;RP1=0, select bank0
   792     00F4  0185               	clrf	5	;volatile
   793     00F5                     l1078:
   794                           
   795                           ;E:/Universidad/Semestre2_2023/Digital-2/Lab3/Lab3_Slave_1.X/Lab3Slave1.c: 126:     PORT
      +                          B = 0;
   796     00F5  0186               	clrf	6	;volatile
   797     00F6                     l1080:
   798                           
   799                           ;E:/Universidad/Semestre2_2023/Digital-2/Lab3/Lab3_Slave_1.X/Lab3Slave1.c: 127:     PORT
      +                          D = 0;
   800     00F6  0188               	clrf	8	;volatile
   801     00F7                     l1082:
   802                           
   803                           ;E:/Universidad/Semestre2_2023/Digital-2/Lab3/Lab3_Slave_1.X/Lab3Slave1.c: 129:     adcC
      +                          onfig();
   804     00F7  120A  118A  2161  120A  118A  	fcall	_adcConfig
   805     00FC                     l1084:
   806                           
   807                           ;E:/Universidad/Semestre2_2023/Digital-2/Lab3/Lab3_Slave_1.X/Lab3Slave1.c: 130:     _del
      +                          ay((unsigned long)((40)*(8000000/4000000.0)));
   808     00FC  3019               	movlw	25
   809     00FD  1283               	bcf	3,5	;RP0=0, select bank0
   810     00FE  1303               	bcf	3,6	;RP1=0, select bank0
   811     00FF  00A4               	movwf	??_setup
   812     0100                     u377:
   813     0100  0BA4               	decfsz	??_setup,f
   814     0101  2900               	goto	u377
   815     0102  2903               	nop2
   816     0103                     l1086:
   817                           
   818                           ;E:/Universidad/Semestre2_2023/Digital-2/Lab3/Lab3_Slave_1.X/Lab3Slave1.c: 131:     PIR1
      +                          bits.SSPIF = 0;
   819     0103  1283               	bcf	3,5	;RP0=0, select bank0
   820     0104  1303               	bcf	3,6	;RP1=0, select bank0
   821     0105  118C               	bcf	12,3	;volatile
   822     0106                     l1088:
   823                           
   824                           ;E:/Universidad/Semestre2_2023/Digital-2/Lab3/Lab3_Slave_1.X/Lab3Slave1.c: 132:     PIE1
      +                          bits.SSPIE = 1;
   825     0106  1683               	bsf	3,5	;RP0=1, select bank1
   826     0107  1303               	bcf	3,6	;RP1=0, select bank1
   827     0108  158C               	bsf	12,3	;volatile
   828     0109                     l1090:
   829                           
   830                           ;E:/Universidad/Semestre2_2023/Digital-2/Lab3/Lab3_Slave_1.X/Lab3Slave1.c: 133:     TRIS
      +                          Abits.TRISA5 = 1;
   831     0109  1685               	bsf	5,5	;volatile
   832     010A                     l1092:
   833                           
   834                           ;E:/Universidad/Semestre2_2023/Digital-2/Lab3/Lab3_Slave_1.X/Lab3Slave1.c: 134:     spiI
      +                          nit(SPI_SLAVE_SS_EN, SPI_DATA_SAMPLE_MIDDLE, SPI_CLOCK_IDLE_LOW, SPI_IDLE_2_ACTIVE);
   835     010A  1283               	bcf	3,5	;RP0=0, select bank0
   836     010B  1303               	bcf	3,6	;RP1=0, select bank0
   837     010C  01A0               	clrf	spiInit@sDataSample
   838     010D  01A1               	clrf	spiInit@sClockIdle
   839     010E  01A2               	clrf	spiInit@sTransmitEdge
   840     010F  3024               	movlw	36
   841     0110  120A  118A  2143  120A  118A  	fcall	_spiInit
   842     0115                     l1094:
   843                           
   844                           ;E:/Universidad/Semestre2_2023/Digital-2/Lab3/Lab3_Slave_1.X/Lab3Slave1.c: 136:     INTC
      +                          ONbits.RBIF = 0;
   845     0115  100B               	bcf	11,0	;volatile
   846     0116                     l1096:
   847                           
   848                           ;E:/Universidad/Semestre2_2023/Digital-2/Lab3/Lab3_Slave_1.X/Lab3Slave1.c: 137:     INTC
      +                          ONbits.RBIE = 1;
   849     0116  158B               	bsf	11,3	;volatile
   850     0117                     l1098:
   851                           
   852                           ;E:/Universidad/Semestre2_2023/Digital-2/Lab3/Lab3_Slave_1.X/Lab3Slave1.c: 140:     IOCB
      +                          bits.IOCB0 = 1;
   853     0117  1683               	bsf	3,5	;RP0=1, select bank1
   854     0118  1303               	bcf	3,6	;RP1=0, select bank1
   855     0119  1416               	bsf	22,0	;volatile
   856     011A                     l1100:
   857                           
   858                           ;E:/Universidad/Semestre2_2023/Digital-2/Lab3/Lab3_Slave_1.X/Lab3Slave1.c: 141:     IOCB
      +                          bits.IOCB1 = 1;
   859     011A  1496               	bsf	22,1	;volatile
   860     011B                     l1102:
   861                           
   862                           ;E:/Universidad/Semestre2_2023/Digital-2/Lab3/Lab3_Slave_1.X/Lab3Slave1.c: 143:     OPTI
      +                          ON_REGbits.nRBPU = 0;
   863     011B  1381               	bcf	1,7	;volatile
   864     011C                     l1104:
   865                           
   866                           ;E:/Universidad/Semestre2_2023/Digital-2/Lab3/Lab3_Slave_1.X/Lab3Slave1.c: 145:     WPUB
      +                          bits.WPUB0 = 1;
   867     011C  1415               	bsf	21,0	;volatile
   868     011D                     l1106:
   869                           
   870                           ;E:/Universidad/Semestre2_2023/Digital-2/Lab3/Lab3_Slave_1.X/Lab3Slave1.c: 146:     WPUB
      +                          bits.WPUB1 = 1;
   871     011D  1495               	bsf	21,1	;volatile
   872     011E                     l164:
   873     011E  0008               	return
   874     011F                     __end_of_setup:
   875                           
   876                           	psect	text2
   877     0143                     __ptext2:	
   878 ;; *************** function _spiInit *****************
   879 ;; Defined at:
   880 ;;		line 12 in file "SPI.c"
   881 ;; Parameters:    Size  Location     Type
   882 ;;  sType           1    wreg     enum E1292
   883 ;;  sDataSample     1    0[BANK0 ] enum E1300
   884 ;;  sClockIdle      1    1[BANK0 ] enum E1304
   885 ;;  sTransmitEdg    1    2[BANK0 ] enum E1308
   886 ;; Auto vars:     Size  Location     Type
   887 ;;  sType           1    3[BANK0 ] enum E1292
   888 ;; Return value:  Size  Location     Type
   889 ;;                  1    wreg      void 
   890 ;; Registers used:
   891 ;;		wreg, status,2, status,0
   892 ;; Tracked objects:
   893 ;;		On entry : 0/0
   894 ;;		On exit  : 0/0
   895 ;;		Unchanged: 0/0
   896 ;; Data sizes:     COMMON   BANK0   BANK1   BANK3   BANK2
   897 ;;      Params:         0       3       0       0       0
   898 ;;      Locals:         0       1       0       0       0
   899 ;;      Temps:          0       0       0       0       0
   900 ;;      Totals:         0       4       0       0       0
   901 ;;Total ram usage:        4 bytes
   902 ;; Hardware stack levels used: 1
   903 ;; Hardware stack levels required when called: 3
   904 ;; This function calls:
   905 ;;		Nothing
   906 ;; This function is called by:
   907 ;;		_setup
   908 ;; This function uses a non-reentrant model
   909 ;;
   910                           
   911     0143                     _spiInit:	
   912                           ;psect for function _spiInit
   913                           
   914                           
   915                           ;incstack = 0
   916                           ; Regs used in _spiInit: [wreg+status,2+status,0]
   917                           ;spiInit@sType stored from wreg
   918     0143  1283               	bcf	3,5	;RP0=0, select bank0
   919     0144  1303               	bcf	3,6	;RP1=0, select bank0
   920     0145  00A3               	movwf	spiInit@sType
   921     0146                     l1032:
   922                           
   923                           ;SPI.c: 12: void spiInit(Spi_Type sType, Spi_Data_Sample sDataSample, Spi_Clock_Idle sCl
      +                          ockIdle, Spi_Transmit_Edge sTransmitEdge);SPI.c: 13: {;SPI.c: 14:     TRISC5 = 0;
   924     0146  1683               	bsf	3,5	;RP0=1, select bank1
   925     0147  1303               	bcf	3,6	;RP1=0, select bank1
   926     0148  1287               	bcf	7,5	;volatile
   927                           
   928                           ;SPI.c: 15:     if(sType & 0b00000100)
   929     0149  1283               	bcf	3,5	;RP0=0, select bank0
   930     014A  1303               	bcf	3,6	;RP1=0, select bank0
   931     014B  1D23               	btfss	spiInit@sType,2
   932     014C  294E               	goto	u341
   933     014D  294F               	goto	u340
   934     014E                     u341:
   935     014E  2955               	goto	l1038
   936     014F                     u340:
   937     014F                     l1034:
   938                           
   939                           ;SPI.c: 16:     {;SPI.c: 17:         SSPSTAT = sTransmitEdge;
   940     014F  0822               	movf	spiInit@sTransmitEdge,w
   941     0150  1683               	bsf	3,5	;RP0=1, select bank1
   942     0151  1303               	bcf	3,6	;RP1=0, select bank1
   943     0152  0094               	movwf	20	;volatile
   944     0153                     l1036:
   945                           
   946                           ;SPI.c: 18:         TRISC3 = 1;
   947     0153  1587               	bsf	7,3	;volatile
   948                           
   949                           ;SPI.c: 19:     }
   950     0154  295B               	goto	l28
   951     0155                     l1038:
   952                           
   953                           ;SPI.c: 21:     {;SPI.c: 22:         SSPSTAT = sDataSample | sTransmitEdge;
   954     0155  0820               	movf	spiInit@sDataSample,w
   955     0156  0422               	iorwf	spiInit@sTransmitEdge,w
   956     0157  1683               	bsf	3,5	;RP0=1, select bank1
   957     0158  1303               	bcf	3,6	;RP1=0, select bank1
   958     0159  0094               	movwf	20	;volatile
   959     015A                     l1040:
   960                           
   961                           ;SPI.c: 23:         TRISC3 = 0;
   962     015A  1187               	bcf	7,3	;volatile
   963     015B                     l28:	
   964                           ;SPI.c: 24:     }
   965                           
   966                           
   967                           ;SPI.c: 26:     SSPCON = sType | sClockIdle;
   968     015B  1283               	bcf	3,5	;RP0=0, select bank0
   969     015C  1303               	bcf	3,6	;RP1=0, select bank0
   970     015D  0823               	movf	spiInit@sType,w
   971     015E  0421               	iorwf	spiInit@sClockIdle,w
   972     015F  0094               	movwf	20	;volatile
   973     0160                     l29:
   974     0160  0008               	return
   975     0161                     __end_of_spiInit:
   976                           
   977                           	psect	text3
   978     0019                     __ptext3:	
   979 ;; *************** function _configOsc *****************
   980 ;; Defined at:
   981 ;;		line 4 in file "oscilador.c"
   982 ;; Parameters:    Size  Location     Type
   983 ;;  frec            2    0[BANK0 ] unsigned int 
   984 ;; Auto vars:     Size  Location     Type
   985 ;;		None
   986 ;; Return value:  Size  Location     Type
   987 ;;                  1    wreg      void 
   988 ;; Registers used:
   989 ;;		wreg, status,2, status,0
   990 ;; Tracked objects:
   991 ;;		On entry : 0/0
   992 ;;		On exit  : 0/0
   993 ;;		Unchanged: 0/0
   994 ;; Data sizes:     COMMON   BANK0   BANK1   BANK3   BANK2
   995 ;;      Params:         0       2       0       0       0
   996 ;;      Locals:         0       0       0       0       0
   997 ;;      Temps:          0       0       0       0       0
   998 ;;      Totals:         0       2       0       0       0
   999 ;;Total ram usage:        2 bytes
  1000 ;; Hardware stack levels used: 1
  1001 ;; Hardware stack levels required when called: 3
  1002 ;; This function calls:
  1003 ;;		Nothing
  1004 ;; This function is called by:
  1005 ;;		_setup
  1006 ;; This function uses a non-reentrant model
  1007 ;;
  1008                           
  1009     0019                     _configOsc:	
  1010                           ;psect for function _configOsc
  1011                           
  1012     0019                     l1014:	
  1013                           ;incstack = 0
  1014                           ; Regs used in _configOsc: [wreg+status,2+status,0]
  1015                           
  1016                           
  1017                           ;oscilador.c: 5:         if (frec == 8) OSCCONbits.IRCF = 0b111;
  1018     0019  3008               	movlw	8
  1019     001A  1283               	bcf	3,5	;RP0=0, select bank0
  1020     001B  1303               	bcf	3,6	;RP1=0, select bank0
  1021     001C  0620               	xorwf	configOsc@frec,w
  1022     001D  0421               	iorwf	configOsc@frec+1,w
  1023     001E  1D03               	btfss	3,2
  1024     001F  2821               	goto	u271
  1025     0020  2822               	goto	u270
  1026     0021                     u271:
  1027     0021  2826               	goto	l5
  1028     0022                     u270:
  1029     0022                     l1016:
  1030     0022  3070               	movlw	112
  1031     0023  1683               	bsf	3,5	;RP0=1, select bank1
  1032     0024  1303               	bcf	3,6	;RP1=0, select bank1
  1033     0025  048F               	iorwf	15,f	;volatile
  1034     0026                     l5:
  1035                           
  1036                           ;oscilador.c: 6:         if (frec == 4) OSCCONbits.IRCF = 0b110;
  1037     0026  3004               	movlw	4
  1038     0027  1283               	bcf	3,5	;RP0=0, select bank0
  1039     0028  0620               	xorwf	configOsc@frec,w
  1040     0029  0421               	iorwf	configOsc@frec+1,w
  1041     002A  1D03               	btfss	3,2
  1042     002B  282D               	goto	u281
  1043     002C  282E               	goto	u280
  1044     002D                     u281:
  1045     002D  2834               	goto	l6
  1046     002E                     u280:
  1047     002E                     l1018:
  1048     002E  1683               	bsf	3,5	;RP0=1, select bank1
  1049     002F  1303               	bcf	3,6	;RP1=0, select bank1
  1050     0030  080F               	movf	15,w	;volatile
  1051     0031  398F               	andlw	-113
  1052     0032  3860               	iorlw	96
  1053     0033  008F               	movwf	15	;volatile
  1054     0034                     l6:
  1055                           
  1056                           ;oscilador.c: 7:         if (frec == 1) OSCCONbits.IRCF = 0b100;
  1057     0034  1283               	bcf	3,5	;RP0=0, select bank0
  1058     0035  0320               	decf	configOsc@frec,w
  1059     0036  0421               	iorwf	configOsc@frec+1,w
  1060     0037  1D03               	btfss	3,2
  1061     0038  283A               	goto	u291
  1062     0039  283B               	goto	u290
  1063     003A                     u291:
  1064     003A  2841               	goto	l7
  1065     003B                     u290:
  1066     003B                     l1020:
  1067     003B  1683               	bsf	3,5	;RP0=1, select bank1
  1068     003C  1303               	bcf	3,6	;RP1=0, select bank1
  1069     003D  080F               	movf	15,w	;volatile
  1070     003E  398F               	andlw	-113
  1071     003F  3840               	iorlw	64
  1072     0040  008F               	movwf	15	;volatile
  1073     0041                     l7:
  1074                           
  1075                           ;oscilador.c: 8:         if (frec == 500) OSCCONbits.IRCF = 0b011;
  1076     0041  30F4               	movlw	244
  1077     0042  1283               	bcf	3,5	;RP0=0, select bank0
  1078     0043  0620               	xorwf	configOsc@frec,w
  1079     0044  1D03               	skipz
  1080     0045  284A               	goto	u301
  1081     0046  0321               	decf	configOsc@frec+1,w
  1082     0047  1D03               	btfss	3,2
  1083     0048  284A               	goto	u301
  1084     0049  284B               	goto	u300
  1085     004A                     u301:
  1086     004A  2851               	goto	l8
  1087     004B                     u300:
  1088     004B                     l1022:
  1089     004B  1683               	bsf	3,5	;RP0=1, select bank1
  1090     004C  1303               	bcf	3,6	;RP1=0, select bank1
  1091     004D  080F               	movf	15,w	;volatile
  1092     004E  398F               	andlw	-113
  1093     004F  3830               	iorlw	48
  1094     0050  008F               	movwf	15	;volatile
  1095     0051                     l8:
  1096                           
  1097                           ;oscilador.c: 9:         if (frec == 250) OSCCONbits.IRCF = 0b101;
  1098     0051  30FA               	movlw	250
  1099     0052  1283               	bcf	3,5	;RP0=0, select bank0
  1100     0053  0620               	xorwf	configOsc@frec,w
  1101     0054  0421               	iorwf	configOsc@frec+1,w
  1102     0055  1D03               	btfss	3,2
  1103     0056  2858               	goto	u311
  1104     0057  2859               	goto	u310
  1105     0058                     u311:
  1106     0058  285F               	goto	l9
  1107     0059                     u310:
  1108     0059                     l1024:
  1109     0059  1683               	bsf	3,5	;RP0=1, select bank1
  1110     005A  1303               	bcf	3,6	;RP1=0, select bank1
  1111     005B  080F               	movf	15,w	;volatile
  1112     005C  398F               	andlw	-113
  1113     005D  3850               	iorlw	80
  1114     005E  008F               	movwf	15	;volatile
  1115     005F                     l9:
  1116                           
  1117                           ;oscilador.c: 10:         if (frec == 125) OSCCONbits.IRCF = 0b001;
  1118     005F  307D               	movlw	125
  1119     0060  1283               	bcf	3,5	;RP0=0, select bank0
  1120     0061  0620               	xorwf	configOsc@frec,w
  1121     0062  0421               	iorwf	configOsc@frec+1,w
  1122     0063  1D03               	btfss	3,2
  1123     0064  2866               	goto	u321
  1124     0065  2867               	goto	u320
  1125     0066                     u321:
  1126     0066  286D               	goto	l10
  1127     0067                     u320:
  1128     0067                     l1026:
  1129     0067  1683               	bsf	3,5	;RP0=1, select bank1
  1130     0068  1303               	bcf	3,6	;RP1=0, select bank1
  1131     0069  080F               	movf	15,w	;volatile
  1132     006A  398F               	andlw	-113
  1133     006B  3810               	iorlw	16
  1134     006C  008F               	movwf	15	;volatile
  1135     006D                     l10:
  1136                           
  1137                           ;oscilador.c: 11:         if (frec == 31) OSCCONbits.IRCF = 0b000;
  1138     006D  301F               	movlw	31
  1139     006E  1283               	bcf	3,5	;RP0=0, select bank0
  1140     006F  0620               	xorwf	configOsc@frec,w
  1141     0070  0421               	iorwf	configOsc@frec+1,w
  1142     0071  1D03               	btfss	3,2
  1143     0072  2874               	goto	u331
  1144     0073  2875               	goto	u330
  1145     0074                     u331:
  1146     0074  2879               	goto	l1030
  1147     0075                     u330:
  1148     0075                     l1028:
  1149     0075  308F               	movlw	-113
  1150     0076  1683               	bsf	3,5	;RP0=1, select bank1
  1151     0077  1303               	bcf	3,6	;RP1=0, select bank1
  1152     0078  058F               	andwf	15,f	;volatile
  1153     0079                     l1030:
  1154                           
  1155                           ;oscilador.c: 12:         OSCCONbits.SCS = 1;
  1156     0079  1683               	bsf	3,5	;RP0=1, select bank1
  1157     007A  1303               	bcf	3,6	;RP1=0, select bank1
  1158     007B  140F               	bsf	15,0	;volatile
  1159     007C                     l12:
  1160     007C  0008               	return
  1161     007D                     __end_of_configOsc:
  1162                           
  1163                           	psect	text4
  1164     0161                     __ptext4:	
  1165 ;; *************** function _adcConfig *****************
  1166 ;; Defined at:
  1167 ;;		line 11 in file "adc_c.c"
  1168 ;; Parameters:    Size  Location     Type
  1169 ;;		None
  1170 ;; Auto vars:     Size  Location     Type
  1171 ;;		None
  1172 ;; Return value:  Size  Location     Type
  1173 ;;                  1    wreg      void 
  1174 ;; Registers used:
  1175 ;;		wreg, status,2, status,0, pclath, cstack
  1176 ;; Tracked objects:
  1177 ;;		On entry : 0/0
  1178 ;;		On exit  : 0/0
  1179 ;;		Unchanged: 0/0
  1180 ;; Data sizes:     COMMON   BANK0   BANK1   BANK3   BANK2
  1181 ;;      Params:         0       0       0       0       0
  1182 ;;      Locals:         0       0       0       0       0
  1183 ;;      Temps:          0       0       0       0       0
  1184 ;;      Totals:         0       0       0       0       0
  1185 ;;Total ram usage:        0 bytes
  1186 ;; Hardware stack levels used: 1
  1187 ;; Hardware stack levels required when called: 4
  1188 ;; This function calls:
  1189 ;;		_adcChannel
  1190 ;; This function is called by:
  1191 ;;		_setup
  1192 ;; This function uses a non-reentrant model
  1193 ;;
  1194                           
  1195     0161                     _adcConfig:	
  1196                           ;psect for function _adcConfig
  1197                           
  1198     0161                     l1042:	
  1199                           ;incstack = 0
  1200                           ; Regs used in _adcConfig: [wreg+status,2+status,0+pclath+cstack]
  1201                           
  1202                           
  1203                           ;adc_c.c: 12:     ADCON0bits.ADCS = 0;
  1204     0161  303F               	movlw	-193
  1205     0162  1283               	bcf	3,5	;RP0=0, select bank0
  1206     0163  1303               	bcf	3,6	;RP1=0, select bank0
  1207     0164  059F               	andwf	31,f	;volatile
  1208     0165                     l1044:
  1209                           
  1210                           ;adc_c.c: 13:     ADCON0bits.CHS0 = 0;
  1211     0165  111F               	bcf	31,2	;volatile
  1212     0166                     l1046:
  1213                           
  1214                           ;adc_c.c: 14:     ADCON0bits.ADON = 1;
  1215     0166  141F               	bsf	31,0	;volatile
  1216     0167                     l1048:
  1217                           
  1218                           ;adc_c.c: 15:     ADCON1bits.VCFG1 = 0;
  1219     0167  1683               	bsf	3,5	;RP0=1, select bank1
  1220     0168  1303               	bcf	3,6	;RP1=0, select bank1
  1221     0169  129F               	bcf	31,5	;volatile
  1222     016A                     l1050:
  1223                           
  1224                           ;adc_c.c: 16:     ADCON1bits.VCFG0 = 0;
  1225     016A  121F               	bcf	31,4	;volatile
  1226     016B                     l1052:
  1227                           
  1228                           ;adc_c.c: 17:     ADCON1bits.ADFM = 0;
  1229     016B  139F               	bcf	31,7	;volatile
  1230     016C                     l1054:
  1231                           
  1232                           ;adc_c.c: 19:     INTCONbits.GIE = 1;
  1233     016C  178B               	bsf	11,7	;volatile
  1234     016D                     l1056:
  1235                           
  1236                           ;adc_c.c: 20:     INTCONbits.PEIE = 1;
  1237     016D  170B               	bsf	11,6	;volatile
  1238     016E                     l1058:
  1239                           
  1240                           ;adc_c.c: 21:     PIE1bits.ADIE = 1;
  1241     016E  170C               	bsf	12,6	;volatile
  1242     016F                     l1060:
  1243                           
  1244                           ;adc_c.c: 22:     ADCON0bits.GO = 1;
  1245     016F  1283               	bcf	3,5	;RP0=0, select bank0
  1246     0170  1303               	bcf	3,6	;RP1=0, select bank0
  1247     0171  149F               	bsf	31,1	;volatile
  1248     0172                     l1062:
  1249                           
  1250                           ;adc_c.c: 23:     adcChannel(0);
  1251     0172  3000               	movlw	0
  1252     0173  120A  118A  2179  120A  118A  	fcall	_adcChannel
  1253     0178                     l61:
  1254     0178  0008               	return
  1255     0179                     __end_of_adcConfig:
  1256                           
  1257                           	psect	text5
  1258     0179                     __ptext5:	
  1259 ;; *************** function _adcChannel *****************
  1260 ;; Defined at:
  1261 ;;		line 27 in file "adc_c.c"
  1262 ;; Parameters:    Size  Location     Type
  1263 ;;  channel         1    wreg     unsigned char 
  1264 ;; Auto vars:     Size  Location     Type
  1265 ;;  channel         1    1[BANK0 ] unsigned char 
  1266 ;; Return value:  Size  Location     Type
  1267 ;;                  1    wreg      void 
  1268 ;; Registers used:
  1269 ;;		wreg, status,2, status,0
  1270 ;; Tracked objects:
  1271 ;;		On entry : 0/0
  1272 ;;		On exit  : 0/0
  1273 ;;		Unchanged: 0/0
  1274 ;; Data sizes:     COMMON   BANK0   BANK1   BANK3   BANK2
  1275 ;;      Params:         0       0       0       0       0
  1276 ;;      Locals:         0       1       0       0       0
  1277 ;;      Temps:          0       1       0       0       0
  1278 ;;      Totals:         0       2       0       0       0
  1279 ;;Total ram usage:        2 bytes
  1280 ;; Hardware stack levels used: 1
  1281 ;; Hardware stack levels required when called: 3
  1282 ;; This function calls:
  1283 ;;		Nothing
  1284 ;; This function is called by:
  1285 ;;		_adcConfig
  1286 ;;		_main
  1287 ;; This function uses a non-reentrant model
  1288 ;;
  1289                           
  1290     0179                     _adcChannel:	
  1291                           ;psect for function _adcChannel
  1292                           
  1293                           
  1294                           ;incstack = 0
  1295                           ; Regs used in _adcChannel: [wreg+status,2+status,0]
  1296                           ;adcChannel@channel stored from wreg
  1297     0179  1283               	bcf	3,5	;RP0=0, select bank0
  1298     017A  1303               	bcf	3,6	;RP1=0, select bank0
  1299     017B  00A1               	movwf	adcChannel@channel
  1300     017C                     l1010:
  1301                           
  1302                           ;adc_c.c: 28:     ADCON0bits.CHS = channel;
  1303     017C  0821               	movf	adcChannel@channel,w
  1304     017D  00A0               	movwf	??_adcChannel
  1305     017E  0DA0               	rlf	??_adcChannel,f
  1306     017F  0DA0               	rlf	??_adcChannel,f
  1307     0180  081F               	movf	31,w	;volatile
  1308     0181  0620               	xorwf	??_adcChannel,w
  1309     0182  39C3               	andlw	-61
  1310     0183  0620               	xorwf	??_adcChannel,w
  1311     0184  009F               	movwf	31	;volatile
  1312     0185                     l64:
  1313     0185  0008               	return
  1314     0186                     __end_of_adcChannel:
  1315                           
  1316                           	psect	text6
  1317     007D                     __ptext6:	
  1318 ;; *************** function _isr *****************
  1319 ;; Defined at:
  1320 ;;		line 60 in file "E:/Universidad/Semestre2_2023/Digital-2/Lab3/Lab3_Slave_1.X/Lab3Slave1.c"
  1321 ;; Parameters:    Size  Location     Type
  1322 ;;		None
  1323 ;; Auto vars:     Size  Location     Type
  1324 ;;		None
  1325 ;; Return value:  Size  Location     Type
  1326 ;;                  1    wreg      void 
  1327 ;; Registers used:
  1328 ;;		wreg, status,2, status,0, btemp+1, pclath, cstack
  1329 ;; Tracked objects:
  1330 ;;		On entry : 0/0
  1331 ;;		On exit  : 0/0
  1332 ;;		Unchanged: 0/0
  1333 ;; Data sizes:     COMMON   BANK0   BANK1   BANK3   BANK2
  1334 ;;      Params:         0       0       0       0       0
  1335 ;;      Locals:         0       0       0       0       0
  1336 ;;      Temps:          4       0       0       0       0
  1337 ;;      Totals:         4       0       0       0       0
  1338 ;;Total ram usage:        4 bytes
  1339 ;; Hardware stack levels used: 1
  1340 ;; Hardware stack levels required when called: 2
  1341 ;; This function calls:
  1342 ;;		_adcRead
  1343 ;;		_downButtonF
  1344 ;;		_spiRead
  1345 ;;		_spiWrite
  1346 ;;		_upButtonF
  1347 ;; This function is called by:
  1348 ;;		Interrupt level 1
  1349 ;; This function uses a non-reentrant model
  1350 ;;
  1351                           
  1352     007D                     _isr:	
  1353                           ;psect for function _isr
  1354                           
  1355     007D                     i1l884:
  1356                           
  1357                           ;E:/Universidad/Semestre2_2023/Digital-2/Lab3/Lab3_Slave_1.X/Lab3Slave1.c: 62:     if(RB
      +                          IF == 1) {
  1358     007D  1C0B               	btfss	11,0	;volatile
  1359     007E  2880               	goto	u10_21
  1360     007F  2881               	goto	u10_20
  1361     0080                     u10_21:
  1362     0080  289C               	goto	i1l898
  1363     0081                     u10_20:
  1364     0081                     i1l886:
  1365                           
  1366                           ;E:/Universidad/Semestre2_2023/Digital-2/Lab3/Lab3_Slave_1.X/Lab3Slave1.c: 63:     if (!
      +                          RB0){
  1367     0081  1283               	bcf	3,5	;RP0=0, select bank0
  1368     0082  1303               	bcf	3,6	;RP1=0, select bank0
  1369     0083  1806               	btfsc	6,0	;volatile
  1370     0084  2886               	goto	u11_21
  1371     0085  2887               	goto	u11_20
  1372     0086                     u11_21:
  1373     0086  288C               	goto	i1l890
  1374     0087                     u11_20:
  1375     0087                     i1l888:
  1376                           
  1377                           ;E:/Universidad/Semestre2_2023/Digital-2/Lab3/Lab3_Slave_1.X/Lab3Slave1.c: 64:         u
      +                          pButtonF();
  1378     0087  120A  118A  218F  120A  118A  	fcall	_upButtonF
  1379     008C                     i1l890:
  1380                           
  1381                           ;E:/Universidad/Semestre2_2023/Digital-2/Lab3/Lab3_Slave_1.X/Lab3Slave1.c: 67:     if (!
      +                          RB1){
  1382     008C  1283               	bcf	3,5	;RP0=0, select bank0
  1383     008D  1303               	bcf	3,6	;RP1=0, select bank0
  1384     008E  1886               	btfsc	6,1	;volatile
  1385     008F  2891               	goto	u12_21
  1386     0090  2892               	goto	u12_20
  1387     0091                     u12_21:
  1388     0091  2897               	goto	i1l894
  1389     0092                     u12_20:
  1390     0092                     i1l892:
  1391                           
  1392                           ;E:/Universidad/Semestre2_2023/Digital-2/Lab3/Lab3_Slave_1.X/Lab3Slave1.c: 68:         d
      +                          ownButtonF();
  1393     0092  120A  118A  21A3  120A  118A  	fcall	_downButtonF
  1394     0097                     i1l894:
  1395                           
  1396                           ;E:/Universidad/Semestre2_2023/Digital-2/Lab3/Lab3_Slave_1.X/Lab3Slave1.c: 71:         c
      +                          ontValue = PORTD;
  1397     0097  1283               	bcf	3,5	;RP0=0, select bank0
  1398     0098  1303               	bcf	3,6	;RP1=0, select bank0
  1399     0099  0808               	movf	8,w	;volatile
  1400     009A  00F6               	movwf	_contValue
  1401     009B                     i1l896:
  1402                           
  1403                           ;E:/Universidad/Semestre2_2023/Digital-2/Lab3/Lab3_Slave_1.X/Lab3Slave1.c: 72:         I
      +                          NTCONbits.RBIF = 0;
  1404     009B  100B               	bcf	11,0	;volatile
  1405     009C                     i1l898:
  1406                           
  1407                           ;E:/Universidad/Semestre2_2023/Digital-2/Lab3/Lab3_Slave_1.X/Lab3Slave1.c: 74:    if(SSP
      +                          IF == 1){
  1408     009C  1283               	bcf	3,5	;RP0=0, select bank0
  1409     009D  1303               	bcf	3,6	;RP1=0, select bank0
  1410     009E  1D8C               	btfss	12,3	;volatile
  1411     009F  28A1               	goto	u13_21
  1412     00A0  28A2               	goto	u13_20
  1413     00A1                     u13_21:
  1414     00A1  28BD               	goto	i1l910
  1415     00A2                     u13_20:
  1416     00A2                     i1l900:
  1417                           
  1418                           ;E:/Universidad/Semestre2_2023/Digital-2/Lab3/Lab3_Slave_1.X/Lab3Slave1.c: 75:         s
      +                          laveSelect = spiRead();
  1419     00A2  120A  118A  2186  120A  118A  	fcall	_spiRead
  1420     00A7  00F5               	movwf	_slaveSelect
  1421     00A8                     i1l902:
  1422                           
  1423                           ;E:/Universidad/Semestre2_2023/Digital-2/Lab3/Lab3_Slave_1.X/Lab3Slave1.c: 76:         i
      +                          f (slaveSelect == 0){
  1424     00A8  0875               	movf	_slaveSelect,w
  1425     00A9  1D03               	btfss	3,2
  1426     00AA  28AC               	goto	u14_21
  1427     00AB  28AD               	goto	u14_20
  1428     00AC                     u14_21:
  1429     00AC  28B4               	goto	i1l906
  1430     00AD                     u14_20:
  1431     00AD                     i1l904:
  1432                           
  1433                           ;E:/Universidad/Semestre2_2023/Digital-2/Lab3/Lab3_Slave_1.X/Lab3Slave1.c: 77:          
      +                             spiWrite(adcValue);
  1434     00AD  0877               	movf	_adcValue,w
  1435     00AE  120A  118A  219D  120A  118A  	fcall	_spiWrite
  1436                           
  1437                           ;E:/Universidad/Semestre2_2023/Digital-2/Lab3/Lab3_Slave_1.X/Lab3Slave1.c: 78:         }
  1438     00B3  28BA               	goto	i1l908
  1439     00B4                     i1l906:
  1440                           
  1441                           ;E:/Universidad/Semestre2_2023/Digital-2/Lab3/Lab3_Slave_1.X/Lab3Slave1.c: 80:          
      +                             spiWrite(contValue);
  1442     00B4  0876               	movf	_contValue,w
  1443     00B5  120A  118A  219D  120A  118A  	fcall	_spiWrite
  1444     00BA                     i1l908:
  1445                           
  1446                           ;E:/Universidad/Semestre2_2023/Digital-2/Lab3/Lab3_Slave_1.X/Lab3Slave1.c: 82:         S
      +                          SPIF = 0;
  1447     00BA  1283               	bcf	3,5	;RP0=0, select bank0
  1448     00BB  1303               	bcf	3,6	;RP1=0, select bank0
  1449     00BC  118C               	bcf	12,3	;volatile
  1450     00BD                     i1l910:
  1451                           
  1452                           ;E:/Universidad/Semestre2_2023/Digital-2/Lab3/Lab3_Slave_1.X/Lab3Slave1.c: 85:     if (A
      +                          DIF == 1) {
  1453     00BD  1F0C               	btfss	12,6	;volatile
  1454     00BE  28C0               	goto	u15_21
  1455     00BF  28C1               	goto	u15_20
  1456     00C0                     u15_21:
  1457     00C0  28D3               	goto	i1l152
  1458     00C1                     u15_20:
  1459     00C1                     i1l912:
  1460                           
  1461                           ;E:/Universidad/Semestre2_2023/Digital-2/Lab3/Lab3_Slave_1.X/Lab3Slave1.c: 86:         i
      +                          f (ADCON0bits.CHS == 0) {
  1462     00C1  0C1F               	rrf	31,w	;volatile
  1463     00C2  00F1               	movwf	??_isr
  1464     00C3  0C71               	rrf	??_isr,w
  1465     00C4  390F               	andlw	15
  1466     00C5  3A00               	xorlw	0
  1467     00C6  1D03               	skipz
  1468     00C7  28C9               	goto	u16_21
  1469     00C8  28CA               	goto	u16_20
  1470     00C9                     u16_21:
  1471     00C9  28D3               	goto	i1l152
  1472     00CA                     u16_20:
  1473     00CA                     i1l914:
  1474                           
  1475                           ;E:/Universidad/Semestre2_2023/Digital-2/Lab3/Lab3_Slave_1.X/Lab3Slave1.c: 87:          
      +                             adcValue = adcRead();
  1476     00CA  120A  118A  21A8  120A  118A  	fcall	_adcRead
  1477     00CF  00F7               	movwf	_adcValue
  1478     00D0                     i1l916:
  1479                           
  1480                           ;E:/Universidad/Semestre2_2023/Digital-2/Lab3/Lab3_Slave_1.X/Lab3Slave1.c: 88:          
      +                             PIR1bits.ADIF = 0;
  1481     00D0  1283               	bcf	3,5	;RP0=0, select bank0
  1482     00D1  1303               	bcf	3,6	;RP1=0, select bank0
  1483     00D2  130C               	bcf	12,6	;volatile
  1484     00D3                     i1l152:
  1485     00D3  0874               	movf	??_isr+3,w
  1486     00D4  00FF               	movwf	btemp+1
  1487     00D5  0873               	movf	??_isr+2,w
  1488     00D6  008A               	movwf	10
  1489     00D7  0E72               	swapf	??_isr+1,w
  1490     00D8  0083               	movwf	3
  1491     00D9  0EFE               	swapf	btemp,f
  1492     00DA  0E7E               	swapf	btemp,w
  1493     00DB  0009               	retfie
  1494     00DC                     __end_of_isr:
  1495                           
  1496                           	psect	intentry
  1497     0004                     __pintentry:	
  1498                           ;incstack = 0
  1499                           ; Regs used in _isr: [wreg+status,2+status,0+btemp+1+pclath+cstack]
  1500                           
  1501     0004                     interrupt_function:
  1502     007E                     saved_w	set	btemp
  1503     0004  00FE               	movwf	btemp
  1504     0005  0E03               	swapf	3,w
  1505     0006  00F2               	movwf	??_isr+1
  1506     0007  080A               	movf	10,w
  1507     0008  00F3               	movwf	??_isr+2
  1508     0009  087F               	movf	btemp+1,w
  1509     000A  00F4               	movwf	??_isr+3
  1510     000B  120A  118A  287D   	ljmp	_isr
  1511                           
  1512                           	psect	text7
  1513     018F                     __ptext7:	
  1514 ;; *************** function _upButtonF *****************
  1515 ;; Defined at:
  1516 ;;		line 150 in file "E:/Universidad/Semestre2_2023/Digital-2/Lab3/Lab3_Slave_1.X/Lab3Slave1.c"
  1517 ;; Parameters:    Size  Location     Type
  1518 ;;		None
  1519 ;; Auto vars:     Size  Location     Type
  1520 ;;		None
  1521 ;; Return value:  Size  Location     Type
  1522 ;;                  1    wreg      void 
  1523 ;; Registers used:
  1524 ;;		wreg, status,2, status,0, btemp+1
  1525 ;; Tracked objects:
  1526 ;;		On entry : 0/0
  1527 ;;		On exit  : 0/0
  1528 ;;		Unchanged: 0/0
  1529 ;; Data sizes:     COMMON   BANK0   BANK1   BANK3   BANK2
  1530 ;;      Params:         0       0       0       0       0
  1531 ;;      Locals:         0       0       0       0       0
  1532 ;;      Temps:          0       0       0       0       0
  1533 ;;      Totals:         0       0       0       0       0
  1534 ;;Total ram usage:        0 bytes
  1535 ;; Hardware stack levels used: 1
  1536 ;; This function calls:
  1537 ;;		Nothing
  1538 ;; This function is called by:
  1539 ;;		_isr
  1540 ;; This function uses a non-reentrant model
  1541 ;;
  1542                           
  1543     018F                     _upButtonF:	
  1544                           ;psect for function _upButtonF
  1545                           
  1546     018F                     i1l830:	
  1547                           ;incstack = 0
  1548                           ; Regs used in _upButtonF: [wreg+status,2+status,0+btemp+1]
  1549                           
  1550                           
  1551                           ;E:/Universidad/Semestre2_2023/Digital-2/Lab3/Lab3_Slave_1.X/Lab3Slave1.c: 151:         
      +                          PORTD++;
  1552     018F  3001               	movlw	1
  1553     0190  00FF               	movwf	btemp+1
  1554     0191  087F               	movf	btemp+1,w
  1555     0192  1283               	bcf	3,5	;RP0=0, select bank0
  1556     0193  1303               	bcf	3,6	;RP1=0, select bank0
  1557     0194  0788               	addwf	8,f	;volatile
  1558     0195                     i1l167:
  1559     0195  0008               	return
  1560     0196                     __end_of_upButtonF:
  1561                           
  1562                           	psect	text8
  1563     019D                     __ptext8:	
  1564 ;; *************** function _spiWrite *****************
  1565 ;; Defined at:
  1566 ;;		line 34 in file "SPI.c"
  1567 ;; Parameters:    Size  Location     Type
  1568 ;;  dat             1    wreg     unsigned char 
  1569 ;; Auto vars:     Size  Location     Type
  1570 ;;  dat             1    0[COMMON] unsigned char 
  1571 ;; Return value:  Size  Location     Type
  1572 ;;                  1    wreg      void 
  1573 ;; Registers used:
  1574 ;;		wreg
  1575 ;; Tracked objects:
  1576 ;;		On entry : 0/0
  1577 ;;		On exit  : 0/0
  1578 ;;		Unchanged: 0/0
  1579 ;; Data sizes:     COMMON   BANK0   BANK1   BANK3   BANK2
  1580 ;;      Params:         0       0       0       0       0
  1581 ;;      Locals:         1       0       0       0       0
  1582 ;;      Temps:          0       0       0       0       0
  1583 ;;      Totals:         1       0       0       0       0
  1584 ;;Total ram usage:        1 bytes
  1585 ;; Hardware stack levels used: 1
  1586 ;; This function calls:
  1587 ;;		Nothing
  1588 ;; This function is called by:
  1589 ;;		_isr
  1590 ;; This function uses a non-reentrant model
  1591 ;;
  1592                           
  1593     019D                     _spiWrite:	
  1594                           ;psect for function _spiWrite
  1595                           
  1596                           
  1597                           ;incstack = 0
  1598                           ; Regs used in _spiWrite: [wreg]
  1599                           ;spiWrite@dat stored from wreg
  1600     019D  00F0               	movwf	spiWrite@dat
  1601     019E                     i1l818:
  1602                           
  1603                           ;SPI.c: 34: void spiWrite(char dat);SPI.c: 35: {;SPI.c: 36:     SSPBUF = dat;
  1604     019E  0870               	movf	spiWrite@dat,w
  1605     019F  1283               	bcf	3,5	;RP0=0, select bank0
  1606     01A0  1303               	bcf	3,6	;RP1=0, select bank0
  1607     01A1  0093               	movwf	19	;volatile
  1608     01A2                     i1l38:
  1609     01A2  0008               	return
  1610     01A3                     __end_of_spiWrite:
  1611                           
  1612                           	psect	text9
  1613     0186                     __ptext9:	
  1614 ;; *************** function _spiRead *****************
  1615 ;; Defined at:
  1616 ;;		line 47 in file "SPI.c"
  1617 ;; Parameters:    Size  Location     Type
  1618 ;;		None
  1619 ;; Auto vars:     Size  Location     Type
  1620 ;;		None
  1621 ;; Return value:  Size  Location     Type
  1622 ;;                  1    wreg      unsigned char 
  1623 ;; Registers used:
  1624 ;;		wreg, status,2, status,0, pclath, cstack
  1625 ;; Tracked objects:
  1626 ;;		On entry : 0/0
  1627 ;;		On exit  : 0/0
  1628 ;;		Unchanged: 0/0
  1629 ;; Data sizes:     COMMON   BANK0   BANK1   BANK3   BANK2
  1630 ;;      Params:         0       0       0       0       0
  1631 ;;      Locals:         0       0       0       0       0
  1632 ;;      Temps:          0       0       0       0       0
  1633 ;;      Totals:         0       0       0       0       0
  1634 ;;Total ram usage:        0 bytes
  1635 ;; Hardware stack levels used: 1
  1636 ;; Hardware stack levels required when called: 1
  1637 ;; This function calls:
  1638 ;;		_spiReceiveWait
  1639 ;; This function is called by:
  1640 ;;		_isr
  1641 ;; This function uses a non-reentrant model
  1642 ;;
  1643                           
  1644     0186                     _spiRead:	
  1645                           ;psect for function _spiRead
  1646                           
  1647     0186                     i1l820:	
  1648                           ;incstack = 0
  1649                           ; Regs used in _spiRead: [wreg+status,2+status,0+pclath+cstack]
  1650                           
  1651                           
  1652                           ;SPI.c: 49:     spiReceiveWait();
  1653     0186  120A  118A  2196  120A  118A  	fcall	_spiReceiveWait
  1654     018B                     i1l822:
  1655                           
  1656                           ;SPI.c: 50:     return(SSPBUF);
  1657     018B  1283               	bcf	3,5	;RP0=0, select bank0
  1658     018C  1303               	bcf	3,6	;RP1=0, select bank0
  1659     018D  0813               	movf	19,w	;volatile
  1660     018E                     i1l46:
  1661     018E  0008               	return
  1662     018F                     __end_of_spiRead:
  1663                           
  1664                           	psect	text10
  1665     0196                     __ptext10:	
  1666 ;; *************** function _spiReceiveWait *****************
  1667 ;; Defined at:
  1668 ;;		line 29 in file "SPI.c"
  1669 ;; Parameters:    Size  Location     Type
  1670 ;;		None
  1671 ;; Auto vars:     Size  Location     Type
  1672 ;;		None
  1673 ;; Return value:  Size  Location     Type
  1674 ;;                  1    wreg      void 
  1675 ;; Registers used:
  1676 ;;		None
  1677 ;; Tracked objects:
  1678 ;;		On entry : 0/0
  1679 ;;		On exit  : 0/0
  1680 ;;		Unchanged: 0/0
  1681 ;; Data sizes:     COMMON   BANK0   BANK1   BANK3   BANK2
  1682 ;;      Params:         0       0       0       0       0
  1683 ;;      Locals:         0       0       0       0       0
  1684 ;;      Temps:          0       0       0       0       0
  1685 ;;      Totals:         0       0       0       0       0
  1686 ;;Total ram usage:        0 bytes
  1687 ;; Hardware stack levels used: 1
  1688 ;; This function calls:
  1689 ;;		Nothing
  1690 ;; This function is called by:
  1691 ;;		_spiRead
  1692 ;; This function uses a non-reentrant model
  1693 ;;
  1694                           
  1695     0196                     _spiReceiveWait:	
  1696                           ;psect for function _spiReceiveWait
  1697                           
  1698     0196                     i1l794:	
  1699                           ;incstack = 0
  1700                           ; Regs used in _spiReceiveWait: []
  1701                           
  1702     0196                     i1l32:	
  1703                           ;SPI.c: 31:     while ( !SSPSTATbits.BF );
  1704                           
  1705     0196  1683               	bsf	3,5	;RP0=1, select bank1
  1706     0197  1303               	bcf	3,6	;RP1=0, select bank1
  1707     0198  1C14               	btfss	20,0	;volatile
  1708     0199  299B               	goto	u9_21
  1709     019A  299C               	goto	u9_20
  1710     019B                     u9_21:
  1711     019B  2996               	goto	i1l32
  1712     019C                     u9_20:
  1713     019C                     i1l35:
  1714     019C  0008               	return
  1715     019D                     __end_of_spiReceiveWait:
  1716                           
  1717                           	psect	text11
  1718     01A3                     __ptext11:	
  1719 ;; *************** function _downButtonF *****************
  1720 ;; Defined at:
  1721 ;;		line 155 in file "E:/Universidad/Semestre2_2023/Digital-2/Lab3/Lab3_Slave_1.X/Lab3Slave1.c"
  1722 ;; Parameters:    Size  Location     Type
  1723 ;;		None
  1724 ;; Auto vars:     Size  Location     Type
  1725 ;;		None
  1726 ;; Return value:  Size  Location     Type
  1727 ;;                  1    wreg      void 
  1728 ;; Registers used:
  1729 ;;		wreg, status,2, status,0
  1730 ;; Tracked objects:
  1731 ;;		On entry : 0/0
  1732 ;;		On exit  : 0/0
  1733 ;;		Unchanged: 0/0
  1734 ;; Data sizes:     COMMON   BANK0   BANK1   BANK3   BANK2
  1735 ;;      Params:         0       0       0       0       0
  1736 ;;      Locals:         0       0       0       0       0
  1737 ;;      Temps:          0       0       0       0       0
  1738 ;;      Totals:         0       0       0       0       0
  1739 ;;Total ram usage:        0 bytes
  1740 ;; Hardware stack levels used: 1
  1741 ;; This function calls:
  1742 ;;		Nothing
  1743 ;; This function is called by:
  1744 ;;		_isr
  1745 ;; This function uses a non-reentrant model
  1746 ;;
  1747                           
  1748     01A3                     _downButtonF:	
  1749                           ;psect for function _downButtonF
  1750                           
  1751     01A3                     i1l832:	
  1752                           ;incstack = 0
  1753                           ; Regs used in _downButtonF: [wreg+status,2+status,0]
  1754                           
  1755                           
  1756                           ;E:/Universidad/Semestre2_2023/Digital-2/Lab3/Lab3_Slave_1.X/Lab3Slave1.c: 156:         
      +                          PORTD--;
  1757     01A3  3001               	movlw	1
  1758     01A4  1283               	bcf	3,5	;RP0=0, select bank0
  1759     01A5  1303               	bcf	3,6	;RP1=0, select bank0
  1760     01A6  0288               	subwf	8,f	;volatile
  1761     01A7                     i1l170:
  1762     01A7  0008               	return
  1763     01A8                     __end_of_downButtonF:
  1764                           
  1765                           	psect	text12
  1766     01A8                     __ptext12:	
  1767 ;; *************** function _adcRead *****************
  1768 ;; Defined at:
  1769 ;;		line 32 in file "adc_c.c"
  1770 ;; Parameters:    Size  Location     Type
  1771 ;;		None
  1772 ;; Auto vars:     Size  Location     Type
  1773 ;;		None
  1774 ;; Return value:  Size  Location     Type
  1775 ;;                  1    wreg      unsigned char 
  1776 ;; Registers used:
  1777 ;;		wreg
  1778 ;; Tracked objects:
  1779 ;;		On entry : 0/0
  1780 ;;		On exit  : 0/0
  1781 ;;		Unchanged: 0/0
  1782 ;; Data sizes:     COMMON   BANK0   BANK1   BANK3   BANK2
  1783 ;;      Params:         0       0       0       0       0
  1784 ;;      Locals:         0       0       0       0       0
  1785 ;;      Temps:          0       0       0       0       0
  1786 ;;      Totals:         0       0       0       0       0
  1787 ;;Total ram usage:        0 bytes
  1788 ;; Hardware stack levels used: 1
  1789 ;; This function calls:
  1790 ;;		Nothing
  1791 ;; This function is called by:
  1792 ;;		_isr
  1793 ;; This function uses a non-reentrant model
  1794 ;;
  1795                           
  1796     01A8                     _adcRead:	
  1797                           ;psect for function _adcRead
  1798                           
  1799     01A8                     i1l826:	
  1800                           ;incstack = 0
  1801                           ; Regs used in _adcRead: [wreg]
  1802                           
  1803                           
  1804                           ;adc_c.c: 33:     return ADRESH;
  1805     01A8  1283               	bcf	3,5	;RP0=0, select bank0
  1806     01A9  1303               	bcf	3,6	;RP1=0, select bank0
  1807     01AA  081E               	movf	30,w	;volatile
  1808     01AB                     i1l67:
  1809     01AB  0008               	return
  1810     01AC                     __end_of_adcRead:
  1811     007E                     btemp	set	126	;btemp
  1812     007E                     wtemp0	set	126
  1813                           
  1814                           	psect	idloc
  1815                           
  1816                           ;Config register IDLOC0 @ 0x2000
  1817                           ;	unspecified, using default values
  1818     2000                     	org	8192
  1819     2000  3FFF               	dw	16383
  1820                           
  1821                           ;Config register IDLOC1 @ 0x2001
  1822                           ;	unspecified, using default values
  1823     2001                     	org	8193
  1824     2001  3FFF               	dw	16383
  1825                           
  1826                           ;Config register IDLOC2 @ 0x2002
  1827                           ;	unspecified, using default values
  1828     2002                     	org	8194
  1829     2002  3FFF               	dw	16383
  1830                           
  1831                           ;Config register IDLOC3 @ 0x2003
  1832                           ;	unspecified, using default values
  1833     2003                     	org	8195
  1834     2003  3FFF               	dw	16383
  1835                           
  1836                           	psect	config
  1837                           
  1838                           ;Config register CONFIG1 @ 0x2007
  1839                           ;	Oscillator Selection bits
  1840                           ;	FOSC = INTRC_NOCLKOUT, INTOSCIO oscillator: I/O function on RA6/OSC2/CLKOUT pin, I/O f
      +                          unction on RA7/OSC1/CLKIN
  1841                           ;	Watchdog Timer Enable bit
  1842                           ;	WDTE = OFF, WDT disabled and can be enabled by SWDTEN bit of the WDTCON register
  1843                           ;	Power-up Timer Enable bit
  1844                           ;	PWRTE = OFF, PWRT disabled
  1845                           ;	RE3/MCLR pin function select bit
  1846                           ;	MCLRE = OFF, RE3/MCLR pin function is digital input, MCLR internally tied to VDD
  1847                           ;	Code Protection bit
  1848                           ;	CP = OFF, Program memory code protection is disabled
  1849                           ;	Data Code Protection bit
  1850                           ;	CPD = OFF, Data memory code protection is disabled
  1851                           ;	Brown Out Reset Selection bits
  1852                           ;	BOREN = OFF, BOR disabled
  1853                           ;	Internal External Switchover bit
  1854                           ;	IESO = OFF, Internal/External Switchover mode is disabled
  1855                           ;	Fail-Safe Clock Monitor Enabled bit
  1856                           ;	FCMEN = OFF, Fail-Safe Clock Monitor is disabled
  1857                           ;	Low Voltage Programming Enable bit
  1858                           ;	LVP = OFF, RB3 pin has digital I/O, HV on MCLR must be used for programming
  1859                           ;	In-Circuit Debugger Mode bit
  1860                           ;	DEBUG = 0x1, unprogramme  1861     2007                     	org	8199
  1862     2007  20D4               	dw	8404
  1863                           
  1864                           ;Config register CONFIG2 @ 0x2008
  1865                           ;	Brown-out Reset Selection bit
  1866                           ;	BOR4V = BOR40V, Brown-out Reset set to 4.0V
  1867                           ;	Flash Program Memory Self Write Enable bits
  1868                           ;	WRT = OFF, Write protection off
  1869     2008                     	org	8200
  1870     2008  3FFF               	dw	16383

Data Sizes:
    Strings     0
    Constant    0
    Data        0
    BSS         4
    Persistent  0
    Stack       0

Auto Spaces:
    Space          Size  Autos    Used
    COMMON           14      5       9
    BANK0            80      6       6
    BANK1            80      0       0
    BANK3            96      0       0
    BANK2            96      0       0

Pointer List with Targets:

    None.

Critical Paths under _main in COMMON

    None.

Critical Paths under _isr in COMMON

    _isr->_spiWrite

Critical Paths under _main in BANK0

    _main->_setup
    _setup->_spiInit
    _adcConfig->_adcChannel

Critical Paths under _isr in BANK0

    None.

Critical Paths under _main in BANK1

    None.

Critical Paths under _isr in BANK1

    None.

Critical Paths under _main in BANK3

    None.

Critical Paths under _isr in BANK3

    None.

Critical Paths under _main in BANK2

    None.

Critical Paths under _isr in BANK2

    None.

Call Graph Tables:

 ---------------------------------------------------------------------------------
 (Depth) Function   	        Calls       Base Space   Used Autos Params    Refs
 ---------------------------------------------------------------------------------
 (0) _main                                                 1     1      0     807
                                              5 BANK0      1     1      0
                         _adcChannel
                              _setup
 ---------------------------------------------------------------------------------
 (1) _setup                                                1     1      0     785
                                              4 BANK0      1     1      0
                          _adcConfig
                          _configOsc
                            _spiInit
 ---------------------------------------------------------------------------------
 (2) _spiInit                                              4     1      3     456
                                              0 BANK0      4     1      3
 ---------------------------------------------------------------------------------
 (2) _configOsc                                            2     0      2     307
                                              0 BANK0      2     0      2
 ---------------------------------------------------------------------------------
 (2) _adcConfig                                            0     0      0      22
                         _adcChannel
 ---------------------------------------------------------------------------------
 (3) _adcChannel                                           2     2      0      22
                                              0 BANK0      2     2      0
 ---------------------------------------------------------------------------------
 Estimated maximum stack depth 3
 ---------------------------------------------------------------------------------
 (Depth) Function   	        Calls       Base Space   Used Autos Params    Refs
 ---------------------------------------------------------------------------------
 (4) _isr                                                  4     4      0      15
                                              1 COMMON     4     4      0
                            _adcRead
                        _downButtonF
                            _spiRead
                           _spiWrite
                          _upButtonF
 ---------------------------------------------------------------------------------
 (5) _upButtonF                                            0     0      0       0
 ---------------------------------------------------------------------------------
 (5) _spiWrite                                             1     1      0      15
                                              0 COMMON     1     1      0
 ---------------------------------------------------------------------------------
 (5) _spiRead                                              0     0      0       0
                     _spiReceiveWait
 ---------------------------------------------------------------------------------
 (6) _spiReceiveWait                                       0     0      0       0
 ---------------------------------------------------------------------------------
 (5) _downButtonF                                          0     0      0       0
 ---------------------------------------------------------------------------------
 (5) _adcRead                                              0     0      0       0
 ---------------------------------------------------------------------------------
 Estimated maximum stack depth 6
 ---------------------------------------------------------------------------------

 Call Graph Graphs:

 _main (ROOT)
   _adcChannel
   _setup
     _adcConfig
       _adcChannel
     _configOsc
     _spiInit

 _isr (ROOT)
   _adcRead
   _downButtonF
   _spiRead
     _spiReceiveWait
   _spiWrite
   _upButtonF

 Address spaces:
Name               Size   Autos  Total    Cost      Usage
BITCOMMON            E      0       0       0        0.0%
EEDATA             100      0       0       0        0.0%
NULL                 0      0       0       0        0.0%
CODE                 0      0       0       0        0.0%
COMMON               E      5       9       1       64.3%
BITSFR0              0      0       0       1        0.0%
SFR0                 0      0       0       1        0.0%
BITSFR1              0      0       0       2        0.0%
SFR1                 0      0       0       2        0.0%
STACK                0      0       0       2        0.0%
ABS                  0      0       F       3        0.0%
BITBANK0            50      0       0       4        0.0%
BITSFR3              0      0       0       4        0.0%
SFR3                 0      0       0       4        0.0%
BANK0               50      6       6       5        7.5%
BITSFR2              0      0       0       5        0.0%
SFR2                 0      0       0       5        0.0%
BITBANK1            50      0       0       6        0.0%
BANK1               50      0       0       7        0.0%
BITBANK3            60      0       0       8        0.0%
BANK3               60      0       0       9        0.0%
BITBANK2            60      0       0      10        0.0%
BANK2               60      0       0      11        0.0%
DATA                 0      0       F      12        0.0%


Microchip Technology PIC Macro Assembler V2.41 build 20230208172133 
Symbol Table                                                                                   Wed Aug 02 23:27:29 2023

                      l5 0026                        l6 0034                        l7 0041  
                      l8 0051                        l9 005F              _SSPSTATbits 0094  
                     l10 006D                       l12 007C                       l28 015B  
                     l61 0178                       l29 0160                       l64 0185  
                    l164 011E                      _RB0 0030                      _RB1 0031  
                    u300 004B                      u301 004A                      u310 0059  
                    u311 0058                      u320 0067                      u321 0066  
                    u330 0075                      u331 0074                      u340 014F  
                    u341 014E                      u270 0022                      u350 012F  
                    u271 0021                      u351 012E                      u280 002E  
                    u281 002D                      u290 003B                      u291 003A  
                    u367 0139                      u377 0100                      _isr 007D  
           ?_downButtonF 0070                     l1010 017C                     l1020 003B  
                   l1100 011A                     l1030 0079                     l1022 004B  
                   l1014 0019                     l1102 011B                     l1110 0124  
                   l1024 0059                     l1016 0022                     l1040 015A  
                   l1032 0146                     l1104 011C                     l1112 012F  
                   l1050 016A                     l1042 0161                     l1026 0067  
                   l1018 002E                     l1034 014F                     l1106 011D  
                   l1114 0135                     l1060 016F                     l1052 016B  
                   l1044 0165                     l1028 0075                     l1036 0153  
                   l1116 013C                     l1108 011F                     l1062 0172  
                   l1054 016C                     l1046 0166                     l1038 0155  
                   l1070 00EB                     l1056 016D                     l1048 0167  
                   l1080 00F6                     l1072 00EF                     l1064 00DC  
                   l1058 016E                     l1090 0109                     l1082 00F7  
                   l1074 00F1                     l1066 00E7                     l1092 010A  
                   l1084 00FC                     l1076 00F2                     l1068 00EA  
                   l1094 0115                     l1086 0103                     l1078 00F5  
                   l1096 0116                     l1088 0106                     l1098 0117  
                   _ADIF 0066                     ?_isr 0070                     i1l32 0196  
                   _RBIF 0058                     i1l35 019C                     i1l46 018E  
                   i1l38 01A2                     i1l67 01AB                     u9_20 019C  
                   u9_21 019B                     _main 011F                     btemp 007E  
                   start 000E                    ??_isr 0071            configOsc@frec 0020  
                  ?_main 0070          __end_of_adcRead 01AC                    i1l152 00D3  
                  i1l170 01A7                    i1l167 0195                    i1l820 0186  
                  i1l900 00A2                    i1l822 018B                    i1l830 018F  
                  i1l902 00A8                    i1l910 00BD                    i1l832 01A3  
                  i1l912 00C1                    i1l904 00AD                    i1l826 01A8  
                  i1l818 019E                    i1l914 00CA                    i1l906 00B4  
                  i1l916 00D0                    i1l908 00BA                    i1l794 0196  
                  i1l890 008C                    i1l892 0092                    i1l884 007D  
                  i1l894 0097                    i1l886 0081                    i1l896 009B  
                  i1l888 0087                    i1l898 009C                    u10_20 0081  
                  u10_21 0080                    u11_20 0087                    u11_21 0086  
                  u12_20 0092                    u12_21 0091                    u13_20 00A2  
                  u13_21 00A1                    u14_20 00AD                    u14_21 00AC  
                  u15_20 00C1                    u15_21 00C0                    u16_20 00CA  
                  u16_21 00C9                    _PORTA 0005                    _PORTB 0006  
                  _PORTD 0008                    _TRISA 0085                    _TRISB 0086  
                  _TRISD 0088                    _SSPIF 0063                    _setup 00DC  
                  pclath 000A          __end_of_spiInit 0161          __end_of_spiRead 018F  
                  status 0003                    wtemp0 007E          __initialization 0011  
           __end_of_main 0143                   ??_main 0025                   _ADRESH 001E  
                 ?_setup 0070                   _ANSELH 0189        adcChannel@channel 0021  
                 _TRISC3 043B                   _TRISC5 043D                   _SSPCON 0014  
                 _SSPBUF 0013                ??_adcRead 0070                   saved_w 007E  
       __end_of_spiWrite 01A3                ??_spiInit 0075                ??_spiRead 0070  
             _adcChannel 0179  __end_of__initialization 0015           __pcstackCOMMON 0070  
          __end_of_setup 011F           _OPTION_REGbits 0081                  ??_setup 0024  
             __pmaintext 011F               __pintentry 0004        __end_of_adcConfig 0179  
            ?_adcChannel 0070                  _SSPSTAT 0094        __end_of_configOsc 007D  
              ?_spiWrite 0070                  _adcRead 01A8                _ANSELbits 0188  
                __ptext1 00DC                  __ptext2 0143                  __ptext3 0019  
                __ptext4 0161                  __ptext5 0179                  __ptext6 007D  
                __ptext7 018F                  __ptext8 019D                  __ptext9 0186  
                _spiInit 0143                  _spiRead 0186     end_of_initialization 0015  
      __end_of_upButtonF 0196               ??_spiWrite 0070                _TRISAbits 0085  
            spiWrite@dat 0070           _spiReceiveWait 0196      start_initialization 0011  
            __end_of_isr 00DC            ??_downButtonF 0070   __end_of_spiReceiveWait 019D  
              _adcConfig 0161              __pbssCOMMON 0075                ___latbits 0002  
          __pcstackBANK0 0020             ??_adcChannel 0020      __end_of_downButtonF 01A8  
        ?_spiReceiveWait 0070                 ?_adcRead 0070                _configOsc 0019  
     __end_of_adcChannel 0186                _contValue 0076               ?_adcConfig 0070  
               ?_spiInit 0020                 ?_spiRead 0070     spiInit@sTransmitEdge 0022  
      interrupt_function 0004                 _IOCBbits 0096                 _PIE1bits 008C  
              _upButtonF 018F       spiInit@sDataSample 0020                 _PIR1bits 000C  
             ?_configOsc 0020               _ADCON0bits 001F               _ADCON1bits 009F  
               _WPUBbits 0095              _downButtonF 01A3               ?_upButtonF 0070  
               _adcValue 0077              ??_adcConfig 0075                 __ptext10 0196  
               __ptext11 01A3                 __ptext12 01A8                 _temporal 0078  
               _spiWrite 019D             spiInit@sType 0023              ??_configOsc 0075  
      spiInit@sClockIdle 0021               _INTCONbits 000B                 intlevel1 0000  
       ??_spiReceiveWait 0070              ??_upButtonF 0070               _OSCCONbits 008F  
            _slaveSelect 0075  
