

Microchip MPLAB XC8 Assembler V2.41 build 20230208172133 
                                                                                               Wed Aug 09 19:50:45 2023

Microchip MPLAB XC8 C Compiler v2.41 (Free license) build 20230208172133 Og1 
     1                           	processor	16F887
     2                           	pagewidth 120
     3                           	opt	flic
     4                           	psect	strings,global,class=STRING,delta=2,noexec
     5                           	psect	cinit,global,class=CODE,merge=1,delta=2
     6                           	psect	bssBANK0,global,class=BANK0,space=1,delta=1,noexec
     7                           	psect	bssBANK1,global,class=BANK1,space=1,delta=1,noexec
     8                           	psect	clrtext,global,class=CODE,delta=2
     9                           	psect	cstackBANK1,global,class=BANK1,space=1,delta=1,noexec
    10                           	psect	cstackCOMMON,global,class=COMMON,space=1,delta=1,noexec
    11                           	psect	cstackBANK0,global,class=BANK0,space=1,delta=1,noexec
    12                           	psect	maintext,global,class=CODE,split=1,delta=2
    13                           	psect	text1,local,class=CODE,merge=1,delta=2,group=1
    14                           	psect	text2,local,class=CODE,merge=1,delta=2,group=3
    15                           	psect	text3,local,class=CODE,merge=1,delta=2,group=2
    16                           	psect	text4,local,class=CODE,merge=1,delta=2,group=2
    17                           	psect	text5,local,class=CODE,merge=1,delta=2
    18                           	psect	text6,local,class=CODE,merge=1,delta=2
    19                           	psect	text7,local,class=CODE,merge=1,delta=2
    20                           	psect	text8,local,class=CODE,merge=1,delta=2
    21                           	psect	text9,local,class=CODE,merge=1,delta=2,group=2
    22                           	psect	text10,local,class=CODE,merge=1,delta=2
    23                           	psect	text11,local,class=CODE,merge=1,delta=2
    24                           	psect	text12,local,class=CODE,merge=1,delta=2
    25                           	psect	text13,local,class=CODE,merge=1,delta=2
    26                           	psect	text14,local,class=CODE,merge=1,delta=2
    27                           	psect	text15,local,class=CODE,merge=1,delta=2,group=2
    28                           	psect	text16,local,class=CODE,merge=1,delta=2,group=2
    29                           	psect	text17,local,class=CODE,merge=1,delta=2
    30                           	psect	text18,local,class=CODE,merge=1,delta=2
    31                           	psect	text19,local,class=CODE,merge=1,delta=2
    32                           	psect	text20,local,class=CODE,merge=1,delta=2
    33                           	psect	text21,local,class=CODE,merge=1,delta=2
    34                           	psect	text22,local,class=CODE,merge=1,delta=2
    35                           	psect	text23,local,class=CODE,merge=1,delta=2
    36                           	psect	text24,local,class=CODE,merge=1,delta=2
    37                           	psect	text25,local,class=CODE,merge=1,delta=2
    38                           	psect	text26,local,class=CODE,merge=1,delta=2
    39                           	psect	text27,local,class=CODE,merge=1,delta=2,group=2
    40                           	psect	text28,local,class=CODE,merge=1,delta=2
    41                           	psect	intentry,global,class=CODE,delta=2
    42                           	psect	text29,local,class=CODE,merge=1,delta=2
    43                           	psect	text30,local,class=CODE,merge=1,delta=2
    44                           	psect	text31,local,class=CODE,merge=1,delta=2
    45                           	psect	text32,local,class=CODE,merge=1,delta=2
    46                           	psect	text33,local,class=CODE,merge=1,delta=2
    47                           	psect	text34,local,class=CODE,merge=1,delta=2
    48                           	psect	text35,local,class=CODE,merge=1,delta=2
    49                           	psect	text36,local,class=CODE,merge=1,delta=2
    50                           	psect	idloc,global,abs,ovrld,class=IDLOC,space=5,delta=2,noexec
    51                           	psect	config,global,abs,ovrld,class=CONFIG,space=4,delta=2,noexec
    52                           	dabs	1,0x7E,2
    53     0000                     
    54                           ; Version 2.40
    55                           ; Generated 17/11/2021 GMT
    56                           ; 
    57                           ; Copyright © 2021, Microchip Technology Inc. and its subsidiaries ("Microchip")
    58                           ; All rights reserved.
    59                           ; 
    60                           ; This software is developed by Microchip Technology Inc. and its subsidiaries ("Microch
      +                          ip").
    61                           ; 
    62                           ; Redistribution and use in source and binary forms, with or without modification, are
    63                           ; permitted provided that the following conditions are met:
    64                           ; 
    65                           ;     1. Redistributions of source code must retain the above copyright notice, this lis
      +                          t of
    66                           ;        conditions and the following disclaimer.
    67                           ; 
    68                           ;     2. Redistributions in binary form must reproduce the above copyright notice, this 
      +                          list
    69                           ;        of conditions and the following disclaimer in the documentation and/or other
    70                           ;        materials provided with the distribution. Publication is not required when
    71                           ;        this file is used in an embedded application.
    72                           ; 
    73                           ;     3. Microchip's name may not be used to endorse or promote products derived from th
      +                          is
    74                           ;        software without specific prior written permission.
    75                           ; 
    76                           ; THIS SOFTWARE IS PROVIDED BY MICROCHIP "AS IS" AND ANY EXPRESS OR IMPLIED WARRANTIES,
    77                           ; INCLUDING, BUT NOT LIMITED TO, THE IMPLIED WARRANTIES OF MERCHANTABILITY AND FITNESS F
      +                          OR
    78                           ; PURPOSE ARE DISCLAIMED.  IN NO EVENT SHALL MICROCHIP BE LIABLE FOR ANY DIRECT, INDIREC
      +                          T,
    79                           ; INCIDENTAL, SPECIAL, EXEMPLARY, OR CONSEQUENTIAL DAMAGES (INCLUDING BUT NOT LIMITED TO
    80                           ; PROCUREMENT OF SUBSTITUTE GOODS OR SERVICES; LOSS OF USE, DATA OR PROFITS; OR BUSINESS
    81                           ; INTERRUPTION) HOWSOEVER CAUSED AND ON ANY THEORY OF LIABILITY, WHETHER IN CONTRACT, ST
      +                          RICT
    82                           ; LIABILITY, OR TORT (INCLUDING NEGLIGENCE OR OTHERWISE) ARISING IN ANY WAY OUT OF THE U
      +                          SE OF
    83                           ; THIS SOFTWARE, EVEN IF ADVISED OF THE POSSIBILITY OF SUCH DAMAGE.
    84                           ; 
    85                           ; 
    86                           ; Code-generator required, PIC16F887 Definitions
    87                           ; 
    88                           ; SFR Addresses
    89     0000                     	;# 
    90     0001                     	;# 
    91     0002                     	;# 
    92     0003                     	;# 
    93     0004                     	;# 
    94     0005                     	;# 
    95     0006                     	;# 
    96     0007                     	;# 
    97     0008                     	;# 
    98     0009                     	;# 
    99     000A                     	;# 
   100     000B                     	;# 
   101     000C                     	;# 
   102     000D                     	;# 
   103     000E                     	;# 
   104     000E                     	;# 
   105     000F                     	;# 
   106     0010                     	;# 
   107     0011                     	;# 
   108     0012                     	;# 
   109     0013                     	;# 
   110     0014                     	;# 
   111     0015                     	;# 
   112     0015                     	;# 
   113     0016                     	;# 
   114     0017                     	;# 
   115     0018                     	;# 
   116     0019                     	;# 
   117     001A                     	;# 
   118     001B                     	;# 
   119     001B                     	;# 
   120     001C                     	;# 
   121     001D                     	;# 
   122     001E                     	;# 
   123     001F                     	;# 
   124     0081                     	;# 
   125     0085                     	;# 
   126     0086                     	;# 
   127     0087                     	;# 
   128     0088                     	;# 
   129     0089                     	;# 
   130     008C                     	;# 
   131     008D                     	;# 
   132     008E                     	;# 
   133     008F                     	;# 
   134     0090                     	;# 
   135     0091                     	;# 
   136     0092                     	;# 
   137     0093                     	;# 
   138     0093                     	;# 
   139     0093                     	;# 
   140     0094                     	;# 
   141     0095                     	;# 
   142     0096                     	;# 
   143     0097                     	;# 
   144     0098                     	;# 
   145     0099                     	;# 
   146     009A                     	;# 
   147     009B                     	;# 
   148     009C                     	;# 
   149     009D                     	;# 
   150     009E                     	;# 
   151     009F                     	;# 
   152     0105                     	;# 
   153     0107                     	;# 
   154     0108                     	;# 
   155     0109                     	;# 
   156     010C                     	;# 
   157     010C                     	;# 
   158     010D                     	;# 
   159     010E                     	;# 
   160     010F                     	;# 
   161     0185                     	;# 
   162     0187                     	;# 
   163     0188                     	;# 
   164     0189                     	;# 
   165     018C                     	;# 
   166     018D                     	;# 
   167     0000                     	;# 
   168     0001                     	;# 
   169     0002                     	;# 
   170     0003                     	;# 
   171     0004                     	;# 
   172     0005                     	;# 
   173     0006                     	;# 
   174     0007                     	;# 
   175     0008                     	;# 
   176     0009                     	;# 
   177     000A                     	;# 
   178     000B                     	;# 
   179     000C                     	;# 
   180     000D                     	;# 
   181     000E                     	;# 
   182     000E                     	;# 
   183     000F                     	;# 
   184     0010                     	;# 
   185     0011                     	;# 
   186     0012                     	;# 
   187     0013                     	;# 
   188     0014                     	;# 
   189     0015                     	;# 
   190     0015                     	;# 
   191     0016                     	;# 
   192     0017                     	;# 
   193     0018                     	;# 
   194     0019                     	;# 
   195     001A                     	;# 
   196     001B                     	;# 
   197     001B                     	;# 
   198     001C                     	;# 
   199     001D                     	;# 
   200     001E                     	;# 
   201     001F                     	;# 
   202     0081                     	;# 
   203     0085                     	;# 
   204     0086                     	;# 
   205     0087                     	;# 
   206     0088                     	;# 
   207     0089                     	;# 
   208     008C                     	;# 
   209     008D                     	;# 
   210     008E                     	;# 
   211     008F                     	;# 
   212     0090                     	;# 
   213     0091                     	;# 
   214     0092                     	;# 
   215     0093                     	;# 
   216     0093                     	;# 
   217     0093                     	;# 
   218     0094                     	;# 
   219     0095                     	;# 
   220     0096                     	;# 
   221     0097                     	;# 
   222     0098                     	;# 
   223     0099                     	;# 
   224     009A                     	;# 
   225     009B                     	;# 
   226     009C                     	;# 
   227     009D                     	;# 
   228     009E                     	;# 
   229     009F                     	;# 
   230     0105                     	;# 
   231     0107                     	;# 
   232     0108                     	;# 
   233     0109                     	;# 
   234     010C                     	;# 
   235     010C                     	;# 
   236     010D                     	;# 
   237     010E                     	;# 
   238     010F                     	;# 
   239     0185                     	;# 
   240     0187                     	;# 
   241     0188                     	;# 
   242     0189                     	;# 
   243     018C                     	;# 
   244     018D                     	;# 
   245     0000                     	;# 
   246     0001                     	;# 
   247     0002                     	;# 
   248     0003                     	;# 
   249     0004                     	;# 
   250     0005                     	;# 
   251     0006                     	;# 
   252     0007                     	;# 
   253     0008                     	;# 
   254     0009                     	;# 
   255     000A                     	;# 
   256     000B                     	;# 
   257     000C                     	;# 
   258     000D                     	;# 
   259     000E                     	;# 
   260     000E                     	;# 
   261     000F                     	;# 
   262     0010                     	;# 
   263     0011                     	;# 
   264     0012                     	;# 
   265     0013                     	;# 
   266     0014                     	;# 
   267     0015                     	;# 
   268     0015                     	;# 
   269     0016                     	;# 
   270     0017                     	;# 
   271     0018                     	;# 
   272     0019                     	;# 
   273     001A                     	;# 
   274     001B                     	;# 
   275     001B                     	;# 
   276     001C                     	;# 
   277     001D                     	;# 
   278     001E                     	;# 
   279     001F                     	;# 
   280     0081                     	;# 
   281     0085                     	;# 
   282     0086                     	;# 
   283     0087                     	;# 
   284     0088                     	;# 
   285     0089                     	;# 
   286     008C                     	;# 
   287     008D                     	;# 
   288     008E                     	;# 
   289     008F                     	;# 
   290     0090                     	;# 
   291     0091                     	;# 
   292     0092                     	;# 
   293     0093                     	;# 
   294     0093                     	;# 
   295     0093                     	;# 
   296     0094                     	;# 
   297     0095                     	;# 
   298     0096                     	;# 
   299     0097                     	;# 
   300     0098                     	;# 
   301     0099                     	;# 
   302     009A                     	;# 
   303     009B                     	;# 
   304     009C                     	;# 
   305     009D                     	;# 
   306     009E                     	;# 
   307     009F                     	;# 
   308     0105                     	;# 
   309     0107                     	;# 
   310     0108                     	;# 
   311     0109                     	;# 
   312     010C                     	;# 
   313     010C                     	;# 
   314     010D                     	;# 
   315     010E                     	;# 
   316     010F                     	;# 
   317     0185                     	;# 
   318     0187                     	;# 
   319     0188                     	;# 
   320     0189                     	;# 
   321     018C                     	;# 
   322     018D                     	;# 
   323     0000                     	;# 
   324     0001                     	;# 
   325     0002                     	;# 
   326     0003                     	;# 
   327     0004                     	;# 
   328     0005                     	;# 
   329     0006                     	;# 
   330     0007                     	;# 
   331     0008                     	;# 
   332     0009                     	;# 
   333     000A                     	;# 
   334     000B                     	;# 
   335     000C                     	;# 
   336     000D                     	;# 
   337     000E                     	;# 
   338     000E                     	;# 
   339     000F                     	;# 
   340     0010                     	;# 
   341     0011                     	;# 
   342     0012                     	;# 
   343     0013                     	;# 
   344     0014                     	;# 
   345     0015                     	;# 
   346     0015                     	;# 
   347     0016                     	;# 
   348     0017                     	;# 
   349     0018                     	;# 
   350     0019                     	;# 
   351     001A                     	;# 
   352     001B                     	;# 
   353     001B                     	;# 
   354     001C                     	;# 
   355     001D                     	;# 
   356     001E                     	;# 
   357     001F                     	;# 
   358     0081                     	;# 
   359     0085                     	;# 
   360     0086                     	;# 
   361     0087                     	;# 
   362     0088                     	;# 
   363     0089                     	;# 
   364     008C                     	;# 
   365     008D                     	;# 
   366     008E                     	;# 
   367     008F                     	;# 
   368     0090                     	;# 
   369     0091                     	;# 
   370     0092                     	;# 
   371     0093                     	;# 
   372     0093                     	;# 
   373     0093                     	;# 
   374     0094                     	;# 
   375     0095                     	;# 
   376     0096                     	;# 
   377     0097                     	;# 
   378     0098                     	;# 
   379     0099                     	;# 
   380     009A                     	;# 
   381     009B                     	;# 
   382     009C                     	;# 
   383     009D                     	;# 
   384     009E                     	;# 
   385     009F                     	;# 
   386     0105                     	;# 
   387     0107                     	;# 
   388     0108                     	;# 
   389     0109                     	;# 
   390     010C                     	;# 
   391     010C                     	;# 
   392     010D                     	;# 
   393     010E                     	;# 
   394     010F                     	;# 
   395     0185                     	;# 
   396     0187                     	;# 
   397     0188                     	;# 
   398     0189                     	;# 
   399     018C                     	;# 
   400     018D                     	;# 
   401     0000                     	;# 
   402     0001                     	;# 
   403     0002                     	;# 
   404     0003                     	;# 
   405     0004                     	;# 
   406     0005                     	;# 
   407     0006                     	;# 
   408     0007                     	;# 
   409     0008                     	;# 
   410     0009                     	;# 
   411     000A                     	;# 
   412     000B                     	;# 
   413     000C                     	;# 
   414     000D                     	;# 
   415     000E                     	;# 
   416     000E                     	;# 
   417     000F                     	;# 
   418     0010                     	;# 
   419     0011                     	;# 
   420     0012                     	;# 
   421     0013                     	;# 
   422     0014                     	;# 
   423     0015                     	;# 
   424     0015                     	;# 
   425     0016                     	;# 
   426     0017                     	;# 
   427     0018                     	;# 
   428     0019                     	;# 
   429     001A                     	;# 
   430     001B                     	;# 
   431     001B                     	;# 
   432     001C                     	;# 
   433     001D                     	;# 
   434     001E                     	;# 
   435     001F                     	;# 
   436     0081                     	;# 
   437     0085                     	;# 
   438     0086                     	;# 
   439     0087                     	;# 
   440     0088                     	;# 
   441     0089                     	;# 
   442     008C                     	;# 
   443     008D                     	;# 
   444     008E                     	;# 
   445     008F                     	;# 
   446     0090                     	;# 
   447     0091                     	;# 
   448     0092                     	;# 
   449     0093                     	;# 
   450     0093                     	;# 
   451     0093                     	;# 
   452     0094                     	;# 
   453     0095                     	;# 
   454     0096                     	;# 
   455     0097                     	;# 
   456     0098                     	;# 
   457     0099                     	;# 
   458     009A                     	;# 
   459     009B                     	;# 
   460     009C                     	;# 
   461     009D                     	;# 
   462     009E                     	;# 
   463     009F                     	;# 
   464     0105                     	;# 
   465     0107                     	;# 
   466     0108                     	;# 
   467     0109                     	;# 
   468     010C                     	;# 
   469     010C                     	;# 
   470     010D                     	;# 
   471     010E                     	;# 
   472     010F                     	;# 
   473     0185                     	;# 
   474     0187                     	;# 
   475     0188                     	;# 
   476     0189                     	;# 
   477     018C                     	;# 
   478     018D                     	;# 
   479                           
   480                           	psect	strings
   481     0800                     __pstrings:
   482     0800                     stringtab:
   483     0800                     __stringtab:
   484     0800                     stringcode:	
   485                           ;	String table - string pointers are 1 byte each
   486                           
   487     0800                     stringdir:
   488     0800  3008               	movlw	high stringdir
   489     0801  008A               	movwf	10
   490     0802  0804               	movf	4,w
   491     0803  0A84               	incf	4,f
   492     0804  0782               	addwf	2,f
   493     0805                     __stringbase:
   494     0805  3400               	retlw	0
   495     0806                     __end_of__stringtab:
   496     0806                     _dpowers:
   497     0806  3401               	retlw	1
   498     0807  3400               	retlw	0
   499     0808  340A               	retlw	10
   500     0809  3400               	retlw	0
   501     080A  3464               	retlw	100
   502     080B  3400               	retlw	0
   503     080C  34E8               	retlw	232
   504     080D  3403               	retlw	3
   505     080E  3410               	retlw	16
   506     080F  3427               	retlw	39
   507     0810                     __end_of_dpowers:
   508     0008                     _PORTD	set	8
   509     0007                     _PORTC	set	7
   510     0006                     _PORTB	set	6
   511     0005                     _PORTA	set	5
   512     000B                     _INTCONbits	set	11
   513     0013                     _SSPBUF	set	19
   514     0014                     _SSPCON	set	20
   515     0032                     _RB2	set	50
   516     0031                     _RB1	set	49
   517     0030                     _RB0	set	48
   518     0058                     _RBIF	set	88
   519     0063                     _SSPIF	set	99
   520     005E                     _PEIE	set	94
   521     005F                     _GIE	set	95
   522     0039                     _RC1	set	57
   523     0038                     _RC0	set	56
   524     0047                     _RD7	set	71
   525     0046                     _RD6	set	70
   526     0045                     _RD5	set	69
   527     0044                     _RD4	set	68
   528     0043                     _RD3	set	67
   529     0042                     _RD2	set	66
   530     0041                     _RD1	set	65
   531     0040                     _RD0	set	64
   532     0095                     _WPUBbits	set	149
   533     0081                     _OPTION_REGbits	set	129
   534     0096                     _IOCBbits	set	150
   535     0088                     _TRISD	set	136
   536     0087                     _TRISC	set	135
   537     0086                     _TRISB	set	134
   538     0085                     _TRISA	set	133
   539     0091                     _SSPCON2bits	set	145
   540     0087                     _TRISCbits	set	135
   541     0094                     _SSPSTAT	set	148
   542     0093                     _SSPADD	set	147
   543     0091                     _SSPCON2	set	145
   544     008F                     _OSCCONbits	set	143
   545     0463                     _SSPIE	set	1123
   546     043C                     _TRISC4	set	1084
   547     043B                     _TRISC3	set	1083
   548     0189                     _ANSELH	set	393
   549     0188                     _ANSEL	set	392
   550     0810                     STR_2:
   551     0810  3425               	retlw	37	;'%'
   552     0811  342E               	retlw	46	;'.'
   553     0812  3432               	retlw	50	;'2'
   554     0813  3464               	retlw	100	;'d'
   555     0814  342F               	retlw	47	;'/'
   556     0815  3425               	retlw	37	;'%'
   557     0816  342E               	retlw	46	;'.'
   558     0817  3432               	retlw	50	;'2'
   559     0818  3464               	retlw	100	;'d'
   560     0819  342F               	retlw	47	;'/'
   561     081A  3432               	retlw	50	;'2'
   562     081B  3430               	retlw	48	;'0'
   563     081C  3425               	retlw	37	;'%'
   564     081D  342E               	retlw	46	;'.'
   565     081E  3432               	retlw	50	;'2'
   566     081F  3464               	retlw	100	;'d'
   567     0820  3400               	retlw	0
   568     0821                     STR_4:
   569     0821  3425               	retlw	37	;'%'
   570     0822  342E               	retlw	46	;'.'
   571     0823  3432               	retlw	50	;'2'
   572     0824  3464               	retlw	100	;'d'
   573     0825  343A               	retlw	58	;':'
   574     0826  3425               	retlw	37	;'%'
   575     0827  342E               	retlw	46	;'.'
   576     0828  3432               	retlw	50	;'2'
   577     0829  3464               	retlw	100	;'d'
   578     082A  343A               	retlw	58	;':'
   579     082B  3425               	retlw	37	;'%'
   580     082C  342E               	retlw	46	;'.'
   581     082D  3432               	retlw	50	;'2'
   582     082E  3464               	retlw	100	;'d'
   583     082F  3400               	retlw	0
   584     0830                     STR_1:
   585     0830  3453               	retlw	83	;'S'
   586     0831  3431               	retlw	49	;'1'
   587     0832  343A               	retlw	58	;':'
   588     0833  3400               	retlw	0
   589     081C                     
   590                           	psect	cinit
   591     0015                     start_initialization:	
   592                           ; #config settings
   593                           
   594     0015                     __initialization:
   595                           
   596                           ; Clear objects allocated to BANK0
   597     0015  1383               	bcf	3,7	;select IRP bank0
   598     0016  304D               	movlw	low __pbssBANK0
   599     0017  0084               	movwf	4
   600     0018  305B               	movlw	low (__pbssBANK0+14)
   601     0019  120A  158A  242B  120A  118A  	fcall	clear_ram0
   602                           
   603                           ; Clear objects allocated to BANK1
   604     001E  30A0               	movlw	low __pbssBANK1
   605     001F  0084               	movwf	4
   606     0020  30B0               	movlw	low (__pbssBANK1+16)
   607     0021  120A  158A  242B  120A  118A  	fcall	clear_ram0
   608     0026                     end_of_initialization:	
   609                           ;End of C runtime variable initialization code
   610                           
   611     0026                     __end_of__initialization:
   612     0026  0183               	clrf	3
   613     0027  120A  118A  282A   	ljmp	_main	;jump to C main() function
   614                           
   615                           	psect	bssBANK0
   616     004D                     __pbssBANK0:
   617     004D                     _dateRTC:
   618     004D                     	ds	4
   619     0051                     _timeRTC:
   620     0051                     	ds	3
   621     0054                     _hours:
   622     0054                     	ds	1
   623     0055                     _minutes:
   624     0055                     	ds	1
   625     0056                     _seconds:
   626     0056                     	ds	1
   627     0057                     _mode:
   628     0057                     	ds	1
   629     0058                     _counter:
   630     0058                     	ds	1
   631     0059                     _s1ADC:
   632     0059                     	ds	1
   633     005A                     _a:
   634     005A                     	ds	1
   635                           
   636                           	psect	bssBANK1
   637     00A0                     __pbssBANK1:
   638     00A0                     _lineLCD:
   639     00A0                     	ds	16
   640                           
   641                           	psect	clrtext
   642     0C2B                     clear_ram0:	
   643                           ;	Called with FSR containing the base address, and
   644                           ;	W with the last address+1
   645                           
   646     0C2B  0064               	clrwdt	;clear the watchdog before getting into this loop
   647     0C2C                     clrloop0:
   648     0C2C  0180               	clrf	0	;clear RAM location pointed to by FSR
   649     0C2D  0A84               	incf	4,f	;increment pointer
   650     0C2E  0604               	xorwf	4,w	;XOR with final address
   651     0C2F  1903               	btfsc	3,2	;have we reached the end yet?
   652     0C30  3400               	retlw	0	;all done for this memory range, return
   653     0C31  0604               	xorwf	4,w	;XOR again to restore value
   654     0C32  2C2C               	goto	clrloop0	;do the next byte
   655                           
   656                           	psect	cstackBANK1
   657     00B0                     __pcstackBANK1:
   658     00B0                     ??_main:
   659                           
   660                           ; 1 bytes @ 0x0
   661     00B0                     	ds	6
   662                           
   663                           	psect	cstackCOMMON
   664     0070                     __pcstackCOMMON:
   665     0070                     ?_isdigit:
   666     0070                     ?_setup:	
   667                           ; 1 bit 
   668                           
   669     0070                     ?_BCD_to_Decimal:	
   670                           ; 1 bytes @ 0x0
   671                           
   672     0070                     ?_Decimal_to_BCD:	
   673                           ; 1 bytes @ 0x0
   674                           
   675     0070                     ?_Lcd_Port:	
   676                           ; 1 bytes @ 0x0
   677                           
   678     0070                     ?_Lcd_Cmd:	
   679                           ; 1 bytes @ 0x0
   680                           
   681     0070                     ?_Lcd_Clear:	
   682                           ; 1 bytes @ 0x0
   683                           
   684     0070                     ?_Lcd_Init:	
   685                           ; 1 bytes @ 0x0
   686                           
   687     0070                     ?_Lcd_Write_Char:	
   688                           ; 1 bytes @ 0x0
   689                           
   690     0070                     ?_Lcd_Write_String:	
   691                           ; 1 bytes @ 0x0
   692                           
   693     0070                     ?_I2C_Master_Wait:	
   694                           ; 1 bytes @ 0x0
   695                           
   696     0070                     ?_I2C_Master_Start:	
   697                           ; 1 bytes @ 0x0
   698                           
   699     0070                     ?_I2C_Master_RepeatedStart:	
   700                           ; 1 bytes @ 0x0
   701                           
   702     0070                     ?_I2C_Master_Stop:	
   703                           ; 1 bytes @ 0x0
   704                           
   705     0070                     ?_isr:	
   706                           ; 1 bytes @ 0x0
   707                           
   708     0070                     ?_main:	
   709                           ; 1 bytes @ 0x0
   710                           
   711     0070                     ?i1_I2C_Master_Wait:	
   712                           ; 1 bytes @ 0x0
   713                           
   714     0070                     ??i1_I2C_Master_Wait:	
   715                           ; 1 bytes @ 0x0
   716                           
   717     0070                     ?i1_I2C_Master_Start:	
   718                           ; 1 bytes @ 0x0
   719                           
   720     0070                     ??i1_I2C_Master_Start:	
   721                           ; 1 bytes @ 0x0
   722                           
   723     0070                     ?i1_I2C_Master_Stop:	
   724                           ; 1 bytes @ 0x0
   725                           
   726     0070                     ??i1_I2C_Master_Stop:	
   727                           ; 1 bytes @ 0x0
   728                           
   729     0070                     ?i1_Decimal_to_BCD:	
   730                           ; 1 bytes @ 0x0
   731                           
   732     0070                     ?i1___awdiv:	
   733                           ; 1 bytes @ 0x0
   734                           
   735     0070                     ?i1___awmod:	
   736                           ; 2 bytes @ 0x0
   737                           
   738     0070                     i1___awdiv@divisor:	
   739                           ; 2 bytes @ 0x0
   740                           
   741     0070                     i1___awmod@divisor:	
   742                           ; 2 bytes @ 0x0
   743                           
   744                           
   745                           ; 2 bytes @ 0x0
   746     0070                     	ds	2
   747     0072                     i1___awdiv@dividend:
   748     0072                     i1___awmod@dividend:	
   749                           ; 2 bytes @ 0x2
   750                           
   751                           
   752                           ; 2 bytes @ 0x2
   753     0072                     	ds	2
   754     0074                     ??i1___awdiv:
   755     0074                     ??i1___awmod:	
   756                           ; 1 bytes @ 0x4
   757                           
   758     0074                     i1___awdiv@counter:	
   759                           ; 1 bytes @ 0x4
   760                           
   761     0074                     i1___awmod@counter:	
   762                           ; 1 bytes @ 0x4
   763                           
   764                           
   765                           ; 1 bytes @ 0x4
   766     0074                     	ds	1
   767     0075                     i1___awdiv@sign:
   768     0075                     i1___awmod@sign:	
   769                           ; 1 bytes @ 0x5
   770                           
   771                           
   772                           ; 1 bytes @ 0x5
   773     0075                     	ds	1
   774     0076                     i1___awdiv@quotient:
   775                           
   776                           ; 2 bytes @ 0x6
   777     0076                     	ds	2
   778     0078                     ??i1_Decimal_to_BCD:
   779                           
   780                           ; 1 bytes @ 0x8
   781     0078                     	ds	2
   782     007A                     i1Decimal_to_BCD@tens_digit:
   783                           
   784                           ; 1 bytes @ 0xA
   785     007A                     	ds	1
   786     007B                     i1Decimal_to_BCD@ones_digit:
   787                           
   788                           ; 1 bytes @ 0xB
   789     007B                     	ds	1
   790     007C                     i1Decimal_to_BCD@bcd_value:
   791                           
   792                           ; 1 bytes @ 0xC
   793     007C                     	ds	1
   794     007D                     i1Decimal_to_BCD@decimal_value:
   795                           
   796                           ; 1 bytes @ 0xD
   797     007D                     	ds	1
   798     007E                     ??i1_I2C_Master_Write:
   799                           
   800                           	psect	cstackBANK0
   801     0020                     __pcstackBANK0:	
   802                           ; 1 bytes @ 0xE
   803                           
   804     0020                     ?i1_I2C_Master_Write:
   805     0020                     i1I2C_Master_Write@d:	
   806                           ; 1 bytes @ 0x0
   807                           
   808                           
   809                           ; 2 bytes @ 0x0
   810     0020                     	ds	2
   811     0022                     ?i1_settingRTC:
   812     0022                     i1settingRTC@min:	
   813                           ; 1 bytes @ 0x2
   814                           
   815                           
   816                           ; 1 bytes @ 0x2
   817     0022                     	ds	1
   818     0023                     i1settingRTC@hour:
   819                           
   820                           ; 1 bytes @ 0x3
   821     0023                     	ds	1
   822     0024                     i1settingRTC@day:
   823                           
   824                           ; 1 bytes @ 0x4
   825     0024                     	ds	1
   826     0025                     i1settingRTC@mon:
   827                           
   828                           ; 1 bytes @ 0x5
   829     0025                     	ds	1
   830     0026                     i1settingRTC@year:
   831                           
   832                           ; 1 bytes @ 0x6
   833     0026                     	ds	1
   834     0027                     ??i1_settingRTC:
   835                           
   836                           ; 1 bytes @ 0x7
   837     0027                     	ds	2
   838     0029                     i1settingRTC@sec:
   839                           
   840                           ; 1 bytes @ 0x9
   841     0029                     	ds	1
   842     002A                     ??_isr:
   843                           
   844                           ; 1 bytes @ 0xA
   845     002A                     	ds	6
   846     0030                     ??_isdigit:
   847     0030                     ??_Lcd_Port:	
   848                           ; 1 bytes @ 0x10
   849                           
   850     0030                     ?_configOsc:	
   851                           ; 1 bytes @ 0x10
   852                           
   853     0030                     ??_I2C_Master_Wait:	
   854                           ; 1 bytes @ 0x10
   855                           
   856     0030                     ??_I2C_Master_Start:	
   857                           ; 1 bytes @ 0x10
   858                           
   859     0030                     ??_I2C_Master_RepeatedStart:	
   860                           ; 1 bytes @ 0x10
   861                           
   862     0030                     ??_I2C_Master_Stop:	
   863                           ; 1 bytes @ 0x10
   864                           
   865     0030                     ?___bmul:	
   866                           ; 1 bytes @ 0x10
   867                           
   868     0030                     ?_I2C_Master_Read:	
   869                           ; 1 bytes @ 0x10
   870                           
   871     0030                     ?___awdiv:	
   872                           ; 2 bytes @ 0x10
   873                           
   874     0030                     ?___awmod:	
   875                           ; 2 bytes @ 0x10
   876                           
   877     0030                     ?___lwdiv:	
   878                           ; 2 bytes @ 0x10
   879                           
   880     0030                     ?___lldiv:	
   881                           ; 2 bytes @ 0x10
   882                           
   883     0030                     Lcd_Port@a:	
   884                           ; 4 bytes @ 0x10
   885                           
   886     0030                     ___bmul@multiplicand:	
   887                           ; 1 bytes @ 0x10
   888                           
   889     0030                     _isdigit$878:	
   890                           ; 1 bytes @ 0x10
   891                           
   892     0030                     configOsc@frec:	
   893                           ; 1 bytes @ 0x10
   894                           
   895     0030                     I2C_Master_Read@a:	
   896                           ; 2 bytes @ 0x10
   897                           
   898     0030                     ___awdiv@divisor:	
   899                           ; 2 bytes @ 0x10
   900                           
   901     0030                     ___awmod@divisor:	
   902                           ; 2 bytes @ 0x10
   903                           
   904     0030                     ___lwdiv@divisor:	
   905                           ; 2 bytes @ 0x10
   906                           
   907     0030                     ___lldiv@divisor:	
   908                           ; 2 bytes @ 0x10
   909                           
   910                           
   911                           ; 4 bytes @ 0x10
   912     0030                     	ds	1
   913     0031                     ??_Lcd_Cmd:
   914     0031                     ??_Lcd_Write_Char:	
   915                           ; 1 bytes @ 0x11
   916                           
   917     0031                     ??___bmul:	
   918                           ; 1 bytes @ 0x11
   919                           
   920     0031                     ___bmul@product:	
   921                           ; 1 bytes @ 0x11
   922                           
   923     0031                     isdigit@c:	
   924                           ; 1 bytes @ 0x11
   925                           
   926                           
   927                           ; 1 bytes @ 0x11
   928     0031                     	ds	1
   929     0032                     ??_configOsc:
   930     0032                     ??_I2C_Master_Read:	
   931                           ; 1 bytes @ 0x12
   932                           
   933     0032                     Lcd_Write_Char@a:	
   934                           ; 1 bytes @ 0x12
   935                           
   936     0032                     ___bmul@multiplier:	
   937                           ; 1 bytes @ 0x12
   938                           
   939     0032                     ___awdiv@dividend:	
   940                           ; 1 bytes @ 0x12
   941                           
   942     0032                     ___awmod@dividend:	
   943                           ; 2 bytes @ 0x12
   944                           
   945     0032                     ___lwdiv@dividend:	
   946                           ; 2 bytes @ 0x12
   947                           
   948                           
   949                           ; 2 bytes @ 0x12
   950     0032                     	ds	1
   951     0033                     ??_BCD_to_Decimal:
   952     0033                     ??_Lcd_Write_String:	
   953                           ; 1 bytes @ 0x13
   954                           
   955     0033                     Lcd_Cmd@a:	
   956                           ; 1 bytes @ 0x13
   957                           
   958                           
   959                           ; 1 bytes @ 0x13
   960     0033                     	ds	1
   961     0034                     ??_Lcd_Clear:
   962     0034                     ?_Lcd_Set_Cursor:	
   963                           ; 1 bytes @ 0x14
   964                           
   965     0034                     ??_Lcd_Init:	
   966                           ; 1 bytes @ 0x14
   967                           
   968     0034                     ??___awdiv:	
   969                           ; 1 bytes @ 0x14
   970                           
   971     0034                     ??___awmod:	
   972                           ; 1 bytes @ 0x14
   973                           
   974     0034                     ??___lwdiv:	
   975                           ; 1 bytes @ 0x14
   976                           
   977     0034                     Lcd_Set_Cursor@b:	
   978                           ; 1 bytes @ 0x14
   979                           
   980     0034                     BCD_to_Decimal@tens_digit:	
   981                           ; 1 bytes @ 0x14
   982                           
   983     0034                     ___awdiv@counter:	
   984                           ; 1 bytes @ 0x14
   985                           
   986     0034                     ___awmod@counter:	
   987                           ; 1 bytes @ 0x14
   988                           
   989     0034                     Lcd_Write_String@i:	
   990                           ; 1 bytes @ 0x14
   991                           
   992     0034                     I2C_Master_Read@temp:	
   993                           ; 2 bytes @ 0x14
   994                           
   995     0034                     ___lwdiv@quotient:	
   996                           ; 2 bytes @ 0x14
   997                           
   998     0034                     ___lldiv@dividend:	
   999                           ; 2 bytes @ 0x14
  1000                           
  1001                           
  1002                           ; 4 bytes @ 0x14
  1003     0034                     	ds	1
  1004     0035                     ??_Lcd_Set_Cursor:
  1005     0035                     Lcd_Set_Cursor@a:	
  1006                           ; 1 bytes @ 0x15
  1007                           
  1008     0035                     BCD_to_Decimal@ones_digit:	
  1009                           ; 1 bytes @ 0x15
  1010                           
  1011     0035                     ___awdiv@sign:	
  1012                           ; 1 bytes @ 0x15
  1013                           
  1014     0035                     ___awmod@sign:	
  1015                           ; 1 bytes @ 0x15
  1016                           
  1017                           
  1018                           ; 1 bytes @ 0x15
  1019     0035                     	ds	1
  1020     0036                     Lcd_Set_Cursor@temp:
  1021     0036                     Lcd_Write_String@a:	
  1022                           ; 1 bytes @ 0x16
  1023                           
  1024     0036                     BCD_to_Decimal@decimal_value:	
  1025                           ; 1 bytes @ 0x16
  1026                           
  1027     0036                     ___lwdiv@counter:	
  1028                           ; 1 bytes @ 0x16
  1029                           
  1030     0036                     ___awdiv@quotient:	
  1031                           ; 1 bytes @ 0x16
  1032                           
  1033                           
  1034                           ; 2 bytes @ 0x16
  1035     0036                     	ds	1
  1036     0037                     ?___lwmod:
  1037     0037                     BCD_to_Decimal@bcd_value:	
  1038                           ; 2 bytes @ 0x17
  1039                           
  1040     0037                     ___lwmod@divisor:	
  1041                           ; 1 bytes @ 0x17
  1042                           
  1043                           
  1044                           ; 2 bytes @ 0x17
  1045     0037                     	ds	1
  1046     0038                     ??_Decimal_to_BCD:
  1047     0038                     ??___lldiv:	
  1048                           ; 1 bytes @ 0x18
  1049                           
  1050                           
  1051                           ; 1 bytes @ 0x18
  1052     0038                     	ds	1
  1053     0039                     ___lwmod@dividend:
  1054     0039                     ___lldiv@quotient:	
  1055                           ; 2 bytes @ 0x19
  1056                           
  1057                           
  1058                           ; 4 bytes @ 0x19
  1059     0039                     	ds	1
  1060     003A                     Decimal_to_BCD@tens_digit:
  1061                           
  1062                           ; 1 bytes @ 0x1A
  1063     003A                     	ds	1
  1064     003B                     ??___lwmod:
  1065     003B                     Decimal_to_BCD@ones_digit:	
  1066                           ; 1 bytes @ 0x1B
  1067                           
  1068     003B                     ___lwmod@counter:	
  1069                           ; 1 bytes @ 0x1B
  1070                           
  1071                           
  1072                           ; 1 bytes @ 0x1B
  1073     003B                     	ds	1
  1074     003C                     ?_sprintf:
  1075     003C                     Decimal_to_BCD@bcd_value:	
  1076                           ; 2 bytes @ 0x1C
  1077                           
  1078     003C                     sprintf@f:	
  1079                           ; 1 bytes @ 0x1C
  1080                           
  1081                           
  1082                           ; 1 bytes @ 0x1C
  1083     003C                     	ds	1
  1084     003D                     Decimal_to_BCD@decimal_value:
  1085     003D                     ___lldiv@counter:	
  1086                           ; 1 bytes @ 0x1D
  1087                           
  1088                           
  1089                           ; 1 bytes @ 0x1D
  1090     003D                     	ds	1
  1091     003E                     ?_I2C_Master_Init:
  1092     003E                     ?_I2C_Master_Write:	
  1093                           ; 1 bytes @ 0x1E
  1094                           
  1095     003E                     I2C_Master_Write@d:	
  1096                           ; 1 bytes @ 0x1E
  1097                           
  1098     003E                     I2C_Master_Init@c:	
  1099                           ; 2 bytes @ 0x1E
  1100                           
  1101                           
  1102                           ; 4 bytes @ 0x1E
  1103     003E                     	ds	2
  1104     0040                     ?_settingRTC:
  1105     0040                     ??_I2C_Master_Write:	
  1106                           ; 1 bytes @ 0x20
  1107                           
  1108     0040                     settingRTC@min:	
  1109                           ; 1 bytes @ 0x20
  1110                           
  1111                           
  1112                           ; 1 bytes @ 0x20
  1113     0040                     	ds	1
  1114     0041                     settingRTC@hour:
  1115                           
  1116                           ; 1 bytes @ 0x21
  1117     0041                     	ds	1
  1118     0042                     ??_I2C_Master_Init:
  1119     0042                     settingRTC@day:	
  1120                           ; 1 bytes @ 0x22
  1121                           
  1122                           
  1123                           ; 1 bytes @ 0x22
  1124     0042                     	ds	1
  1125     0043                     ??_sprintf:
  1126     0043                     settingRTC@mon:	
  1127                           ; 1 bytes @ 0x23
  1128                           
  1129                           
  1130                           ; 1 bytes @ 0x23
  1131     0043                     	ds	1
  1132     0044                     settingRTC@year:
  1133                           
  1134                           ; 1 bytes @ 0x24
  1135     0044                     	ds	1
  1136     0045                     ??_settingRTC:
  1137                           
  1138                           ; 1 bytes @ 0x25
  1139     0045                     	ds	1
  1140     0046                     ??_setup:
  1141     0046                     sprintf@ap:	
  1142                           ; 1 bytes @ 0x26
  1143                           
  1144                           
  1145                           ; 1 bytes @ 0x26
  1146     0046                     	ds	1
  1147     0047                     settingRTC@sec:
  1148     0047                     sprintf@flag:	
  1149                           ; 1 bytes @ 0x27
  1150                           
  1151                           
  1152                           ; 1 bytes @ 0x27
  1153     0047                     	ds	1
  1154     0048                     sprintf@val:
  1155                           
  1156                           ; 2 bytes @ 0x28
  1157     0048                     	ds	2
  1158     004A                     sprintf@sp:
  1159                           
  1160                           ; 1 bytes @ 0x2A
  1161     004A                     	ds	1
  1162     004B                     sprintf@prec:
  1163                           
  1164                           ; 1 bytes @ 0x2B
  1165     004B                     	ds	1
  1166     004C                     sprintf@c:
  1167                           
  1168                           ; 1 bytes @ 0x2C
  1169     004C                     	ds	1
  1170                           
  1171                           	psect	maintext
  1172     002A                     __pmaintext:	
  1173 ;;
  1174 ;;Main: autosize = 0, tempsize = 6, incstack = 0, save=0
  1175 ;;
  1176 ;; *************** function _main *****************
  1177 ;; Defined at:
  1178 ;;		line 150 in file "E:/Universidad/Semestre2_2023/Digital-2/Lab4/Lab4_Master.X/Lab4_Master.c"
  1179 ;; Parameters:    Size  Location     Type
  1180 ;;		None
  1181 ;; Auto vars:     Size  Location     Type
  1182 ;;		None
  1183 ;; Return value:  Size  Location     Type
  1184 ;;                  1    wreg      void 
  1185 ;; Registers used:
  1186 ;;		wreg, fsr0l, fsr0h, status,2, status,0, btemp+1, pclath, cstack
  1187 ;; Tracked objects:
  1188 ;;		On entry : B00/0
  1189 ;;		On exit  : 0/0
  1190 ;;		Unchanged: 0/0
  1191 ;; Data sizes:     COMMON   BANK0   BANK1   BANK3   BANK2
  1192 ;;      Params:         0       0       0       0       0
  1193 ;;      Locals:         0       0       0       0       0
  1194 ;;      Temps:          0       0       6       0       0
  1195 ;;      Totals:         0       0       6       0       0
  1196 ;;Total ram usage:        6 bytes
  1197 ;; Hardware stack levels required when called: 8
  1198 ;; This function calls:
  1199 ;;		_BCD_to_Decimal
  1200 ;;		_I2C_Master_Read
  1201 ;;		_I2C_Master_RepeatedStart
  1202 ;;		_I2C_Master_Start
  1203 ;;		_I2C_Master_Stop
  1204 ;;		_I2C_Master_Write
  1205 ;;		_Lcd_Clear
  1206 ;;		_Lcd_Set_Cursor
  1207 ;;		_Lcd_Write_String
  1208 ;;		_settingRTC
  1209 ;;		_setup
  1210 ;;		_sprintf
  1211 ;; This function is called by:
  1212 ;;		Startup code after reset
  1213 ;; This function uses a non-reentrant model
  1214 ;;
  1215                           
  1216     002A                     _main:	
  1217                           ;psect for function _main
  1218                           
  1219     002A                     l2577:	
  1220                           ;incstack = 0
  1221                           ; Regs used in _main: [wreg-fsr0h+status,2+status,0+btemp+1+pclath+cstack]
  1222                           
  1223                           
  1224                           ;E:/Universidad/Semestre2_2023/Digital-2/Lab4/Lab4_Master.X/Lab4_Master.c: 151:     setu
      +                          p();
  1225     002A  120A  118A  27BE  120A  118A  	fcall	_setup
  1226                           
  1227                           ;E:/Universidad/Semestre2_2023/Digital-2/Lab4/Lab4_Master.X/Lab4_Master.c: 152:     sett
      +                          ingRTC(12,12,12,12,12,23);
  1228     002F  300C               	movlw	12
  1229     0030  1283               	bcf	3,5	;RP0=0, select bank0
  1230     0031  1303               	bcf	3,6	;RP1=0, select bank0
  1231     0032  00C0               	movwf	settingRTC@min
  1232     0033  300C               	movlw	12
  1233     0034  00C1               	movwf	settingRTC@hour
  1234     0035  300C               	movlw	12
  1235     0036  00C2               	movwf	settingRTC@day
  1236     0037  300C               	movlw	12
  1237     0038  00C3               	movwf	settingRTC@mon
  1238     0039  3017               	movlw	23
  1239     003A  00C4               	movwf	settingRTC@year
  1240     003B  300C               	movlw	12
  1241     003C  120A  118A  24B6  120A  118A  	fcall	_settingRTC
  1242     0041                     l2579:
  1243                           
  1244                           ;E:/Universidad/Semestre2_2023/Digital-2/Lab4/Lab4_Master.X/Lab4_Master.c: 161:         
      +                          I2C_Master_Start();
  1245     0041  120A  158A  244E  120A  118A  	fcall	_I2C_Master_Start
  1246     0046                     l2581:
  1247                           
  1248                           ;E:/Universidad/Semestre2_2023/Digital-2/Lab4/Lab4_Master.X/Lab4_Master.c: 162:         
      +                          I2C_Master_Write(0b11010000);
  1249     0046  30D0               	movlw	208
  1250     0047  1283               	bcf	3,5	;RP0=0, select bank0
  1251     0048  1303               	bcf	3,6	;RP1=0, select bank0
  1252     0049  00BE               	movwf	I2C_Master_Write@d
  1253     004A  3000               	movlw	0
  1254     004B  00BF               	movwf	I2C_Master_Write@d+1
  1255     004C  120A  158A  246A  120A  118A  	fcall	_I2C_Master_Write
  1256     0051                     l2583:
  1257                           
  1258                           ;E:/Universidad/Semestre2_2023/Digital-2/Lab4/Lab4_Master.X/Lab4_Master.c: 163:         
      +                          I2C_Master_Write(0x00);
  1259     0051  3000               	movlw	0
  1260     0052  1283               	bcf	3,5	;RP0=0, select bank0
  1261     0053  1303               	bcf	3,6	;RP1=0, select bank0
  1262     0054  00BE               	movwf	I2C_Master_Write@d
  1263     0055  00BF               	movwf	I2C_Master_Write@d+1
  1264     0056  120A  158A  246A  120A  118A  	fcall	_I2C_Master_Write
  1265     005B                     l2585:
  1266                           
  1267                           ;E:/Universidad/Semestre2_2023/Digital-2/Lab4/Lab4_Master.X/Lab4_Master.c: 165:         
      +                          I2C_Master_RepeatedStart();
  1268     005B  120A  158A  2445  120A  118A  	fcall	_I2C_Master_RepeatedStart
  1269     0060                     l2587:
  1270                           
  1271                           ;E:/Universidad/Semestre2_2023/Digital-2/Lab4/Lab4_Master.X/Lab4_Master.c: 167:         
      +                          I2C_Master_Write(0b11010000 | 0x01);
  1272     0060  30D1               	movlw	209
  1273     0061  1283               	bcf	3,5	;RP0=0, select bank0
  1274     0062  1303               	bcf	3,6	;RP1=0, select bank0
  1275     0063  00BE               	movwf	I2C_Master_Write@d
  1276     0064  3000               	movlw	0
  1277     0065  00BF               	movwf	I2C_Master_Write@d+1
  1278     0066  120A  158A  246A  120A  118A  	fcall	_I2C_Master_Write
  1279     006B                     l2589:
  1280                           
  1281                           ;E:/Universidad/Semestre2_2023/Digital-2/Lab4/Lab4_Master.X/Lab4_Master.c: 169:         
      +                          timeRTC[2] = BCD_to_Decimal(I2C_Master_Read(1));
  1282     006B  3001               	movlw	1
  1283     006C  1283               	bcf	3,5	;RP0=0, select bank0
  1284     006D  1303               	bcf	3,6	;RP1=0, select bank0
  1285     006E  00B0               	movwf	I2C_Master_Read@a
  1286     006F  3000               	movlw	0
  1287     0070  00B1               	movwf	I2C_Master_Read@a+1
  1288     0071  120A  158A  2560  120A  118A  	fcall	_I2C_Master_Read
  1289     0076  1283               	bcf	3,5	;RP0=0, select bank0
  1290     0077  1303               	bcf	3,6	;RP1=0, select bank0
  1291     0078  0830               	movf	?_I2C_Master_Read,w
  1292     0079  120A  158A  24FA  120A  118A  	fcall	_BCD_to_Decimal
  1293     007E  1283               	bcf	3,5	;RP0=0, select bank0
  1294     007F  1303               	bcf	3,6	;RP1=0, select bank0
  1295     0080  00D3               	movwf	_timeRTC+2
  1296     0081                     l2591:
  1297                           
  1298                           ;E:/Universidad/Semestre2_2023/Digital-2/Lab4/Lab4_Master.X/Lab4_Master.c: 170:         
      +                          timeRTC[1] = BCD_to_Decimal(I2C_Master_Read(1));
  1299     0081  3001               	movlw	1
  1300     0082  00B0               	movwf	I2C_Master_Read@a
  1301     0083  3000               	movlw	0
  1302     0084  00B1               	movwf	I2C_Master_Read@a+1
  1303     0085  120A  158A  2560  120A  118A  	fcall	_I2C_Master_Read
  1304     008A  1283               	bcf	3,5	;RP0=0, select bank0
  1305     008B  1303               	bcf	3,6	;RP1=0, select bank0
  1306     008C  0830               	movf	?_I2C_Master_Read,w
  1307     008D  120A  158A  24FA  120A  118A  	fcall	_BCD_to_Decimal
  1308     0092  1283               	bcf	3,5	;RP0=0, select bank0
  1309     0093  1303               	bcf	3,6	;RP1=0, select bank0
  1310     0094  00D2               	movwf	_timeRTC+1
  1311     0095                     l2593:
  1312                           
  1313                           ;E:/Universidad/Semestre2_2023/Digital-2/Lab4/Lab4_Master.X/Lab4_Master.c: 171:         
      +                          timeRTC[0] = BCD_to_Decimal(I2C_Master_Read(1));
  1314     0095  3001               	movlw	1
  1315     0096  00B0               	movwf	I2C_Master_Read@a
  1316     0097  3000               	movlw	0
  1317     0098  00B1               	movwf	I2C_Master_Read@a+1
  1318     0099  120A  158A  2560  120A  118A  	fcall	_I2C_Master_Read
  1319     009E  1283               	bcf	3,5	;RP0=0, select bank0
  1320     009F  1303               	bcf	3,6	;RP1=0, select bank0
  1321     00A0  0830               	movf	?_I2C_Master_Read,w
  1322     00A1  120A  158A  24FA  120A  118A  	fcall	_BCD_to_Decimal
  1323     00A6  1283               	bcf	3,5	;RP0=0, select bank0
  1324     00A7  1303               	bcf	3,6	;RP1=0, select bank0
  1325     00A8  00D1               	movwf	_timeRTC
  1326     00A9                     l2595:
  1327                           
  1328                           ;E:/Universidad/Semestre2_2023/Digital-2/Lab4/Lab4_Master.X/Lab4_Master.c: 173:         
      +                          dateRTC[0] = BCD_to_Decimal(I2C_Master_Read(1));
  1329     00A9  3001               	movlw	1
  1330     00AA  00B0               	movwf	I2C_Master_Read@a
  1331     00AB  3000               	movlw	0
  1332     00AC  00B1               	movwf	I2C_Master_Read@a+1
  1333     00AD  120A  158A  2560  120A  118A  	fcall	_I2C_Master_Read
  1334     00B2  1283               	bcf	3,5	;RP0=0, select bank0
  1335     00B3  1303               	bcf	3,6	;RP1=0, select bank0
  1336     00B4  0830               	movf	?_I2C_Master_Read,w
  1337     00B5  120A  158A  24FA  120A  118A  	fcall	_BCD_to_Decimal
  1338     00BA  1283               	bcf	3,5	;RP0=0, select bank0
  1339     00BB  1303               	bcf	3,6	;RP1=0, select bank0
  1340     00BC  00CD               	movwf	_dateRTC
  1341     00BD                     l2597:
  1342                           
  1343                           ;E:/Universidad/Semestre2_2023/Digital-2/Lab4/Lab4_Master.X/Lab4_Master.c: 174:         
      +                          dateRTC[1] = BCD_to_Decimal(I2C_Master_Read(1));
  1344     00BD  3001               	movlw	1
  1345     00BE  00B0               	movwf	I2C_Master_Read@a
  1346     00BF  3000               	movlw	0
  1347     00C0  00B1               	movwf	I2C_Master_Read@a+1
  1348     00C1  120A  158A  2560  120A  118A  	fcall	_I2C_Master_Read
  1349     00C6  1283               	bcf	3,5	;RP0=0, select bank0
  1350     00C7  1303               	bcf	3,6	;RP1=0, select bank0
  1351     00C8  0830               	movf	?_I2C_Master_Read,w
  1352     00C9  120A  158A  24FA  120A  118A  	fcall	_BCD_to_Decimal
  1353     00CE  1283               	bcf	3,5	;RP0=0, select bank0
  1354     00CF  1303               	bcf	3,6	;RP1=0, select bank0
  1355     00D0  00CE               	movwf	_dateRTC+1
  1356     00D1                     l2599:
  1357                           
  1358                           ;E:/Universidad/Semestre2_2023/Digital-2/Lab4/Lab4_Master.X/Lab4_Master.c: 175:         
      +                          dateRTC[2] = BCD_to_Decimal(I2C_Master_Read(1));
  1359     00D1  3001               	movlw	1
  1360     00D2  00B0               	movwf	I2C_Master_Read@a
  1361     00D3  3000               	movlw	0
  1362     00D4  00B1               	movwf	I2C_Master_Read@a+1
  1363     00D5  120A  158A  2560  120A  118A  	fcall	_I2C_Master_Read
  1364     00DA  1283               	bcf	3,5	;RP0=0, select bank0
  1365     00DB  1303               	bcf	3,6	;RP1=0, select bank0
  1366     00DC  0830               	movf	?_I2C_Master_Read,w
  1367     00DD  120A  158A  24FA  120A  118A  	fcall	_BCD_to_Decimal
  1368     00E2  1283               	bcf	3,5	;RP0=0, select bank0
  1369     00E3  1303               	bcf	3,6	;RP1=0, select bank0
  1370     00E4  00CF               	movwf	_dateRTC+2
  1371     00E5                     l2601:
  1372                           
  1373                           ;E:/Universidad/Semestre2_2023/Digital-2/Lab4/Lab4_Master.X/Lab4_Master.c: 176:         
      +                          dateRTC[3] = BCD_to_Decimal(I2C_Master_Read(0));
  1374     00E5  3000               	movlw	0
  1375     00E6  00B0               	movwf	I2C_Master_Read@a
  1376     00E7  00B1               	movwf	I2C_Master_Read@a+1
  1377     00E8  120A  158A  2560  120A  118A  	fcall	_I2C_Master_Read
  1378     00ED  1283               	bcf	3,5	;RP0=0, select bank0
  1379     00EE  1303               	bcf	3,6	;RP1=0, select bank0
  1380     00EF  0830               	movf	?_I2C_Master_Read,w
  1381     00F0  120A  158A  24FA  120A  118A  	fcall	_BCD_to_Decimal
  1382     00F5  1283               	bcf	3,5	;RP0=0, select bank0
  1383     00F6  1303               	bcf	3,6	;RP1=0, select bank0
  1384     00F7  00D0               	movwf	_dateRTC+3
  1385                           
  1386                           ;E:/Universidad/Semestre2_2023/Digital-2/Lab4/Lab4_Master.X/Lab4_Master.c: 177:         
      +                          I2C_Master_Stop();
  1387     00F8  120A  158A  2457  120A  118A  	fcall	_I2C_Master_Stop
  1388     00FD                     l2603:
  1389                           
  1390                           ;E:/Universidad/Semestre2_2023/Digital-2/Lab4/Lab4_Master.X/Lab4_Master.c: 178:         
      +                          _delay((unsigned long)((200)*(8000000/4000.0)));
  1391     00FD  3003               	movlw	3
  1392     00FE  1683               	bsf	3,5	;RP0=1, select bank1
  1393     00FF  1303               	bcf	3,6	;RP1=0, select bank1
  1394     0100  00B2               	movwf	(??_main^(0+128)+2)
  1395     0101  3008               	movlw	8
  1396     0102  00B1               	movwf	(??_main^(0+128)+1)
  1397     0103  3076               	movlw	118
  1398     0104  00B0               	movwf	??_main^(0+128)
  1399     0105                     u2167:
  1400     0105  0BB0               	decfsz	??_main^(0+128),f
  1401     0106  2905               	goto	u2167
  1402     0107  0BB1               	decfsz	(??_main^(0+128)+1),f
  1403     0108  2905               	goto	u2167
  1404     0109  0BB2               	decfsz	(??_main^(0+128)+2),f
  1405     010A  2905               	goto	u2167
  1406     010B  0000               	nop
  1407     010C                     l2605:
  1408                           
  1409                           ;E:/Universidad/Semestre2_2023/Digital-2/Lab4/Lab4_Master.X/Lab4_Master.c: 181:         
      +                          I2C_Master_Start();
  1410     010C  120A  158A  244E  120A  118A  	fcall	_I2C_Master_Start
  1411     0111                     l2607:
  1412                           
  1413                           ;E:/Universidad/Semestre2_2023/Digital-2/Lab4/Lab4_Master.X/Lab4_Master.c: 182:         
      +                          I2C_Master_Write(0x51);
  1414     0111  3051               	movlw	81
  1415     0112  1283               	bcf	3,5	;RP0=0, select bank0
  1416     0113  1303               	bcf	3,6	;RP1=0, select bank0
  1417     0114  00BE               	movwf	I2C_Master_Write@d
  1418     0115  3000               	movlw	0
  1419     0116  00BF               	movwf	I2C_Master_Write@d+1
  1420     0117  120A  158A  246A  120A  118A  	fcall	_I2C_Master_Write
  1421     011C                     l2609:
  1422                           
  1423                           ;E:/Universidad/Semestre2_2023/Digital-2/Lab4/Lab4_Master.X/Lab4_Master.c: 183:         
      +                          s1ADC = I2C_Master_Read(0);
  1424     011C  3000               	movlw	0
  1425     011D  1283               	bcf	3,5	;RP0=0, select bank0
  1426     011E  1303               	bcf	3,6	;RP1=0, select bank0
  1427     011F  00B0               	movwf	I2C_Master_Read@a
  1428     0120  00B1               	movwf	I2C_Master_Read@a+1
  1429     0121  120A  158A  2560  120A  118A  	fcall	_I2C_Master_Read
  1430     0126  1283               	bcf	3,5	;RP0=0, select bank0
  1431     0127  1303               	bcf	3,6	;RP1=0, select bank0
  1432     0128  0830               	movf	?_I2C_Master_Read,w
  1433     0129  00D9               	movwf	_s1ADC
  1434     012A                     l2611:
  1435                           
  1436                           ;E:/Universidad/Semestre2_2023/Digital-2/Lab4/Lab4_Master.X/Lab4_Master.c: 184:         
      +                          I2C_Master_Stop();
  1437     012A  120A  158A  2457  120A  118A  	fcall	_I2C_Master_Stop
  1438     012F                     l2613:
  1439                           
  1440                           ;E:/Universidad/Semestre2_2023/Digital-2/Lab4/Lab4_Master.X/Lab4_Master.c: 185:         
      +                          _delay((unsigned long)((200)*(8000000/4000.0)));
  1441     012F  3003               	movlw	3
  1442     0130  1683               	bsf	3,5	;RP0=1, select bank1
  1443     0131  1303               	bcf	3,6	;RP1=0, select bank1
  1444     0132  00B2               	movwf	(??_main^(0+128)+2)
  1445     0133  3008               	movlw	8
  1446     0134  00B1               	movwf	(??_main^(0+128)+1)
  1447     0135  3076               	movlw	118
  1448     0136  00B0               	movwf	??_main^(0+128)
  1449     0137                     u2177:
  1450     0137  0BB0               	decfsz	??_main^(0+128),f
  1451     0138  2937               	goto	u2177
  1452     0139  0BB1               	decfsz	(??_main^(0+128)+1),f
  1453     013A  2937               	goto	u2177
  1454     013B  0BB2               	decfsz	(??_main^(0+128)+2),f
  1455     013C  2937               	goto	u2177
  1456     013D  0000               	nop
  1457                           
  1458                           ;E:/Universidad/Semestre2_2023/Digital-2/Lab4/Lab4_Master.X/Lab4_Master.c: 190:         
      +                          Lcd_Clear();
  1459     013E  120A  158A  248E  120A  118A  	fcall	_Lcd_Clear
  1460                           
  1461                           ;E:/Universidad/Semestre2_2023/Digital-2/Lab4/Lab4_Master.X/Lab4_Master.c: 191:         
      +                          Lcd_Set_Cursor(1,1);
  1462     0143  1283               	bcf	3,5	;RP0=0, select bank0
  1463     0144  1303               	bcf	3,6	;RP1=0, select bank0
  1464     0145  01B4               	clrf	Lcd_Set_Cursor@b
  1465     0146  0AB4               	incf	Lcd_Set_Cursor@b,f
  1466     0147  3001               	movlw	1
  1467     0148  120A  158A  2519  120A  118A  	fcall	_Lcd_Set_Cursor
  1468     014D                     l2615:
  1469                           
  1470                           ;E:/Universidad/Semestre2_2023/Digital-2/Lab4/Lab4_Master.X/Lab4_Master.c: 192:         
      +                          sprintf(lineLCD, "S1:");
  1471     014D  302B               	movlw	(low ((STR_1-__stringbase)| (0+32768)))& (0+255)
  1472     014E  1283               	bcf	3,5	;RP0=0, select bank0
  1473     014F  1303               	bcf	3,6	;RP1=0, select bank0
  1474     0150  00BC               	movwf	sprintf@f
  1475     0151  30A0               	movlw	(low (_lineLCD| 0))& (0+255)
  1476     0152  120A  118A  222D  120A  118A  	fcall	_sprintf
  1477     0157                     l2617:
  1478                           
  1479                           ;E:/Universidad/Semestre2_2023/Digital-2/Lab4/Lab4_Master.X/Lab4_Master.c: 193:         
      +                          Lcd_Write_String(lineLCD);
  1480     0157  30A0               	movlw	(low (_lineLCD| 0))& (0+255)
  1481     0158  120A  158A  253B  120A  118A  	fcall	_Lcd_Write_String
  1482     015D                     l2619:
  1483                           
  1484                           ;E:/Universidad/Semestre2_2023/Digital-2/Lab4/Lab4_Master.X/Lab4_Master.c: 194:         
      +                          Lcd_Set_Cursor(1,6);
  1485     015D  3006               	movlw	6
  1486     015E  1283               	bcf	3,5	;RP0=0, select bank0
  1487     015F  1303               	bcf	3,6	;RP1=0, select bank0
  1488     0160  00B4               	movwf	Lcd_Set_Cursor@b
  1489     0161  3001               	movlw	1
  1490     0162  120A  158A  2519  120A  118A  	fcall	_Lcd_Set_Cursor
  1491     0167                     l2621:
  1492                           
  1493                           ;E:/Universidad/Semestre2_2023/Digital-2/Lab4/Lab4_Master.X/Lab4_Master.c: 195:         
      +                          sprintf(lineLCD, "%.2d/%.2d/20%.2d", dateRTC[1], dateRTC[2], dateRTC[3]);
  1494     0167  300B               	movlw	(low ((STR_2-__stringbase)| (0+32768)))& (0+255)
  1495     0168  1283               	bcf	3,5	;RP0=0, select bank0
  1496     0169  1303               	bcf	3,6	;RP1=0, select bank0
  1497     016A  00BC               	movwf	sprintf@f
  1498     016B  084E               	movf	_dateRTC+1,w
  1499     016C  1683               	bsf	3,5	;RP0=1, select bank1
  1500     016D  1303               	bcf	3,6	;RP1=0, select bank1
  1501     016E  00B0               	movwf	??_main^(0+128)
  1502     016F  01B1               	clrf	(??_main^(0+128)+1)
  1503     0170  0830               	movf	??_main^(0+128),w
  1504     0171  1283               	bcf	3,5	;RP0=0, select bank0
  1505     0172  1303               	bcf	3,6	;RP1=0, select bank0
  1506     0173  00BD               	movwf	?_sprintf+1
  1507     0174  1683               	bsf	3,5	;RP0=1, select bank1
  1508     0175  1303               	bcf	3,6	;RP1=0, select bank1
  1509     0176  0831               	movf	(??_main+1)^(0+128),w
  1510     0177  1283               	bcf	3,5	;RP0=0, select bank0
  1511     0178  1303               	bcf	3,6	;RP1=0, select bank0
  1512     0179  00BE               	movwf	?_sprintf+2
  1513     017A  084F               	movf	_dateRTC+2,w
  1514     017B  1683               	bsf	3,5	;RP0=1, select bank1
  1515     017C  1303               	bcf	3,6	;RP1=0, select bank1
  1516     017D  00B2               	movwf	(??_main+2)^(0+128)
  1517     017E  01B3               	clrf	((??_main+2)^(0+128)+1)
  1518     017F  0832               	movf	(??_main+2)^(0+128),w
  1519     0180  1283               	bcf	3,5	;RP0=0, select bank0
  1520     0181  1303               	bcf	3,6	;RP1=0, select bank0
  1521     0182  00BF               	movwf	?_sprintf+3
  1522     0183  1683               	bsf	3,5	;RP0=1, select bank1
  1523     0184  1303               	bcf	3,6	;RP1=0, select bank1
  1524     0185  0833               	movf	(??_main+3)^(0+128),w
  1525     0186  1283               	bcf	3,5	;RP0=0, select bank0
  1526     0187  1303               	bcf	3,6	;RP1=0, select bank0
  1527     0188  00C0               	movwf	?_sprintf+4
  1528     0189  0850               	movf	_dateRTC+3,w
  1529     018A  1683               	bsf	3,5	;RP0=1, select bank1
  1530     018B  1303               	bcf	3,6	;RP1=0, select bank1
  1531     018C  00B4               	movwf	(??_main+4)^(0+128)
  1532     018D  01B5               	clrf	((??_main+4)^(0+128)+1)
  1533     018E  0834               	movf	(??_main+4)^(0+128),w
  1534     018F  1283               	bcf	3,5	;RP0=0, select bank0
  1535     0190  1303               	bcf	3,6	;RP1=0, select bank0
  1536     0191  00C1               	movwf	?_sprintf+5
  1537     0192  1683               	bsf	3,5	;RP0=1, select bank1
  1538     0193  1303               	bcf	3,6	;RP1=0, select bank1
  1539     0194  0835               	movf	(??_main+5)^(0+128),w
  1540     0195  1283               	bcf	3,5	;RP0=0, select bank0
  1541     0196  1303               	bcf	3,6	;RP1=0, select bank0
  1542     0197  00C2               	movwf	?_sprintf+6
  1543     0198  30A0               	movlw	(low (_lineLCD| 0))& (0+255)
  1544     0199  120A  118A  222D  120A  118A  	fcall	_sprintf
  1545                           
  1546                           ;E:/Universidad/Semestre2_2023/Digital-2/Lab4/Lab4_Master.X/Lab4_Master.c: 196:         
      +                          Lcd_Write_String(lineLCD);
  1547     019E  30A0               	movlw	(low (_lineLCD| 0))& (0+255)
  1548     019F  120A  158A  253B  120A  118A  	fcall	_Lcd_Write_String
  1549     01A4                     l2623:
  1550                           
  1551                           ;E:/Universidad/Semestre2_2023/Digital-2/Lab4/Lab4_Master.X/Lab4_Master.c: 198:         
      +                          Lcd_Set_Cursor(2,1);
  1552     01A4  1283               	bcf	3,5	;RP0=0, select bank0
  1553     01A5  1303               	bcf	3,6	;RP1=0, select bank0
  1554     01A6  01B4               	clrf	Lcd_Set_Cursor@b
  1555     01A7  0AB4               	incf	Lcd_Set_Cursor@b,f
  1556     01A8  3002               	movlw	2
  1557     01A9  120A  158A  2519  120A  118A  	fcall	_Lcd_Set_Cursor
  1558     01AE                     l2625:
  1559                           
  1560                           ;E:/Universidad/Semestre2_2023/Digital-2/Lab4/Lab4_Master.X/Lab4_Master.c: 199:         
      +                          sprintf(lineLCD,"%.2d", s1ADC);
  1561     01AE  3017               	movlw	(low (((STR_2+12)-__stringbase)| (0+32768)))& (0+255)
  1562     01AF  1283               	bcf	3,5	;RP0=0, select bank0
  1563     01B0  1303               	bcf	3,6	;RP1=0, select bank0
  1564     01B1  00BC               	movwf	sprintf@f
  1565     01B2  0859               	movf	_s1ADC,w
  1566     01B3  1683               	bsf	3,5	;RP0=1, select bank1
  1567     01B4  1303               	bcf	3,6	;RP1=0, select bank1
  1568     01B5  00B0               	movwf	??_main^(0+128)
  1569     01B6  01B1               	clrf	(??_main^(0+128)+1)
  1570     01B7  0830               	movf	??_main^(0+128),w
  1571     01B8  1283               	bcf	3,5	;RP0=0, select bank0
  1572     01B9  1303               	bcf	3,6	;RP1=0, select bank0
  1573     01BA  00BD               	movwf	?_sprintf+1
  1574     01BB  1683               	bsf	3,5	;RP0=1, select bank1
  1575     01BC  1303               	bcf	3,6	;RP1=0, select bank1
  1576     01BD  0831               	movf	(??_main+1)^(0+128),w
  1577     01BE  1283               	bcf	3,5	;RP0=0, select bank0
  1578     01BF  1303               	bcf	3,6	;RP1=0, select bank0
  1579     01C0  00BE               	movwf	?_sprintf+2
  1580     01C1  30A0               	movlw	(low (_lineLCD| 0))& (0+255)
  1581     01C2  120A  118A  222D  120A  118A  	fcall	_sprintf
  1582     01C7                     l2627:
  1583                           
  1584                           ;E:/Universidad/Semestre2_2023/Digital-2/Lab4/Lab4_Master.X/Lab4_Master.c: 200:         
      +                          Lcd_Write_String(lineLCD);
  1585     01C7  30A0               	movlw	(low (_lineLCD| 0))& (0+255)
  1586     01C8  120A  158A  253B  120A  118A  	fcall	_Lcd_Write_String
  1587     01CD                     l2629:
  1588                           
  1589                           ;E:/Universidad/Semestre2_2023/Digital-2/Lab4/Lab4_Master.X/Lab4_Master.c: 201:         
      +                          Lcd_Set_Cursor(2,7);
  1590     01CD  3007               	movlw	7
  1591     01CE  1283               	bcf	3,5	;RP0=0, select bank0
  1592     01CF  1303               	bcf	3,6	;RP1=0, select bank0
  1593     01D0  00B4               	movwf	Lcd_Set_Cursor@b
  1594     01D1  3002               	movlw	2
  1595     01D2  120A  158A  2519  120A  118A  	fcall	_Lcd_Set_Cursor
  1596                           
  1597                           ;E:/Universidad/Semestre2_2023/Digital-2/Lab4/Lab4_Master.X/Lab4_Master.c: 202:         
      +                          sprintf(lineLCD,"%.2d:%.2d:%.2d", timeRTC[0], timeRTC[1], timeRTC[2]);
  1598     01D7  301C               	movlw	(low ((STR_4-__stringbase)| (0+32768)))& (0+255)
  1599     01D8  1283               	bcf	3,5	;RP0=0, select bank0
  1600     01D9  1303               	bcf	3,6	;RP1=0, select bank0
  1601     01DA  00BC               	movwf	sprintf@f
  1602     01DB  0851               	movf	_timeRTC,w
  1603     01DC  1683               	bsf	3,5	;RP0=1, select bank1
  1604     01DD  1303               	bcf	3,6	;RP1=0, select bank1
  1605     01DE  00B0               	movwf	??_main^(0+128)
  1606     01DF  01B1               	clrf	(??_main^(0+128)+1)
  1607     01E0  0830               	movf	??_main^(0+128),w
  1608     01E1  1283               	bcf	3,5	;RP0=0, select bank0
  1609     01E2  1303               	bcf	3,6	;RP1=0, select bank0
  1610     01E3  00BD               	movwf	?_sprintf+1
  1611     01E4  1683               	bsf	3,5	;RP0=1, select bank1
  1612     01E5  1303               	bcf	3,6	;RP1=0, select bank1
  1613     01E6  0831               	movf	(??_main+1)^(0+128),w
  1614     01E7  1283               	bcf	3,5	;RP0=0, select bank0
  1615     01E8  1303               	bcf	3,6	;RP1=0, select bank0
  1616     01E9  00BE               	movwf	?_sprintf+2
  1617     01EA  0852               	movf	_timeRTC+1,w
  1618     01EB  1683               	bsf	3,5	;RP0=1, select bank1
  1619     01EC  1303               	bcf	3,6	;RP1=0, select bank1
  1620     01ED  00B2               	movwf	(??_main+2)^(0+128)
  1621     01EE  01B3               	clrf	((??_main+2)^(0+128)+1)
  1622     01EF  0832               	movf	(??_main+2)^(0+128),w
  1623     01F0  1283               	bcf	3,5	;RP0=0, select bank0
  1624     01F1  1303               	bcf	3,6	;RP1=0, select bank0
  1625     01F2  00BF               	movwf	?_sprintf+3
  1626     01F3  1683               	bsf	3,5	;RP0=1, select bank1
  1627     01F4  1303               	bcf	3,6	;RP1=0, select bank1
  1628     01F5  0833               	movf	(??_main+3)^(0+128),w
  1629     01F6  1283               	bcf	3,5	;RP0=0, select bank0
  1630     01F7  1303               	bcf	3,6	;RP1=0, select bank0
  1631     01F8  00C0               	movwf	?_sprintf+4
  1632     01F9  0853               	movf	_timeRTC+2,w
  1633     01FA  1683               	bsf	3,5	;RP0=1, select bank1
  1634     01FB  1303               	bcf	3,6	;RP1=0, select bank1
  1635     01FC  00B4               	movwf	(??_main+4)^(0+128)
  1636     01FD  01B5               	clrf	((??_main+4)^(0+128)+1)
  1637     01FE  0834               	movf	(??_main+4)^(0+128),w
  1638     01FF  1283               	bcf	3,5	;RP0=0, select bank0
  1639     0200  1303               	bcf	3,6	;RP1=0, select bank0
  1640     0201  00C1               	movwf	?_sprintf+5
  1641     0202  1683               	bsf	3,5	;RP0=1, select bank1
  1642     0203  1303               	bcf	3,6	;RP1=0, select bank1
  1643     0204  0835               	movf	(??_main+5)^(0+128),w
  1644     0205  1283               	bcf	3,5	;RP0=0, select bank0
  1645     0206  1303               	bcf	3,6	;RP1=0, select bank0
  1646     0207  00C2               	movwf	?_sprintf+6
  1647     0208  30A0               	movlw	(low (_lineLCD| 0))& (0+255)
  1648     0209  120A  118A  222D  120A  118A  	fcall	_sprintf
  1649     020E                     l2631:
  1650                           
  1651                           ;E:/Universidad/Semestre2_2023/Digital-2/Lab4/Lab4_Master.X/Lab4_Master.c: 203:         
      +                          Lcd_Write_String(lineLCD);
  1652     020E  30A0               	movlw	(low (_lineLCD| 0))& (0+255)
  1653     020F  120A  158A  253B  120A  118A  	fcall	_Lcd_Write_String
  1654     0214                     l2633:
  1655                           
  1656                           ;E:/Universidad/Semestre2_2023/Digital-2/Lab4/Lab4_Master.X/Lab4_Master.c: 205:         
      +                          _delay((unsigned long)((50)*(8000000/4000.0)));
  1657     0214  3082               	movlw	130
  1658     0215  1683               	bsf	3,5	;RP0=1, select bank1
  1659     0216  1303               	bcf	3,6	;RP1=0, select bank1
  1660     0217  00B1               	movwf	(??_main^(0+128)+1)
  1661     0218  30DD               	movlw	221
  1662     0219  00B0               	movwf	??_main^(0+128)
  1663     021A                     u2187:
  1664     021A  0BB0               	decfsz	??_main^(0+128),f
  1665     021B  2A1A               	goto	u2187
  1666     021C  0BB1               	decfsz	(??_main^(0+128)+1),f
  1667     021D  2A1A               	goto	u2187
  1668     021E                     l2635:
  1669                           
  1670                           ;E:/Universidad/Semestre2_2023/Digital-2/Lab4/Lab4_Master.X/Lab4_Master.c: 206:         
      +                          if (mode == 6){
  1671     021E  3006               	movlw	6
  1672     021F  1283               	bcf	3,5	;RP0=0, select bank0
  1673     0220  1303               	bcf	3,6	;RP1=0, select bank0
  1674     0221  0657               	xorwf	_mode,w
  1675     0222  1D03               	btfss	3,2
  1676     0223  2A25               	goto	u2151
  1677     0224  2A26               	goto	u2150
  1678     0225                     u2151:
  1679     0225  2A27               	goto	l2639
  1680     0226                     u2150:
  1681     0226                     l2637:
  1682                           
  1683                           ;E:/Universidad/Semestre2_2023/Digital-2/Lab4/Lab4_Master.X/Lab4_Master.c: 207:         
      +                              mode = 0;
  1684     0226  01D7               	clrf	_mode
  1685     0227                     l2639:
  1686                           
  1687                           ;E:/Universidad/Semestre2_2023/Digital-2/Lab4/Lab4_Master.X/Lab4_Master.c: 210:         
      +                          PORTA = mode;
  1688     0227  0857               	movf	_mode,w
  1689     0228  0085               	movwf	5	;volatile
  1690     0229  2841               	goto	l2579
  1691     022A  120A  118A  2812   	ljmp	start
  1692     022D                     __end_of_main:
  1693                           
  1694                           	psect	text1
  1695     022D                     __ptext1:	
  1696 ;; *************** function _sprintf *****************
  1697 ;; Defined at:
  1698 ;;		line 505 in file "C:\Program Files\Microchip\xc8\v2.41\pic\sources\c90\common\doprnt.c"
  1699 ;; Parameters:    Size  Location     Type
  1700 ;;  sp              1    wreg     PTR unsigned char 
  1701 ;;		 -> lineLCD(16), 
  1702 ;;  f               1   28[BANK0 ] PTR const unsigned char 
  1703 ;;		 -> STR_4(15), STR_3(5), STR_2(17), STR_1(4), 
  1704 ;; Auto vars:     Size  Location     Type
  1705 ;;  sp              1   42[BANK0 ] PTR unsigned char 
  1706 ;;		 -> lineLCD(16), 
  1707 ;;  tmpval          4    0        struct .
  1708 ;;  val             2   40[BANK0 ] unsigned int 
  1709 ;;  cp              2    0        PTR const unsigned char 
  1710 ;;  len             2    0        unsigned int 
  1711 ;;  c               1   44[BANK0 ] unsigned char 
  1712 ;;  prec            1   43[BANK0 ] char 
  1713 ;;  flag            1   39[BANK0 ] unsigned char 
  1714 ;;  ap              1   38[BANK0 ] PTR void [1]
  1715 ;;		 -> ?_sprintf(2), 
  1716 ;; Return value:  Size  Location     Type
  1717 ;;                  2   28[BANK0 ] int 
  1718 ;; Registers used:
  1719 ;;		wreg, fsr0l, fsr0h, status,2, status,0, btemp+1, pclath, cstack
  1720 ;; Tracked objects:
  1721 ;;		On entry : 0/0
  1722 ;;		On exit  : 0/0
  1723 ;;		Unchanged: 0/0
  1724 ;; Data sizes:     COMMON   BANK0   BANK1   BANK3   BANK2
  1725 ;;      Params:         0       7       0       0       0
  1726 ;;      Locals:         0       7       0       0       0
  1727 ;;      Temps:          0       3       0       0       0
  1728 ;;      Totals:         0      17       0       0       0
  1729 ;;Total ram usage:       17 bytes
  1730 ;; Hardware stack levels used: 1
  1731 ;; Hardware stack levels required when called: 5
  1732 ;; This function calls:
  1733 ;;		___bmul
  1734 ;;		___lwdiv
  1735 ;;		___lwmod
  1736 ;;		_isdigit
  1737 ;; This function is called by:
  1738 ;;		_main
  1739 ;; This function uses a non-reentrant model
  1740 ;;
  1741                           
  1742     022D                     _sprintf:	
  1743                           ;psect for function _sprintf
  1744                           
  1745                           
  1746                           ;incstack = 0
  1747                           ; Regs used in _sprintf: [wreg-fsr0h+status,2+status,0+btemp+1+pclath+cstack]
  1748                           ;sprintf@sp stored from wreg
  1749     022D  1283               	bcf	3,5	;RP0=0, select bank0
  1750     022E  1303               	bcf	3,6	;RP1=0, select bank0
  1751     022F  00CA               	movwf	sprintf@sp
  1752     0230                     l2251:
  1753                           
  1754                           ;C:\Program Files\Microchip\xc8\v2.41\pic\sources\c90\common\doprnt.c: 505: sprintf(char
      +                           * sp, const char * f, ...);C:\Program Files\Microchip\xc8\v2.41\pic\sources\c90\common\
      +                          doprnt.c: 506: {;C:\Program Files\Microchip\xc8\v2.41\pic\sources\c90\common\doprnt.c: 5
      +                          07:  va_list ap;;C:\Program Files\Microchip\xc8\v2.41\pic\sources\c90\common\doprnt.c: 5
      +                          12:  char c;;C:\Program Files\Microchip\xc8\v2.41\pic\sources\c90\common\doprnt.c: 521: 
      +                           signed char prec;;C:\Program Files\Microchip\xc8\v2.41\pic\sources\c90\common\doprnt.c:
      +                           525:  unsigned char flag;
  1755     0230  303D               	movlw	(low ((?_sprintf| 0+1)))& (0+255)
  1756     0231  00C6               	movwf	sprintf@ap
  1757                           
  1758                           ;C:\Program Files\Microchip\xc8\v2.41\pic\sources\c90\common\doprnt.c: 553:  while((c = 
      +                          *f++)) {
  1759     0232  2B6B               	goto	l2333
  1760     0233                     l2253:
  1761                           
  1762                           ;C:\Program Files\Microchip\xc8\v2.41\pic\sources\c90\common\doprnt.c: 555:   if(c != '%
      +                          ')
  1763     0233  3025               	movlw	37
  1764     0234  064C               	xorwf	sprintf@c,w
  1765     0235  1903               	btfsc	3,2
  1766     0236  2A38               	goto	u1971
  1767     0237  2A39               	goto	u1970
  1768     0238                     u1971:
  1769     0238  2A43               	goto	l2259
  1770     0239                     u1970:
  1771     0239                     l2255:
  1772                           
  1773                           ;C:\Program Files\Microchip\xc8\v2.41\pic\sources\c90\common\doprnt.c: 557:   {;C:\Progr
      +                          am Files\Microchip\xc8\v2.41\pic\sources\c90\common\doprnt.c: 558:    ((*sp++ = (c)));
  1774     0239  084A               	movf	sprintf@sp,w
  1775     023A  0084               	movwf	4
  1776     023B  084C               	movf	sprintf@c,w
  1777     023C  1383               	bcf	3,7	;select IRP bank0
  1778     023D  0080               	movwf	0
  1779     023E                     l2257:
  1780     023E  3001               	movlw	1
  1781     023F  00FF               	movwf	btemp+1
  1782     0240  087F               	movf	btemp+1,w
  1783     0241  07CA               	addwf	sprintf@sp,f
  1784                           
  1785                           ;C:\Program Files\Microchip\xc8\v2.41\pic\sources\c90\common\doprnt.c: 559:    continue;
  1786     0242  2B6B               	goto	l2333
  1787     0243                     l2259:
  1788                           
  1789                           ;C:\Program Files\Microchip\xc8\v2.41\pic\sources\c90\common\doprnt.c: 565:   flag = 0;
  1790     0243  01C7               	clrf	sprintf@flag
  1791     0244                     l2261:
  1792                           
  1793                           ;C:\Program Files\Microchip\xc8\v2.41\pic\sources\c90\common\doprnt.c: 628:   if(*f == '
      +                          .') {
  1794     0244  083C               	movf	sprintf@f,w
  1795     0245  0084               	movwf	4
  1796     0246  120A  158A  2000  120A  118A  	fcall	stringdir
  1797     024B  3A2E               	xorlw	46
  1798     024C  1D03               	skipz
  1799     024D  2A4F               	goto	u1981
  1800     024E  2A50               	goto	u1980
  1801     024F                     u1981:
  1802     024F  2A83               	goto	l2275
  1803     0250                     u1980:
  1804     0250                     l2263:
  1805                           
  1806                           ;C:\Program Files\Microchip\xc8\v2.41\pic\sources\c90\common\doprnt.c: 630:    f++;
  1807     0250  3001               	movlw	1
  1808     0251  00FF               	movwf	btemp+1
  1809     0252  087F               	movf	btemp+1,w
  1810     0253  07BC               	addwf	sprintf@f,f
  1811     0254                     l2265:
  1812                           
  1813                           ;C:\Program Files\Microchip\xc8\v2.41\pic\sources\c90\common\doprnt.c: 644:    {;C:\Prog
      +                          ram Files\Microchip\xc8\v2.41\pic\sources\c90\common\doprnt.c: 645:     prec = 0;
  1814     0254  01CB               	clrf	sprintf@prec
  1815                           
  1816                           ;C:\Program Files\Microchip\xc8\v2.41\pic\sources\c90\common\doprnt.c: 646:     while(is
      +                          digit((unsigned)*f)) {
  1817     0255  2A72               	goto	l2273
  1818     0256                     l2267:
  1819                           
  1820                           ;C:\Program Files\Microchip\xc8\v2.41\pic\sources\c90\common\doprnt.c: 647:      prec *=
      +                           10;
  1821     0256  1283               	bcf	3,5	;RP0=0, select bank0
  1822     0257  1303               	bcf	3,6	;RP1=0, select bank0
  1823     0258  084B               	movf	sprintf@prec,w
  1824     0259  00B0               	movwf	___bmul@multiplicand
  1825     025A  300A               	movlw	10
  1826     025B  120A  158A  24AF  120A  118A  	fcall	___bmul
  1827     0260  1283               	bcf	3,5	;RP0=0, select bank0
  1828     0261  1303               	bcf	3,6	;RP1=0, select bank0
  1829     0262  00CB               	movwf	sprintf@prec
  1830     0263                     l2269:
  1831                           
  1832                           ;C:\Program Files\Microchip\xc8\v2.41\pic\sources\c90\common\doprnt.c: 648:         prec
      +                           += *f++ - '0';
  1833     0263  083C               	movf	sprintf@f,w
  1834     0264  0084               	movwf	4
  1835     0265  120A  158A  2000  120A  118A  	fcall	stringdir
  1836     026A  3ED0               	addlw	-48
  1837     026B  00FF               	movwf	btemp+1
  1838     026C  087F               	movf	btemp+1,w
  1839     026D  07CB               	addwf	sprintf@prec,f
  1840     026E                     l2271:
  1841     026E  3001               	movlw	1
  1842     026F  00FF               	movwf	btemp+1
  1843     0270  087F               	movf	btemp+1,w
  1844     0271  07BC               	addwf	sprintf@f,f
  1845     0272                     l2273:
  1846                           
  1847                           ;C:\Program Files\Microchip\xc8\v2.41\pic\sources\c90\common\doprnt.c: 646:     while(is
      +                          digit((unsigned)*f)) {
  1848     0272  083C               	movf	sprintf@f,w
  1849     0273  0084               	movwf	4
  1850     0274  120A  158A  2000  120A  118A  	fcall	stringdir
  1851     0279  120A  158A  249B  120A  118A  	fcall	_isdigit
  1852     027E  1803               	btfsc	3,0
  1853     027F  2A81               	goto	u1991
  1854     0280  2A82               	goto	u1990
  1855     0281                     u1991:
  1856     0281  2A56               	goto	l2267
  1857     0282                     u1990:
  1858     0282  2A84               	goto	l2279
  1859     0283                     l2275:
  1860                           
  1861                           ;C:\Program Files\Microchip\xc8\v2.41\pic\sources\c90\common\doprnt.c: 652:    prec = 0;
  1862     0283  01CB               	clrf	sprintf@prec
  1863     0284                     l2279:
  1864     0284  3001               	movlw	1
  1865     0285  1283               	bcf	3,5	;RP0=0, select bank0
  1866     0286  1303               	bcf	3,6	;RP1=0, select bank0
  1867     0287  07BC               	addwf	sprintf@f,f
  1868     0288  30FF               	movlw	-1
  1869     0289  073C               	addwf	sprintf@f,w
  1870     028A  0084               	movwf	4
  1871     028B  120A  158A  2000  120A  118A  	fcall	stringdir
  1872     0290  00CC               	movwf	sprintf@c
  1873     0291  00C3               	movwf	??_sprintf
  1874     0292  01C4               	clrf	??_sprintf+1
  1875                           
  1876                           ; Switch on 2 bytes has been partitioned into a top level switch of size 1, and 1 sub-sw
      +                          itches
  1877                           ; Switch size 1, requested type "simple"
  1878                           ; Number of cases is 1, Range of values is 0 to 0
  1879                           ; switch strategies available:
  1880                           ; Name         Instructions Cycles
  1881                           ; simple_byte            4     3 (average)
  1882                           ; direct_byte           11     8 (fixed)
  1883                           ; jumptable            260     6 (fixed)
  1884                           ;	Chosen strategy is simple_byte
  1885     0293  0844               	movf	??_sprintf+1,w
  1886     0294  3A00               	xorlw	0	; case 0
  1887     0295  1903               	skipnz
  1888     0296  2A98               	goto	l2731
  1889     0297  2B6B               	goto	l2333
  1890     0298                     l2731:
  1891                           
  1892                           ; Switch size 1, requested type "simple"
  1893                           ; Number of cases is 3, Range of values is 0 to 105
  1894                           ; switch strategies available:
  1895                           ; Name         Instructions Cycles
  1896                           ; simple_byte           10     6 (average)
  1897                           ; jumptable            260     6 (fixed)
  1898                           ;	Chosen strategy is simple_byte
  1899     0298  0843               	movf	??_sprintf,w
  1900     0299  3A00               	xorlw	0	; case 0
  1901     029A  1903               	skipnz
  1902     029B  2B7B               	goto	l2335
  1903     029C  3A64               	xorlw	100	; case 100
  1904     029D  1903               	skipnz
  1905     029E  2AA3               	goto	l2281
  1906     029F  3A0D               	xorlw	13	; case 105
  1907     02A0  1903               	skipnz
  1908     02A1  2AA3               	goto	l2281
  1909     02A2  2B6B               	goto	l2333
  1910     02A3                     l2281:
  1911                           
  1912                           ;C:\Program Files\Microchip\xc8\v2.41\pic\sources\c90\common\doprnt.c: 1279:   {;C:\Prog
      +                          ram Files\Microchip\xc8\v2.41\pic\sources\c90\common\doprnt.c: 1285:     val = (unsigned
      +                           int)(*(int *)__va_arg((*(int **)ap), (int)0));
  1913     02A3  0846               	movf	sprintf@ap,w
  1914     02A4  0084               	movwf	4
  1915     02A5  1383               	bcf	3,7	;select IRP bank0
  1916     02A6  0800               	movf	0,w
  1917     02A7  00C8               	movwf	sprintf@val
  1918     02A8  0A84               	incf	4,f
  1919     02A9  0800               	movf	0,w
  1920     02AA  00C9               	movwf	sprintf@val+1
  1921     02AB                     l2283:
  1922     02AB  3002               	movlw	2
  1923     02AC  00FF               	movwf	btemp+1
  1924     02AD  087F               	movf	btemp+1,w
  1925     02AE  07C6               	addwf	sprintf@ap,f
  1926     02AF                     l2285:
  1927                           
  1928                           ;C:\Program Files\Microchip\xc8\v2.41\pic\sources\c90\common\doprnt.c: 1287:    if((int)
      +                          val < 0) {
  1929     02AF  1FC9               	btfss	sprintf@val+1,7
  1930     02B0  2AB2               	goto	u2001
  1931     02B1  2AB3               	goto	u2000
  1932     02B2                     u2001:
  1933     02B2  2ABC               	goto	l2291
  1934     02B3                     u2000:
  1935     02B3                     l2287:
  1936                           
  1937                           ;C:\Program Files\Microchip\xc8\v2.41\pic\sources\c90\common\doprnt.c: 1288:     flag |=
      +                           0x03;
  1938     02B3  3003               	movlw	3
  1939     02B4  00FF               	movwf	btemp+1
  1940     02B5  087F               	movf	btemp+1,w
  1941     02B6  04C7               	iorwf	sprintf@flag,f
  1942     02B7                     l2289:
  1943                           
  1944                           ;C:\Program Files\Microchip\xc8\v2.41\pic\sources\c90\common\doprnt.c: 1289:     val = -
      +                          val;
  1945     02B7  09C8               	comf	sprintf@val,f
  1946     02B8  09C9               	comf	sprintf@val+1,f
  1947     02B9  0AC8               	incf	sprintf@val,f
  1948     02BA  1903               	skipnz
  1949     02BB  0AC9               	incf	sprintf@val+1,f
  1950     02BC                     l2291:
  1951                           
  1952                           ;C:\Program Files\Microchip\xc8\v2.41\pic\sources\c90\common\doprnt.c: 1292:   };C:\Prog
      +                          ram Files\Microchip\xc8\v2.41\pic\sources\c90\common\doprnt.c: 1316:   if(prec == 0 && v
      +                          al == 0)
  1953     02BC  084B               	movf	sprintf@prec,w
  1954     02BD  1D03               	btfss	3,2
  1955     02BE  2AC0               	goto	u2011
  1956     02BF  2AC1               	goto	u2010
  1957     02C0                     u2011:
  1958     02C0  2ACB               	goto	l2297
  1959     02C1                     u2010:
  1960     02C1                     l2293:
  1961     02C1  0848               	movf	sprintf@val,w
  1962     02C2  0449               	iorwf	sprintf@val+1,w
  1963     02C3  1D03               	btfss	3,2
  1964     02C4  2AC6               	goto	u2021
  1965     02C5  2AC7               	goto	u2020
  1966     02C6                     u2021:
  1967     02C6  2ACB               	goto	l2297
  1968     02C7                     u2020:
  1969     02C7                     l2295:
  1970                           
  1971                           ;C:\Program Files\Microchip\xc8\v2.41\pic\sources\c90\common\doprnt.c: 1317:    prec++;
  1972     02C7  3001               	movlw	1
  1973     02C8  00FF               	movwf	btemp+1
  1974     02C9  087F               	movf	btemp+1,w
  1975     02CA  07CB               	addwf	sprintf@prec,f
  1976     02CB                     l2297:
  1977                           
  1978                           ;C:\Program Files\Microchip\xc8\v2.41\pic\sources\c90\common\doprnt.c: 1331:    for(c = 
      +                          1 ; c != sizeof dpowers/sizeof dpowers[0] ; c++)
  1979     02CB  01CC               	clrf	sprintf@c
  1980     02CC  0ACC               	incf	sprintf@c,f
  1981     02CD                     l2303:
  1982                           
  1983                           ;C:\Program Files\Microchip\xc8\v2.41\pic\sources\c90\common\doprnt.c: 1332:     if(val 
      +                          < dpowers[c])
  1984     02CD  084C               	movf	sprintf@c,w
  1985     02CE  00C3               	movwf	??_sprintf
  1986     02CF  0743               	addwf	??_sprintf,w
  1987     02D0  3E01               	addlw	low ((_dpowers-__stringbase)| (0+32768))
  1988     02D1  0084               	movwf	4
  1989     02D2  120A  158A  2000  120A  118A  	fcall	stringdir
  1990     02D7  00C4               	movwf	??_sprintf+1
  1991     02D8  120A  158A  2000  120A  118A  	fcall	stringdir
  1992     02DD  00C5               	movwf	??_sprintf+2
  1993     02DE  0845               	movf	??_sprintf+2,w
  1994     02DF  0249               	subwf	sprintf@val+1,w
  1995     02E0  1D03               	skipz
  1996     02E1  2AE4               	goto	u2035
  1997     02E2  0844               	movf	??_sprintf+1,w
  1998     02E3  0248               	subwf	sprintf@val,w
  1999     02E4                     u2035:
  2000     02E4  1803               	skipnc
  2001     02E5  2AE7               	goto	u2031
  2002     02E6  2AE8               	goto	u2030
  2003     02E7                     u2031:
  2004     02E7  2AE9               	goto	l2307
  2005     02E8                     u2030:
  2006     02E8  2AF3               	goto	l2311
  2007     02E9                     l2307:
  2008     02E9  3001               	movlw	1
  2009     02EA  00FF               	movwf	btemp+1
  2010     02EB  087F               	movf	btemp+1,w
  2011     02EC  07CC               	addwf	sprintf@c,f
  2012     02ED                     l2309:
  2013     02ED  3005               	movlw	5
  2014     02EE  064C               	xorwf	sprintf@c,w
  2015     02EF  1D03               	btfss	3,2
  2016     02F0  2AF2               	goto	u2041
  2017     02F1  2AF3               	goto	u2040
  2018     02F2                     u2041:
  2019     02F2  2ACD               	goto	l2303
  2020     02F3                     u2040:
  2021     02F3                     l2311:
  2022                           
  2023                           ;C:\Program Files\Microchip\xc8\v2.41\pic\sources\c90\common\doprnt.c: 1365:   if(c < pr
      +                          ec)
  2024     02F3  084B               	movf	sprintf@prec,w
  2025     02F4  00C3               	movwf	??_sprintf
  2026     02F5  01C4               	clrf	??_sprintf+1
  2027     02F6  1BC3               	btfsc	??_sprintf,7
  2028     02F7  03C4               	decf	??_sprintf+1,f
  2029     02F8  0844               	movf	??_sprintf+1,w
  2030     02F9  3A80               	xorlw	128
  2031     02FA  3C80               	sublw	128
  2032     02FB  1D03               	skipz
  2033     02FC  2AFF               	goto	u2055
  2034     02FD  0843               	movf	??_sprintf,w
  2035     02FE  024C               	subwf	sprintf@c,w
  2036     02FF                     u2055:
  2037     02FF  1803               	skipnc
  2038     0300  2B02               	goto	u2051
  2039     0301  2B03               	goto	u2050
  2040     0302                     u2051:
  2041     0302  2B04               	goto	l2315
  2042     0303                     u2050:
  2043     0303                     l2313:
  2044     0303  2B1C               	goto	l2319
  2045     0304                     l2315:
  2046     0304  1283               	bcf	3,5	;RP0=0, select bank0
  2047     0305  1303               	bcf	3,6	;RP1=0, select bank0
  2048     0306  084B               	movf	sprintf@prec,w
  2049     0307  00C3               	movwf	??_sprintf
  2050     0308  01C4               	clrf	??_sprintf+1
  2051     0309  1BC3               	btfsc	??_sprintf,7
  2052     030A  03C4               	decf	??_sprintf+1,f
  2053     030B  0844               	movf	??_sprintf+1,w
  2054     030C  3A80               	xorlw	128
  2055     030D  00C5               	movwf	??_sprintf+2
  2056     030E  3080               	movlw	128
  2057     030F  0245               	subwf	??_sprintf+2,w
  2058     0310  1D03               	skipz
  2059     0311  2B14               	goto	u2065
  2060     0312  084C               	movf	sprintf@c,w
  2061     0313  0243               	subwf	??_sprintf,w
  2062     0314                     u2065:
  2063     0314  1803               	skipnc
  2064     0315  2B17               	goto	u2061
  2065     0316  2B18               	goto	u2060
  2066     0317                     u2061:
  2067     0317  2B1C               	goto	l2319
  2068     0318                     u2060:
  2069     0318                     l2317:
  2070                           
  2071                           ;C:\Program Files\Microchip\xc8\v2.41\pic\sources\c90\common\doprnt.c: 1368:    prec = c
      +                          ;
  2072     0318  1283               	bcf	3,5	;RP0=0, select bank0
  2073     0319  1303               	bcf	3,6	;RP1=0, select bank0
  2074     031A  084C               	movf	sprintf@c,w
  2075     031B  00CB               	movwf	sprintf@prec
  2076     031C                     l2319:
  2077                           
  2078                           ;C:\Program Files\Microchip\xc8\v2.41\pic\sources\c90\common\doprnt.c: 1448:   {;C:\Prog
      +                          ram Files\Microchip\xc8\v2.41\pic\sources\c90\common\doprnt.c: 1464:    if(flag & 0x03)
  2079     031C  1283               	bcf	3,5	;RP0=0, select bank0
  2080     031D  1303               	bcf	3,6	;RP1=0, select bank0
  2081     031E  0847               	movf	sprintf@flag,w
  2082     031F  3903               	andlw	3
  2083     0320  1903               	btfsc	3,2
  2084     0321  2B23               	goto	u2071
  2085     0322  2B24               	goto	u2070
  2086     0323                     u2071:
  2087     0323  2B62               	goto	l2331
  2088     0324                     u2070:
  2089     0324                     l2321:
  2090                           
  2091                           ;C:\Program Files\Microchip\xc8\v2.41\pic\sources\c90\common\doprnt.c: 1465:     ((*sp++
      +                           = ('-')));
  2092     0324  084A               	movf	sprintf@sp,w
  2093     0325  0084               	movwf	4
  2094     0326  302D               	movlw	45
  2095     0327  1383               	bcf	3,7	;select IRP bank0
  2096     0328  0080               	movwf	0
  2097     0329                     l2323:
  2098     0329  3001               	movlw	1
  2099     032A  00FF               	movwf	btemp+1
  2100     032B  087F               	movf	btemp+1,w
  2101     032C  07CA               	addwf	sprintf@sp,f
  2102     032D  2B62               	goto	l2331
  2103     032E                     l2325:
  2104                           
  2105                           ;C:\Program Files\Microchip\xc8\v2.41\pic\sources\c90\common\doprnt.c: 1504:    {;C:\Pro
      +                          gram Files\Microchip\xc8\v2.41\pic\sources\c90\common\doprnt.c: 1515:     c = (val / dpo
      +                          wers[(unsigned char)prec]) % 10 + '0';
  2106     032E  300A               	movlw	10
  2107     032F  00B7               	movwf	___lwmod@divisor
  2108     0330  3000               	movlw	0
  2109     0331  00B8               	movwf	___lwmod@divisor+1
  2110     0332  084B               	movf	sprintf@prec,w
  2111     0333  00C3               	movwf	??_sprintf
  2112     0334  0743               	addwf	??_sprintf,w
  2113     0335  3E01               	addlw	low ((_dpowers-__stringbase)| (0+32768))
  2114     0336  0084               	movwf	4
  2115     0337  120A  158A  2000  120A  118A  	fcall	stringdir
  2116     033C  00B0               	movwf	___lwdiv@divisor
  2117     033D  120A  158A  2000  120A  118A  	fcall	stringdir
  2118     0342  00B1               	movwf	___lwdiv@divisor+1
  2119     0343  0849               	movf	sprintf@val+1,w
  2120     0344  00B3               	movwf	___lwdiv@dividend+1
  2121     0345  0848               	movf	sprintf@val,w
  2122     0346  00B2               	movwf	___lwdiv@dividend
  2123     0347  120A  158A  26B0  120A  118A  	fcall	___lwdiv
  2124     034C  1283               	bcf	3,5	;RP0=0, select bank0
  2125     034D  1303               	bcf	3,6	;RP1=0, select bank0
  2126     034E  0831               	movf	?___lwdiv+1,w
  2127     034F  00BA               	movwf	___lwmod@dividend+1
  2128     0350  0830               	movf	?___lwdiv,w
  2129     0351  00B9               	movwf	___lwmod@dividend
  2130     0352  120A  158A  2674  120A  118A  	fcall	___lwmod
  2131     0357  1283               	bcf	3,5	;RP0=0, select bank0
  2132     0358  1303               	bcf	3,6	;RP1=0, select bank0
  2133     0359  0837               	movf	?___lwmod,w
  2134     035A  3E30               	addlw	48
  2135     035B  00CC               	movwf	sprintf@c
  2136     035C                     l2327:
  2137                           
  2138                           ;C:\Program Files\Microchip\xc8\v2.41\pic\sources\c90\common\doprnt.c: 1549:    };C:\Pro
      +                          gram Files\Microchip\xc8\v2.41\pic\sources\c90\common\doprnt.c: 1550:    ((*sp++ = (c)))
      +                          ;
  2139     035C  084A               	movf	sprintf@sp,w
  2140     035D  0084               	movwf	4
  2141     035E  084C               	movf	sprintf@c,w
  2142     035F  1383               	bcf	3,7	;select IRP bank0
  2143     0360  0080               	movwf	0
  2144     0361  2B29               	goto	l2323
  2145     0362                     l2331:
  2146                           
  2147                           ;C:\Program Files\Microchip\xc8\v2.41\pic\sources\c90\common\doprnt.c: 1500:   while(pre
      +                          c--) {
  2148     0362  30FF               	movlw	255
  2149     0363  00FF               	movwf	btemp+1
  2150     0364  087F               	movf	btemp+1,w
  2151     0365  07CB               	addwf	sprintf@prec,f
  2152     0366  0A4B               	incf	sprintf@prec,w
  2153     0367  1D03               	btfss	3,2
  2154     0368  2B6A               	goto	u2081
  2155     0369  2B6B               	goto	u2080
  2156     036A                     u2081:
  2157     036A  2B2E               	goto	l2325
  2158     036B                     u2080:
  2159     036B                     l2333:
  2160                           
  2161                           ;C:\Program Files\Microchip\xc8\v2.41\pic\sources\c90\common\doprnt.c: 553:  while((c = 
      +                          *f++)) {
  2162     036B  3001               	movlw	1
  2163     036C  07BC               	addwf	sprintf@f,f
  2164     036D  30FF               	movlw	-1
  2165     036E  073C               	addwf	sprintf@f,w
  2166     036F  0084               	movwf	4
  2167     0370  120A  158A  2000  120A  118A  	fcall	stringdir
  2168     0375  00CC               	movwf	sprintf@c
  2169     0376  084C               	movf	sprintf@c,w
  2170     0377  1D03               	btfss	3,2
  2171     0378  2B7A               	goto	u2091
  2172     0379  2B7B               	goto	u2090
  2173     037A                     u2091:
  2174     037A  2A33               	goto	l2253
  2175     037B                     u2090:
  2176     037B                     l2335:
  2177                           
  2178                           ;C:\Program Files\Microchip\xc8\v2.41\pic\sources\c90\common\doprnt.c: 1564:  *sp = 0;
  2179     037B  084A               	movf	sprintf@sp,w
  2180     037C  0084               	movwf	4
  2181     037D  1383               	bcf	3,7	;select IRP bank0
  2182     037E  0180               	clrf	0
  2183     037F                     l400:
  2184     037F  0008               	return
  2185     0380                     __end_of_sprintf:
  2186                           
  2187                           	psect	text2
  2188     0C9B                     __ptext2:	
  2189 ;; *************** function _isdigit *****************
  2190 ;; Defined at:
  2191 ;;		line 8 in file "C:\Program Files\Microchip\xc8\v2.41\pic\sources\c90\common\isdigit.c"
  2192 ;; Parameters:    Size  Location     Type
  2193 ;;  c               1    wreg     unsigned char 
  2194 ;; Auto vars:     Size  Location     Type
  2195 ;;  c               1   17[BANK0 ] unsigned char 
  2196 ;; Return value:  Size  Location     Type
  2197 ;;		None               void
  2198 ;; Registers used:
  2199 ;;		wreg, status,2, status,0
  2200 ;; Tracked objects:
  2201 ;;		On entry : 0/0
  2202 ;;		On exit  : 0/0
  2203 ;;		Unchanged: 0/0
  2204 ;; Data sizes:     COMMON   BANK0   BANK1   BANK3   BANK2
  2205 ;;      Params:         0       0       0       0       0
  2206 ;;      Locals:         0       2       0       0       0
  2207 ;;      Temps:          0       0       0       0       0
  2208 ;;      Totals:         0       2       0       0       0
  2209 ;;Total ram usage:        2 bytes
  2210 ;; Hardware stack levels used: 1
  2211 ;; Hardware stack levels required when called: 4
  2212 ;; This function calls:
  2213 ;;		Nothing
  2214 ;; This function is called by:
  2215 ;;		_sprintf
  2216 ;; This function uses a non-reentrant model
  2217 ;;
  2218                           
  2219     0C9B                     _isdigit:	
  2220                           ;psect for function _isdigit
  2221                           
  2222                           
  2223                           ;incstack = 0
  2224                           ; Regs used in _isdigit: [wreg+status,2+status,0]
  2225                           ;isdigit@c stored from wreg
  2226     0C9B  1283               	bcf	3,5	;RP0=0, select bank0
  2227     0C9C  1303               	bcf	3,6	;RP1=0, select bank0
  2228     0C9D  00B1               	movwf	isdigit@c
  2229     0C9E                     l2037:
  2230     0C9E  01B0               	clrf	_isdigit$878
  2231     0C9F                     l2039:
  2232     0C9F  303A               	movlw	58
  2233     0CA0  0231               	subwf	isdigit@c,w
  2234     0CA1  1803               	skipnc
  2235     0CA2  2CA4               	goto	u1741
  2236     0CA3  2CA5               	goto	u1740
  2237     0CA4                     u1741:
  2238     0CA4  2CAD               	goto	l2045
  2239     0CA5                     u1740:
  2240     0CA5                     l2041:
  2241     0CA5  3030               	movlw	48
  2242     0CA6  0231               	subwf	isdigit@c,w
  2243     0CA7  1C03               	skipc
  2244     0CA8  2CAA               	goto	u1751
  2245     0CA9  2CAB               	goto	u1750
  2246     0CAA                     u1751:
  2247     0CAA  2CAD               	goto	l2045
  2248     0CAB                     u1750:
  2249     0CAB                     l2043:
  2250     0CAB  01B0               	clrf	_isdigit$878
  2251     0CAC  0AB0               	incf	_isdigit$878,f
  2252     0CAD                     l2045:
  2253     0CAD  0C30               	rrf	_isdigit$878,w
  2254     0CAE                     l857:
  2255     0CAE  0008               	return
  2256     0CAF                     __end_of_isdigit:
  2257                           
  2258                           	psect	text3
  2259     0E74                     __ptext3:	
  2260 ;; *************** function ___lwmod *****************
  2261 ;; Defined at:
  2262 ;;		line 5 in file "C:\Program Files\Microchip\xc8\v2.41\pic\sources\c90\common\lwmod.c"
  2263 ;; Parameters:    Size  Location     Type
  2264 ;;  divisor         2   23[BANK0 ] unsigned int 
  2265 ;;  dividend        2   25[BANK0 ] unsigned int 
  2266 ;; Auto vars:     Size  Location     Type
  2267 ;;  counter         1   27[BANK0 ] unsigned char 
  2268 ;; Return value:  Size  Location     Type
  2269 ;;                  2   23[BANK0 ] unsigned int 
  2270 ;; Registers used:
  2271 ;;		wreg, status,2, status,0, btemp+1
  2272 ;; Tracked objects:
  2273 ;;		On entry : 0/0
  2274 ;;		On exit  : 0/0
  2275 ;;		Unchanged: 0/0
  2276 ;; Data sizes:     COMMON   BANK0   BANK1   BANK3   BANK2
  2277 ;;      Params:         0       4       0       0       0
  2278 ;;      Locals:         0       1       0       0       0
  2279 ;;      Temps:          0       0       0       0       0
  2280 ;;      Totals:         0       5       0       0       0
  2281 ;;Total ram usage:        5 bytes
  2282 ;; Hardware stack levels used: 1
  2283 ;; Hardware stack levels required when called: 4
  2284 ;; This function calls:
  2285 ;;		Nothing
  2286 ;; This function is called by:
  2287 ;;		_sprintf
  2288 ;; This function uses a non-reentrant model
  2289 ;;
  2290                           
  2291     0E74                     ___lwmod:	
  2292                           ;psect for function ___lwmod
  2293                           
  2294     0E74                     l2091:	
  2295                           ;incstack = 0
  2296                           ; Regs used in ___lwmod: [wreg+status,2+status,0+btemp+1]
  2297                           
  2298     0E74  1283               	bcf	3,5	;RP0=0, select bank0
  2299     0E75  1303               	bcf	3,6	;RP1=0, select bank0
  2300     0E76  0837               	movf	___lwmod@divisor,w
  2301     0E77  0438               	iorwf	___lwmod@divisor+1,w
  2302     0E78  1903               	btfsc	3,2
  2303     0E79  2E7B               	goto	u1851
  2304     0E7A  2E7C               	goto	u1850
  2305     0E7B                     u1851:
  2306     0E7B  2EAB               	goto	l2109
  2307     0E7C                     u1850:
  2308     0E7C                     l2093:
  2309     0E7C  01BB               	clrf	___lwmod@counter
  2310     0E7D  0ABB               	incf	___lwmod@counter,f
  2311     0E7E  2E8A               	goto	l2099
  2312     0E7F                     l2095:
  2313     0E7F  3001               	movlw	1
  2314     0E80                     u1865:
  2315     0E80  1003               	clrc
  2316     0E81  0DB7               	rlf	___lwmod@divisor,f
  2317     0E82  0DB8               	rlf	___lwmod@divisor+1,f
  2318     0E83  3EFF               	addlw	-1
  2319     0E84  1D03               	skipz
  2320     0E85  2E80               	goto	u1865
  2321     0E86                     l2097:
  2322     0E86  3001               	movlw	1
  2323     0E87  00FF               	movwf	btemp+1
  2324     0E88  087F               	movf	btemp+1,w
  2325     0E89  07BB               	addwf	___lwmod@counter,f
  2326     0E8A                     l2099:
  2327     0E8A  1FB8               	btfss	___lwmod@divisor+1,7
  2328     0E8B  2E8D               	goto	u1871
  2329     0E8C  2E8E               	goto	u1870
  2330     0E8D                     u1871:
  2331     0E8D  2E7F               	goto	l2095
  2332     0E8E                     u1870:
  2333     0E8E                     l2101:
  2334     0E8E  0838               	movf	___lwmod@divisor+1,w
  2335     0E8F  023A               	subwf	___lwmod@dividend+1,w
  2336     0E90  1D03               	skipz
  2337     0E91  2E94               	goto	u1885
  2338     0E92  0837               	movf	___lwmod@divisor,w
  2339     0E93  0239               	subwf	___lwmod@dividend,w
  2340     0E94                     u1885:
  2341     0E94  1C03               	skipc
  2342     0E95  2E97               	goto	u1881
  2343     0E96  2E98               	goto	u1880
  2344     0E97                     u1881:
  2345     0E97  2E9E               	goto	l2105
  2346     0E98                     u1880:
  2347     0E98                     l2103:
  2348     0E98  0837               	movf	___lwmod@divisor,w
  2349     0E99  02B9               	subwf	___lwmod@dividend,f
  2350     0E9A  0838               	movf	___lwmod@divisor+1,w
  2351     0E9B  1C03               	skipc
  2352     0E9C  03BA               	decf	___lwmod@dividend+1,f
  2353     0E9D  02BA               	subwf	___lwmod@dividend+1,f
  2354     0E9E                     l2105:
  2355     0E9E  3001               	movlw	1
  2356     0E9F                     u1895:
  2357     0E9F  1003               	clrc
  2358     0EA0  0CB8               	rrf	___lwmod@divisor+1,f
  2359     0EA1  0CB7               	rrf	___lwmod@divisor,f
  2360     0EA2  3EFF               	addlw	-1
  2361     0EA3  1D03               	skipz
  2362     0EA4  2E9F               	goto	u1895
  2363     0EA5                     l2107:
  2364     0EA5  3001               	movlw	1
  2365     0EA6  02BB               	subwf	___lwmod@counter,f
  2366     0EA7  1D03               	btfss	3,2
  2367     0EA8  2EAA               	goto	u1901
  2368     0EA9  2EAB               	goto	u1900
  2369     0EAA                     u1901:
  2370     0EAA  2E8E               	goto	l2101
  2371     0EAB                     u1900:
  2372     0EAB                     l2109:
  2373     0EAB  083A               	movf	___lwmod@dividend+1,w
  2374     0EAC  00B8               	movwf	?___lwmod+1
  2375     0EAD  0839               	movf	___lwmod@dividend,w
  2376     0EAE  00B7               	movwf	?___lwmod
  2377     0EAF                     l686:
  2378     0EAF  0008               	return
  2379     0EB0                     __end_of___lwmod:
  2380                           
  2381                           	psect	text4
  2382     0EB0                     __ptext4:	
  2383 ;; *************** function ___lwdiv *****************
  2384 ;; Defined at:
  2385 ;;		line 5 in file "C:\Program Files\Microchip\xc8\v2.41\pic\sources\c90\common\lwdiv.c"
  2386 ;; Parameters:    Size  Location     Type
  2387 ;;  divisor         2   16[BANK0 ] unsigned int 
  2388 ;;  dividend        2   18[BANK0 ] unsigned int 
  2389 ;; Auto vars:     Size  Location     Type
  2390 ;;  quotient        2   20[BANK0 ] unsigned int 
  2391 ;;  counter         1   22[BANK0 ] unsigned char 
  2392 ;; Return value:  Size  Location     Type
  2393 ;;                  2   16[BANK0 ] unsigned int 
  2394 ;; Registers used:
  2395 ;;		wreg, status,2, status,0, btemp+1
  2396 ;; Tracked objects:
  2397 ;;		On entry : 0/0
  2398 ;;		On exit  : 0/0
  2399 ;;		Unchanged: 0/0
  2400 ;; Data sizes:     COMMON   BANK0   BANK1   BANK3   BANK2
  2401 ;;      Params:         0       4       0       0       0
  2402 ;;      Locals:         0       3       0       0       0
  2403 ;;      Temps:          0       0       0       0       0
  2404 ;;      Totals:         0       7       0       0       0
  2405 ;;Total ram usage:        7 bytes
  2406 ;; Hardware stack levels used: 1
  2407 ;; Hardware stack levels required when called: 4
  2408 ;; This function calls:
  2409 ;;		Nothing
  2410 ;; This function is called by:
  2411 ;;		_sprintf
  2412 ;; This function uses a non-reentrant model
  2413 ;;
  2414                           
  2415     0EB0                     ___lwdiv:	
  2416                           ;psect for function ___lwdiv
  2417                           
  2418     0EB0                     l2065:	
  2419                           ;incstack = 0
  2420                           ; Regs used in ___lwdiv: [wreg+status,2+status,0+btemp+1]
  2421                           
  2422     0EB0  1283               	bcf	3,5	;RP0=0, select bank0
  2423     0EB1  1303               	bcf	3,6	;RP1=0, select bank0
  2424     0EB2  01B4               	clrf	___lwdiv@quotient
  2425     0EB3  01B5               	clrf	___lwdiv@quotient+1
  2426     0EB4                     l2067:
  2427     0EB4  0830               	movf	___lwdiv@divisor,w
  2428     0EB5  0431               	iorwf	___lwdiv@divisor+1,w
  2429     0EB6  1903               	btfsc	3,2
  2430     0EB7  2EB9               	goto	u1781
  2431     0EB8  2EBA               	goto	u1780
  2432     0EB9                     u1781:
  2433     0EB9  2EF1               	goto	l2087
  2434     0EBA                     u1780:
  2435     0EBA                     l2069:
  2436     0EBA  01B6               	clrf	___lwdiv@counter
  2437     0EBB  0AB6               	incf	___lwdiv@counter,f
  2438     0EBC  2EC8               	goto	l2075
  2439     0EBD                     l2071:
  2440     0EBD  3001               	movlw	1
  2441     0EBE                     u1795:
  2442     0EBE  1003               	clrc
  2443     0EBF  0DB0               	rlf	___lwdiv@divisor,f
  2444     0EC0  0DB1               	rlf	___lwdiv@divisor+1,f
  2445     0EC1  3EFF               	addlw	-1
  2446     0EC2  1D03               	skipz
  2447     0EC3  2EBE               	goto	u1795
  2448     0EC4                     l2073:
  2449     0EC4  3001               	movlw	1
  2450     0EC5  00FF               	movwf	btemp+1
  2451     0EC6  087F               	movf	btemp+1,w
  2452     0EC7  07B6               	addwf	___lwdiv@counter,f
  2453     0EC8                     l2075:
  2454     0EC8  1FB1               	btfss	___lwdiv@divisor+1,7
  2455     0EC9  2ECB               	goto	u1801
  2456     0ECA  2ECC               	goto	u1800
  2457     0ECB                     u1801:
  2458     0ECB  2EBD               	goto	l2071
  2459     0ECC                     u1800:
  2460     0ECC                     l2077:
  2461     0ECC  3001               	movlw	1
  2462     0ECD                     u1815:
  2463     0ECD  1003               	clrc
  2464     0ECE  0DB4               	rlf	___lwdiv@quotient,f
  2465     0ECF  0DB5               	rlf	___lwdiv@quotient+1,f
  2466     0ED0  3EFF               	addlw	-1
  2467     0ED1  1D03               	skipz
  2468     0ED2  2ECD               	goto	u1815
  2469     0ED3  0831               	movf	___lwdiv@divisor+1,w
  2470     0ED4  0233               	subwf	___lwdiv@dividend+1,w
  2471     0ED5  1D03               	skipz
  2472     0ED6  2ED9               	goto	u1825
  2473     0ED7  0830               	movf	___lwdiv@divisor,w
  2474     0ED8  0232               	subwf	___lwdiv@dividend,w
  2475     0ED9                     u1825:
  2476     0ED9  1C03               	skipc
  2477     0EDA  2EDC               	goto	u1821
  2478     0EDB  2EDD               	goto	u1820
  2479     0EDC                     u1821:
  2480     0EDC  2EE4               	goto	l2083
  2481     0EDD                     u1820:
  2482     0EDD                     l2079:
  2483     0EDD  0830               	movf	___lwdiv@divisor,w
  2484     0EDE  02B2               	subwf	___lwdiv@dividend,f
  2485     0EDF  0831               	movf	___lwdiv@divisor+1,w
  2486     0EE0  1C03               	skipc
  2487     0EE1  03B3               	decf	___lwdiv@dividend+1,f
  2488     0EE2  02B3               	subwf	___lwdiv@dividend+1,f
  2489     0EE3                     l2081:
  2490     0EE3  1434               	bsf	___lwdiv@quotient,0
  2491     0EE4                     l2083:
  2492     0EE4  3001               	movlw	1
  2493     0EE5                     u1835:
  2494     0EE5  1003               	clrc
  2495     0EE6  0CB1               	rrf	___lwdiv@divisor+1,f
  2496     0EE7  0CB0               	rrf	___lwdiv@divisor,f
  2497     0EE8  3EFF               	addlw	-1
  2498     0EE9  1D03               	skipz
  2499     0EEA  2EE5               	goto	u1835
  2500     0EEB                     l2085:
  2501     0EEB  3001               	movlw	1
  2502     0EEC  02B6               	subwf	___lwdiv@counter,f
  2503     0EED  1D03               	btfss	3,2
  2504     0EEE  2EF0               	goto	u1841
  2505     0EEF  2EF1               	goto	u1840
  2506     0EF0                     u1841:
  2507     0EF0  2ECC               	goto	l2077
  2508     0EF1                     u1840:
  2509     0EF1                     l2087:
  2510     0EF1  0835               	movf	___lwdiv@quotient+1,w
  2511     0EF2  00B1               	movwf	?___lwdiv+1
  2512     0EF3  0834               	movf	___lwdiv@quotient,w
  2513     0EF4  00B0               	movwf	?___lwdiv
  2514     0EF5                     l676:
  2515     0EF5  0008               	return
  2516     0EF6                     __end_of___lwdiv:
  2517                           
  2518                           	psect	text5
  2519     07BE                     __ptext5:	
  2520 ;; *************** function _setup *****************
  2521 ;; Defined at:
  2522 ;;		line 219 in file "E:/Universidad/Semestre2_2023/Digital-2/Lab4/Lab4_Master.X/Lab4_Master.c"
  2523 ;; Parameters:    Size  Location     Type
  2524 ;;		None
  2525 ;; Auto vars:     Size  Location     Type
  2526 ;;		None
  2527 ;; Return value:  Size  Location     Type
  2528 ;;                  1    wreg      void 
  2529 ;; Registers used:
  2530 ;;		wreg, status,2, status,0, btemp+1, pclath, cstack
  2531 ;; Tracked objects:
  2532 ;;		On entry : 0/0
  2533 ;;		On exit  : 0/0
  2534 ;;		Unchanged: 0/0
  2535 ;; Data sizes:     COMMON   BANK0   BANK1   BANK3   BANK2
  2536 ;;      Params:         0       0       0       0       0
  2537 ;;      Locals:         0       0       0       0       0
  2538 ;;      Temps:          0       0       0       0       0
  2539 ;;      Totals:         0       0       0       0       0
  2540 ;;Total ram usage:        0 bytes
  2541 ;; Hardware stack levels used: 1
  2542 ;; Hardware stack levels required when called: 7
  2543 ;; This function calls:
  2544 ;;		_I2C_Master_Init
  2545 ;;		_Lcd_Init
  2546 ;;		_configOsc
  2547 ;; This function is called by:
  2548 ;;		_main
  2549 ;; This function uses a non-reentrant model
  2550 ;;
  2551                           
  2552     07BE                     _setup:	
  2553                           ;psect for function _setup
  2554                           
  2555     07BE                     l2193:	
  2556                           ;incstack = 0
  2557                           ; Regs used in _setup: [wreg+status,2+status,0+btemp+1+pclath+cstack]
  2558                           
  2559                           
  2560                           ;E:/Universidad/Semestre2_2023/Digital-2/Lab4/Lab4_Master.X/Lab4_Master.c: 220:     conf
      +                          igOsc(8);
  2561     07BE  3008               	movlw	8
  2562     07BF  1283               	bcf	3,5	;RP0=0, select bank0
  2563     07C0  1303               	bcf	3,6	;RP1=0, select bank0
  2564     07C1  00B0               	movwf	configOsc@frec
  2565     07C2  3000               	movlw	0
  2566     07C3  00B1               	movwf	configOsc@frec+1
  2567     07C4  120A  118A  275A  120A  118A  	fcall	_configOsc
  2568     07C9                     l2195:
  2569                           
  2570                           ;E:/Universidad/Semestre2_2023/Digital-2/Lab4/Lab4_Master.X/Lab4_Master.c: 221:     ANSE
      +                          L = 0;
  2571     07C9  1683               	bsf	3,5	;RP0=1, select bank3
  2572     07CA  1703               	bsf	3,6	;RP1=1, select bank3
  2573     07CB  0188               	clrf	8	;volatile
  2574     07CC                     l2197:
  2575                           
  2576                           ;E:/Universidad/Semestre2_2023/Digital-2/Lab4/Lab4_Master.X/Lab4_Master.c: 222:     ANSE
      +                          LH = 0;
  2577     07CC  0189               	clrf	9	;volatile
  2578     07CD                     l2199:
  2579                           
  2580                           ;E:/Universidad/Semestre2_2023/Digital-2/Lab4/Lab4_Master.X/Lab4_Master.c: 224:     TRIS
      +                          A = 0;
  2581     07CD  1683               	bsf	3,5	;RP0=1, select bank1
  2582     07CE  1303               	bcf	3,6	;RP1=0, select bank1
  2583     07CF  0185               	clrf	5	;volatile
  2584     07D0                     l2201:
  2585                           
  2586                           ;E:/Universidad/Semestre2_2023/Digital-2/Lab4/Lab4_Master.X/Lab4_Master.c: 226:     TRIS
      +                          B = 0b00000111;
  2587     07D0  3007               	movlw	7
  2588     07D1  0086               	movwf	6	;volatile
  2589     07D2                     l2203:
  2590                           
  2591                           ;E:/Universidad/Semestre2_2023/Digital-2/Lab4/Lab4_Master.X/Lab4_Master.c: 227:     TRIS
      +                          C = 128;
  2592     07D2  3080               	movlw	128
  2593     07D3  0087               	movwf	7	;volatile
  2594     07D4                     l2205:
  2595                           
  2596                           ;E:/Universidad/Semestre2_2023/Digital-2/Lab4/Lab4_Master.X/Lab4_Master.c: 228:     TRIS
      +                          D = 0;
  2597     07D4  0188               	clrf	8	;volatile
  2598     07D5                     l2207:
  2599                           
  2600                           ;E:/Universidad/Semestre2_2023/Digital-2/Lab4/Lab4_Master.X/Lab4_Master.c: 230:     PORT
      +                          A = 0;
  2601     07D5  1283               	bcf	3,5	;RP0=0, select bank0
  2602     07D6  1303               	bcf	3,6	;RP1=0, select bank0
  2603     07D7  0185               	clrf	5	;volatile
  2604     07D8                     l2209:
  2605                           
  2606                           ;E:/Universidad/Semestre2_2023/Digital-2/Lab4/Lab4_Master.X/Lab4_Master.c: 231:     PORT
      +                          B = 0;
  2607     07D8  0186               	clrf	6	;volatile
  2608     07D9                     l2211:
  2609                           
  2610                           ;E:/Universidad/Semestre2_2023/Digital-2/Lab4/Lab4_Master.X/Lab4_Master.c: 232:     PORT
      +                          C = 0;
  2611     07D9  0187               	clrf	7	;volatile
  2612     07DA                     l2213:
  2613                           
  2614                           ;E:/Universidad/Semestre2_2023/Digital-2/Lab4/Lab4_Master.X/Lab4_Master.c: 233:     PORT
      +                          D = 0;
  2615     07DA  0188               	clrf	8	;volatile
  2616     07DB                     l2215:
  2617                           
  2618                           ;E:/Universidad/Semestre2_2023/Digital-2/Lab4/Lab4_Master.X/Lab4_Master.c: 234:     I2C_
      +                          Master_Init(100000);
  2619     07DB  3000               	movlw	0
  2620     07DC  00C1               	movwf	I2C_Master_Init@c+3
  2621     07DD  3001               	movlw	1
  2622     07DE  00C0               	movwf	I2C_Master_Init@c+2
  2623     07DF  3086               	movlw	134
  2624     07E0  00BF               	movwf	I2C_Master_Init@c+1
  2625     07E1  30A0               	movlw	160
  2626     07E2  00BE               	movwf	I2C_Master_Init@c
  2627     07E3  120A  158A  25FE  120A  118A  	fcall	_I2C_Master_Init
  2628     07E8                     l2217:
  2629                           
  2630                           ;E:/Universidad/Semestre2_2023/Digital-2/Lab4/Lab4_Master.X/Lab4_Master.c: 235:     Lcd_
      +                          Init();
  2631     07E8  120A  158A  26F6  120A  118A  	fcall	_Lcd_Init
  2632     07ED                     l2219:
  2633                           
  2634                           ;E:/Universidad/Semestre2_2023/Digital-2/Lab4/Lab4_Master.X/Lab4_Master.c: 237:     INTC
      +                          ONbits.GIE = 1;
  2635     07ED  178B               	bsf	11,7	;volatile
  2636     07EE                     l2221:
  2637                           
  2638                           ;E:/Universidad/Semestre2_2023/Digital-2/Lab4/Lab4_Master.X/Lab4_Master.c: 238:     INTC
      +                          ONbits.PEIE = 1;
  2639     07EE  170B               	bsf	11,6	;volatile
  2640     07EF                     l2223:
  2641                           
  2642                           ;E:/Universidad/Semestre2_2023/Digital-2/Lab4/Lab4_Master.X/Lab4_Master.c: 239:     INTC
      +                          ONbits.RBIF = 0;
  2643     07EF  100B               	bcf	11,0	;volatile
  2644     07F0                     l2225:
  2645                           
  2646                           ;E:/Universidad/Semestre2_2023/Digital-2/Lab4/Lab4_Master.X/Lab4_Master.c: 240:     INTC
      +                          ONbits.RBIE = 1;
  2647     07F0  158B               	bsf	11,3	;volatile
  2648     07F1                     l2227:
  2649                           
  2650                           ;E:/Universidad/Semestre2_2023/Digital-2/Lab4/Lab4_Master.X/Lab4_Master.c: 243:     IOCB
      +                          bits.IOCB0 = 1;
  2651     07F1  1683               	bsf	3,5	;RP0=1, select bank1
  2652     07F2  1303               	bcf	3,6	;RP1=0, select bank1
  2653     07F3  1416               	bsf	22,0	;volatile
  2654     07F4                     l2229:
  2655                           
  2656                           ;E:/Universidad/Semestre2_2023/Digital-2/Lab4/Lab4_Master.X/Lab4_Master.c: 244:     IOCB
      +                          bits.IOCB1 = 1;
  2657     07F4  1496               	bsf	22,1	;volatile
  2658     07F5                     l2231:
  2659                           
  2660                           ;E:/Universidad/Semestre2_2023/Digital-2/Lab4/Lab4_Master.X/Lab4_Master.c: 245:     IOCB
      +                          bits.IOCB2 = 1;
  2661     07F5  1516               	bsf	22,2	;volatile
  2662     07F6                     l2233:
  2663                           
  2664                           ;E:/Universidad/Semestre2_2023/Digital-2/Lab4/Lab4_Master.X/Lab4_Master.c: 247:     OPTI
      +                          ON_REGbits.nRBPU = 0;
  2665     07F6  1381               	bcf	1,7	;volatile
  2666     07F7                     l2235:
  2667                           
  2668                           ;E:/Universidad/Semestre2_2023/Digital-2/Lab4/Lab4_Master.X/Lab4_Master.c: 249:     WPUB
      +                          bits.WPUB0 = 1;
  2669     07F7  1415               	bsf	21,0	;volatile
  2670     07F8                     l2237:
  2671                           
  2672                           ;E:/Universidad/Semestre2_2023/Digital-2/Lab4/Lab4_Master.X/Lab4_Master.c: 250:     WPUB
      +                          bits.WPUB1 = 1;
  2673     07F8  1495               	bsf	21,1	;volatile
  2674     07F9                     l2239:
  2675                           
  2676                           ;E:/Universidad/Semestre2_2023/Digital-2/Lab4/Lab4_Master.X/Lab4_Master.c: 251:     WPUB
      +                          bits.WPUB2 = 1;
  2677     07F9  1515               	bsf	21,2	;volatile
  2678     07FA                     l267:
  2679     07FA  0008               	return
  2680     07FB                     __end_of_setup:
  2681                           
  2682                           	psect	text6
  2683     075A                     __ptext6:	
  2684 ;; *************** function _configOsc *****************
  2685 ;; Defined at:
  2686 ;;		line 4 in file "oscillator.c"
  2687 ;; Parameters:    Size  Location     Type
  2688 ;;  frec            2   16[BANK0 ] unsigned int 
  2689 ;; Auto vars:     Size  Location     Type
  2690 ;;		None
  2691 ;; Return value:  Size  Location     Type
  2692 ;;                  1    wreg      void 
  2693 ;; Registers used:
  2694 ;;		wreg, status,2, status,0
  2695 ;; Tracked objects:
  2696 ;;		On entry : 0/0
  2697 ;;		On exit  : 0/0
  2698 ;;		Unchanged: 0/0
  2699 ;; Data sizes:     COMMON   BANK0   BANK1   BANK3   BANK2
  2700 ;;      Params:         0       2       0       0       0
  2701 ;;      Locals:         0       0       0       0       0
  2702 ;;      Temps:          0       0       0       0       0
  2703 ;;      Totals:         0       2       0       0       0
  2704 ;;Total ram usage:        2 bytes
  2705 ;; Hardware stack levels used: 1
  2706 ;; Hardware stack levels required when called: 4
  2707 ;; This function calls:
  2708 ;;		Nothing
  2709 ;; This function is called by:
  2710 ;;		_setup
  2711 ;; This function uses a non-reentrant model
  2712 ;;
  2713                           
  2714     075A                     _configOsc:	
  2715                           ;psect for function _configOsc
  2716                           
  2717     075A                     l1987:	
  2718                           ;incstack = 0
  2719                           ; Regs used in _configOsc: [wreg+status,2+status,0]
  2720                           
  2721                           
  2722                           ;oscillator.c: 5:         if (frec == 8) OSCCONbits.IRCF = 0b111;
  2723     075A  3008               	movlw	8
  2724     075B  1283               	bcf	3,5	;RP0=0, select bank0
  2725     075C  1303               	bcf	3,6	;RP1=0, select bank0
  2726     075D  0630               	xorwf	configOsc@frec,w
  2727     075E  0431               	iorwf	configOsc@frec+1,w
  2728     075F  1D03               	btfss	3,2
  2729     0760  2F62               	goto	u1651
  2730     0761  2F63               	goto	u1650
  2731     0762                     u1651:
  2732     0762  2F67               	goto	l78
  2733     0763                     u1650:
  2734     0763                     l1989:
  2735     0763  3070               	movlw	112
  2736     0764  1683               	bsf	3,5	;RP0=1, select bank1
  2737     0765  1303               	bcf	3,6	;RP1=0, select bank1
  2738     0766  048F               	iorwf	15,f	;volatile
  2739     0767                     l78:
  2740                           
  2741                           ;oscillator.c: 6:         if (frec == 4) OSCCONbits.IRCF = 0b110;
  2742     0767  3004               	movlw	4
  2743     0768  1283               	bcf	3,5	;RP0=0, select bank0
  2744     0769  0630               	xorwf	configOsc@frec,w
  2745     076A  0431               	iorwf	configOsc@frec+1,w
  2746     076B  1D03               	btfss	3,2
  2747     076C  2F6E               	goto	u1661
  2748     076D  2F6F               	goto	u1660
  2749     076E                     u1661:
  2750     076E  2F75               	goto	l79
  2751     076F                     u1660:
  2752     076F                     l1991:
  2753     076F  1683               	bsf	3,5	;RP0=1, select bank1
  2754     0770  1303               	bcf	3,6	;RP1=0, select bank1
  2755     0771  080F               	movf	15,w	;volatile
  2756     0772  398F               	andlw	-113
  2757     0773  3860               	iorlw	96
  2758     0774  008F               	movwf	15	;volatile
  2759     0775                     l79:
  2760                           
  2761                           ;oscillator.c: 7:         if (frec == 1) OSCCONbits.IRCF = 0b100;
  2762     0775  1283               	bcf	3,5	;RP0=0, select bank0
  2763     0776  0330               	decf	configOsc@frec,w
  2764     0777  0431               	iorwf	configOsc@frec+1,w
  2765     0778  1D03               	btfss	3,2
  2766     0779  2F7B               	goto	u1671
  2767     077A  2F7C               	goto	u1670
  2768     077B                     u1671:
  2769     077B  2F82               	goto	l80
  2770     077C                     u1670:
  2771     077C                     l1993:
  2772     077C  1683               	bsf	3,5	;RP0=1, select bank1
  2773     077D  1303               	bcf	3,6	;RP1=0, select bank1
  2774     077E  080F               	movf	15,w	;volatile
  2775     077F  398F               	andlw	-113
  2776     0780  3840               	iorlw	64
  2777     0781  008F               	movwf	15	;volatile
  2778     0782                     l80:
  2779                           
  2780                           ;oscillator.c: 8:         if (frec == 500) OSCCONbits.IRCF = 0b011;
  2781     0782  30F4               	movlw	244
  2782     0783  1283               	bcf	3,5	;RP0=0, select bank0
  2783     0784  0630               	xorwf	configOsc@frec,w
  2784     0785  1D03               	skipz
  2785     0786  2F8B               	goto	u1681
  2786     0787  0331               	decf	configOsc@frec+1,w
  2787     0788  1D03               	btfss	3,2
  2788     0789  2F8B               	goto	u1681
  2789     078A  2F8C               	goto	u1680
  2790     078B                     u1681:
  2791     078B  2F92               	goto	l81
  2792     078C                     u1680:
  2793     078C                     l1995:
  2794     078C  1683               	bsf	3,5	;RP0=1, select bank1
  2795     078D  1303               	bcf	3,6	;RP1=0, select bank1
  2796     078E  080F               	movf	15,w	;volatile
  2797     078F  398F               	andlw	-113
  2798     0790  3830               	iorlw	48
  2799     0791  008F               	movwf	15	;volatile
  2800     0792                     l81:
  2801                           
  2802                           ;oscillator.c: 9:         if (frec == 250) OSCCONbits.IRCF = 0b101;
  2803     0792  30FA               	movlw	250
  2804     0793  1283               	bcf	3,5	;RP0=0, select bank0
  2805     0794  0630               	xorwf	configOsc@frec,w
  2806     0795  0431               	iorwf	configOsc@frec+1,w
  2807     0796  1D03               	btfss	3,2
  2808     0797  2F99               	goto	u1691
  2809     0798  2F9A               	goto	u1690
  2810     0799                     u1691:
  2811     0799  2FA0               	goto	l82
  2812     079A                     u1690:
  2813     079A                     l1997:
  2814     079A  1683               	bsf	3,5	;RP0=1, select bank1
  2815     079B  1303               	bcf	3,6	;RP1=0, select bank1
  2816     079C  080F               	movf	15,w	;volatile
  2817     079D  398F               	andlw	-113
  2818     079E  3850               	iorlw	80
  2819     079F  008F               	movwf	15	;volatile
  2820     07A0                     l82:
  2821                           
  2822                           ;oscillator.c: 10:         if (frec == 125) OSCCONbits.IRCF = 0b001;
  2823     07A0  307D               	movlw	125
  2824     07A1  1283               	bcf	3,5	;RP0=0, select bank0
  2825     07A2  0630               	xorwf	configOsc@frec,w
  2826     07A3  0431               	iorwf	configOsc@frec+1,w
  2827     07A4  1D03               	btfss	3,2
  2828     07A5  2FA7               	goto	u1701
  2829     07A6  2FA8               	goto	u1700
  2830     07A7                     u1701:
  2831     07A7  2FAE               	goto	l83
  2832     07A8                     u1700:
  2833     07A8                     l1999:
  2834     07A8  1683               	bsf	3,5	;RP0=1, select bank1
  2835     07A9  1303               	bcf	3,6	;RP1=0, select bank1
  2836     07AA  080F               	movf	15,w	;volatile
  2837     07AB  398F               	andlw	-113
  2838     07AC  3810               	iorlw	16
  2839     07AD  008F               	movwf	15	;volatile
  2840     07AE                     l83:
  2841                           
  2842                           ;oscillator.c: 11:         if (frec == 31) OSCCONbits.IRCF = 0b000;
  2843     07AE  301F               	movlw	31
  2844     07AF  1283               	bcf	3,5	;RP0=0, select bank0
  2845     07B0  0630               	xorwf	configOsc@frec,w
  2846     07B1  0431               	iorwf	configOsc@frec+1,w
  2847     07B2  1D03               	btfss	3,2
  2848     07B3  2FB5               	goto	u1711
  2849     07B4  2FB6               	goto	u1710
  2850     07B5                     u1711:
  2851     07B5  2FBA               	goto	l2003
  2852     07B6                     u1710:
  2853     07B6                     l2001:
  2854     07B6  308F               	movlw	-113
  2855     07B7  1683               	bsf	3,5	;RP0=1, select bank1
  2856     07B8  1303               	bcf	3,6	;RP1=0, select bank1
  2857     07B9  058F               	andwf	15,f	;volatile
  2858     07BA                     l2003:
  2859                           
  2860                           ;oscillator.c: 12:         OSCCONbits.SCS = 1;
  2861     07BA  1683               	bsf	3,5	;RP0=1, select bank1
  2862     07BB  1303               	bcf	3,6	;RP1=0, select bank1
  2863     07BC  140F               	bsf	15,0	;volatile
  2864     07BD                     l85:
  2865     07BD  0008               	return
  2866     07BE                     __end_of_configOsc:
  2867                           
  2868                           	psect	text7
  2869     0EF6                     __ptext7:	
  2870 ;; *************** function _Lcd_Init *****************
  2871 ;; Defined at:
  2872 ;;		line 80 in file "lcd.c"
  2873 ;; Parameters:    Size  Location     Type
  2874 ;;		None
  2875 ;; Auto vars:     Size  Location     Type
  2876 ;;		None
  2877 ;; Return value:  Size  Location     Type
  2878 ;;                  1    wreg      void 
  2879 ;; Registers used:
  2880 ;;		wreg, status,2, status,0, pclath, cstack
  2881 ;; Tracked objects:
  2882 ;;		On entry : 0/0
  2883 ;;		On exit  : 0/0
  2884 ;;		Unchanged: 0/0
  2885 ;; Data sizes:     COMMON   BANK0   BANK1   BANK3   BANK2
  2886 ;;      Params:         0       0       0       0       0
  2887 ;;      Locals:         0       0       0       0       0
  2888 ;;      Temps:          0       2       0       0       0
  2889 ;;      Totals:         0       2       0       0       0
  2890 ;;Total ram usage:        2 bytes
  2891 ;; Hardware stack levels used: 1
  2892 ;; Hardware stack levels required when called: 6
  2893 ;; This function calls:
  2894 ;;		_Lcd_Cmd
  2895 ;;		_Lcd_Port
  2896 ;; This function is called by:
  2897 ;;		_setup
  2898 ;; This function uses a non-reentrant model
  2899 ;;
  2900                           
  2901     0EF6                     _Lcd_Init:	
  2902                           ;psect for function _Lcd_Init
  2903                           
  2904     0EF6                     l1967:	
  2905                           ;incstack = 0
  2906                           ; Regs used in _Lcd_Init: [wreg+status,2+status,0+pclath+cstack]
  2907                           
  2908                           
  2909                           ;lcd.c: 81:     Lcd_Port(0);
  2910     0EF6  3000               	movlw	0
  2911     0EF7  120A  158A  2638  120A  158A  	fcall	_Lcd_Port
  2912     0EFC                     l1969:
  2913                           
  2914                           ;lcd.c: 82:     _delay((unsigned long)((20)*(8000000/4000.0)));
  2915     0EFC  3034               	movlw	52
  2916     0EFD  1283               	bcf	3,5	;RP0=0, select bank0
  2917     0EFE  1303               	bcf	3,6	;RP1=0, select bank0
  2918     0EFF  00B5               	movwf	??_Lcd_Init+1
  2919     0F00  30F1               	movlw	241
  2920     0F01  00B4               	movwf	??_Lcd_Init
  2921     0F02                     u2197:
  2922     0F02  0BB4               	decfsz	??_Lcd_Init,f
  2923     0F03  2F02               	goto	u2197
  2924     0F04  0BB5               	decfsz	??_Lcd_Init+1,f
  2925     0F05  2F02               	goto	u2197
  2926     0F06                     l1971:
  2927                           
  2928                           ;lcd.c: 83:     Lcd_Cmd(48);
  2929     0F06  3030               	movlw	48
  2930     0F07  120A  158A  24DE  120A  158A  	fcall	_Lcd_Cmd
  2931                           
  2932                           ;lcd.c: 84:     _delay((unsigned long)((5)*(8000000/4000.0)));
  2933     0F0C  300D               	movlw	13
  2934     0F0D  1283               	bcf	3,5	;RP0=0, select bank0
  2935     0F0E  1303               	bcf	3,6	;RP1=0, select bank0
  2936     0F0F  00B5               	movwf	??_Lcd_Init+1
  2937     0F10  30FB               	movlw	251
  2938     0F11  00B4               	movwf	??_Lcd_Init
  2939     0F12                     u2207:
  2940     0F12  0BB4               	decfsz	??_Lcd_Init,f
  2941     0F13  2F12               	goto	u2207
  2942     0F14  0BB5               	decfsz	??_Lcd_Init+1,f
  2943     0F15  2F12               	goto	u2207
  2944     0F16                     l1973:
  2945                           
  2946                           ;lcd.c: 85:     Lcd_Cmd(48);
  2947     0F16  3030               	movlw	48
  2948     0F17  120A  158A  24DE  120A  158A  	fcall	_Lcd_Cmd
  2949     0F1C                     l1975:
  2950                           
  2951                           ;lcd.c: 86:     _delay((unsigned long)((11)*(8000000/4000.0)));
  2952     0F1C  301D               	movlw	29
  2953     0F1D  1283               	bcf	3,5	;RP0=0, select bank0
  2954     0F1E  1303               	bcf	3,6	;RP1=0, select bank0
  2955     0F1F  00B5               	movwf	??_Lcd_Init+1
  2956     0F20  3090               	movlw	144
  2957     0F21  00B4               	movwf	??_Lcd_Init
  2958     0F22                     u2217:
  2959     0F22  0BB4               	decfsz	??_Lcd_Init,f
  2960     0F23  2F22               	goto	u2217
  2961     0F24  0BB5               	decfsz	??_Lcd_Init+1,f
  2962     0F25  2F22               	goto	u2217
  2963     0F26  0000               	nop
  2964                           
  2965                           ;lcd.c: 87:     Lcd_Cmd(48);
  2966     0F27  3030               	movlw	48
  2967     0F28  120A  158A  24DE  120A  158A  	fcall	_Lcd_Cmd
  2968                           
  2969                           ;lcd.c: 89:     Lcd_Cmd(56);
  2970     0F2D  3038               	movlw	56
  2971     0F2E  120A  158A  24DE  120A  158A  	fcall	_Lcd_Cmd
  2972                           
  2973                           ;lcd.c: 90:     Lcd_Cmd(8);
  2974     0F33  3008               	movlw	8
  2975     0F34  120A  158A  24DE  120A  158A  	fcall	_Lcd_Cmd
  2976                           
  2977                           ;lcd.c: 91:     Lcd_Cmd(1);
  2978     0F39  3001               	movlw	1
  2979     0F3A  120A  158A  24DE  120A  158A  	fcall	_Lcd_Cmd
  2980                           
  2981                           ;lcd.c: 92:     Lcd_Cmd(6);
  2982     0F3F  3006               	movlw	6
  2983     0F40  120A  158A  24DE  120A  158A  	fcall	_Lcd_Cmd
  2984                           
  2985                           ;lcd.c: 93:     Lcd_Cmd(12);
  2986     0F45  300C               	movlw	12
  2987     0F46  120A  158A  24DE  120A  158A  	fcall	_Lcd_Cmd
  2988     0F4B                     l58:
  2989     0F4B  0008               	return
  2990     0F4C                     __end_of_Lcd_Init:
  2991                           
  2992                           	psect	text8
  2993     0DFE                     __ptext8:	
  2994 ;; *************** function _I2C_Master_Init *****************
  2995 ;; Defined at:
  2996 ;;		line 16 in file "I2C.c"
  2997 ;; Parameters:    Size  Location     Type
  2998 ;;  c               4   30[BANK0 ] const unsigned long 
  2999 ;; Auto vars:     Size  Location     Type
  3000 ;;		None
  3001 ;; Return value:  Size  Location     Type
  3002 ;;                  1    wreg      void 
  3003 ;; Registers used:
  3004 ;;		wreg, status,2, status,0, btemp+1, pclath, cstack
  3005 ;; Tracked objects:
  3006 ;;		On entry : 0/0
  3007 ;;		On exit  : 0/0
  3008 ;;		Unchanged: 0/0
  3009 ;; Data sizes:     COMMON   BANK0   BANK1   BANK3   BANK2
  3010 ;;      Params:         0       4       0       0       0
  3011 ;;      Locals:         0       0       0       0       0
  3012 ;;      Temps:          0       4       0       0       0
  3013 ;;      Totals:         0       8       0       0       0
  3014 ;;Total ram usage:        8 bytes
  3015 ;; Hardware stack levels used: 1
  3016 ;; Hardware stack levels required when called: 5
  3017 ;; This function calls:
  3018 ;;		___lldiv
  3019 ;; This function is called by:
  3020 ;;		_setup
  3021 ;; This function uses a non-reentrant model
  3022 ;;
  3023                           
  3024     0DFE                     _I2C_Master_Init:	
  3025                           ;psect for function _I2C_Master_Init
  3026                           
  3027     0DFE                     l2005:	
  3028                           ;incstack = 0
  3029                           ; Regs used in _I2C_Master_Init: [wreg+status,2+status,0+btemp+1+pclath+cstack]
  3030                           
  3031                           
  3032                           ;I2C.c: 16: void I2C_Master_Init(const unsigned long c);I2C.c: 17: {;I2C.c: 18:     SSPC
      +                          ON = 0b00101000;
  3033     0DFE  3028               	movlw	40
  3034     0DFF  1283               	bcf	3,5	;RP0=0, select bank0
  3035     0E00  1303               	bcf	3,6	;RP1=0, select bank0
  3036     0E01  0094               	movwf	20	;volatile
  3037     0E02                     l2007:
  3038                           
  3039                           ;I2C.c: 19:     SSPCON2 = 0;
  3040     0E02  1683               	bsf	3,5	;RP0=1, select bank1
  3041     0E03  1303               	bcf	3,6	;RP1=0, select bank1
  3042     0E04  0191               	clrf	17	;volatile
  3043     0E05                     l2009:
  3044                           
  3045                           ;I2C.c: 20:     SSPADD = (8000000/(4*c))-1;
  3046     0E05  1283               	bcf	3,5	;RP0=0, select bank0
  3047     0E06  1303               	bcf	3,6	;RP1=0, select bank0
  3048     0E07  083E               	movf	I2C_Master_Init@c,w
  3049     0E08  00C2               	movwf	??_I2C_Master_Init
  3050     0E09  083F               	movf	I2C_Master_Init@c+1,w
  3051     0E0A  00C3               	movwf	??_I2C_Master_Init+1
  3052     0E0B  0840               	movf	I2C_Master_Init@c+2,w
  3053     0E0C  00C4               	movwf	??_I2C_Master_Init+2
  3054     0E0D  0841               	movf	I2C_Master_Init@c+3,w
  3055     0E0E  00C5               	movwf	??_I2C_Master_Init+3
  3056     0E0F  3002               	movlw	2
  3057     0E10                     u1725:
  3058     0E10  1003               	clrc
  3059     0E11  0DC2               	rlf	??_I2C_Master_Init,f
  3060     0E12  0DC3               	rlf	??_I2C_Master_Init+1,f
  3061     0E13  0DC4               	rlf	??_I2C_Master_Init+2,f
  3062     0E14  0DC5               	rlf	??_I2C_Master_Init+3,f
  3063     0E15                     u1720:
  3064     0E15  3EFF               	addlw	-1
  3065     0E16  1D03               	skipz
  3066     0E17  2E10               	goto	u1725
  3067     0E18  0845               	movf	??_I2C_Master_Init+3,w
  3068     0E19  00B3               	movwf	___lldiv@divisor+3
  3069     0E1A  0844               	movf	??_I2C_Master_Init+2,w
  3070     0E1B  00B2               	movwf	___lldiv@divisor+2
  3071     0E1C  0843               	movf	??_I2C_Master_Init+1,w
  3072     0E1D  00B1               	movwf	___lldiv@divisor+1
  3073     0E1E  0842               	movf	??_I2C_Master_Init,w
  3074     0E1F  00B0               	movwf	___lldiv@divisor
  3075     0E20  3000               	movlw	0
  3076     0E21  00B7               	movwf	___lldiv@dividend+3
  3077     0E22  307A               	movlw	122
  3078     0E23  00B6               	movwf	___lldiv@dividend+2
  3079     0E24  3012               	movlw	18
  3080     0E25  00B5               	movwf	___lldiv@dividend+1
  3081     0E26  3000               	movlw	0
  3082     0E27  00B4               	movwf	___lldiv@dividend
  3083     0E28  120A  118A  268B  120A  158A  	fcall	___lldiv
  3084     0E2D  1283               	bcf	3,5	;RP0=0, select bank0
  3085     0E2E  1303               	bcf	3,6	;RP1=0, select bank0
  3086     0E2F  0830               	movf	?___lldiv,w
  3087     0E30  3EFF               	addlw	255
  3088     0E31  1683               	bsf	3,5	;RP0=1, select bank1
  3089     0E32  1303               	bcf	3,6	;RP1=0, select bank1
  3090     0E33  0093               	movwf	19	;volatile
  3091     0E34                     l2011:
  3092                           
  3093                           ;I2C.c: 21:     SSPSTAT = 0;
  3094     0E34  0194               	clrf	20	;volatile
  3095     0E35                     l2013:
  3096                           
  3097                           ;I2C.c: 22:     TRISCbits.TRISC3 = 1;
  3098     0E35  1587               	bsf	7,3	;volatile
  3099     0E36                     l2015:
  3100                           
  3101                           ;I2C.c: 23:     TRISCbits.TRISC4 = 1;
  3102     0E36  1607               	bsf	7,4	;volatile
  3103     0E37                     l114:
  3104     0E37  0008               	return
  3105     0E38                     __end_of_I2C_Master_Init:
  3106                           
  3107                           	psect	text9
  3108     068B                     __ptext9:	
  3109 ;; *************** function ___lldiv *****************
  3110 ;; Defined at:
  3111 ;;		line 5 in file "C:\Program Files\Microchip\xc8\v2.41\pic\sources\c90\common\__lldiv.c"
  3112 ;; Parameters:    Size  Location     Type
  3113 ;;  divisor         4   16[BANK0 ] unsigned long 
  3114 ;;  dividend        4   20[BANK0 ] unsigned long 
  3115 ;; Auto vars:     Size  Location     Type
  3116 ;;  quotient        4   25[BANK0 ] unsigned long 
  3117 ;;  counter         1   29[BANK0 ] unsigned char 
  3118 ;; Return value:  Size  Location     Type
  3119 ;;                  4   16[BANK0 ] unsigned long 
  3120 ;; Registers used:
  3121 ;;		wreg, status,2, status,0, btemp+1
  3122 ;; Tracked objects:
  3123 ;;		On entry : 0/0
  3124 ;;		On exit  : 0/0
  3125 ;;		Unchanged: 0/0
  3126 ;; Data sizes:     COMMON   BANK0   BANK1   BANK3   BANK2
  3127 ;;      Params:         0       8       0       0       0
  3128 ;;      Locals:         0       5       0       0       0
  3129 ;;      Temps:          0       1       0       0       0
  3130 ;;      Totals:         0      14       0       0       0
  3131 ;;Total ram usage:       14 bytes
  3132 ;; Hardware stack levels used: 1
  3133 ;; Hardware stack levels required when called: 4
  3134 ;; This function calls:
  3135 ;;		Nothing
  3136 ;; This function is called by:
  3137 ;;		_I2C_Master_Init
  3138 ;; This function uses a non-reentrant model
  3139 ;;
  3140                           
  3141     068B                     ___lldiv:	
  3142                           ;psect for function ___lldiv
  3143                           
  3144     068B                     l1773:	
  3145                           ;incstack = 0
  3146                           ; Regs used in ___lldiv: [wreg+status,2+status,0+btemp+1]
  3147                           
  3148     068B  3000               	movlw	0
  3149     068C  1283               	bcf	3,5	;RP0=0, select bank0
  3150     068D  1303               	bcf	3,6	;RP1=0, select bank0
  3151     068E  00BC               	movwf	___lldiv@quotient+3
  3152     068F  3000               	movlw	0
  3153     0690  00BB               	movwf	___lldiv@quotient+2
  3154     0691  3000               	movlw	0
  3155     0692  00BA               	movwf	___lldiv@quotient+1
  3156     0693  3000               	movlw	0
  3157     0694  00B9               	movwf	___lldiv@quotient
  3158     0695  0833               	movf	___lldiv@divisor+3,w
  3159     0696  0432               	iorwf	___lldiv@divisor+2,w
  3160     0697  0431               	iorwf	___lldiv@divisor+1,w
  3161     0698  0430               	iorwf	___lldiv@divisor,w
  3162     0699  1903               	skipnz
  3163     069A  2E9C               	goto	u1181
  3164     069B  2E9D               	goto	u1180
  3165     069C                     u1181:
  3166     069C  2EEA               	goto	l1795
  3167     069D                     u1180:
  3168     069D                     l1775:
  3169     069D  01BD               	clrf	___lldiv@counter
  3170     069E  0ABD               	incf	___lldiv@counter,f
  3171     069F  2EAD               	goto	l1781
  3172     06A0                     l1777:
  3173     06A0  3001               	movlw	1
  3174     06A1  00B8               	movwf	??___lldiv
  3175     06A2                     u1195:
  3176     06A2  1003               	clrc
  3177     06A3  0DB0               	rlf	___lldiv@divisor,f
  3178     06A4  0DB1               	rlf	___lldiv@divisor+1,f
  3179     06A5  0DB2               	rlf	___lldiv@divisor+2,f
  3180     06A6  0DB3               	rlf	___lldiv@divisor+3,f
  3181     06A7  0BB8               	decfsz	??___lldiv,f
  3182     06A8  2EA2               	goto	u1195
  3183     06A9                     l1779:
  3184     06A9  3001               	movlw	1
  3185     06AA  00FF               	movwf	btemp+1
  3186     06AB  087F               	movf	btemp+1,w
  3187     06AC  07BD               	addwf	___lldiv@counter,f
  3188     06AD                     l1781:
  3189     06AD  1FB3               	btfss	___lldiv@divisor+3,7
  3190     06AE  2EB0               	goto	u1201
  3191     06AF  2EB1               	goto	u1200
  3192     06B0                     u1201:
  3193     06B0  2EA0               	goto	l1777
  3194     06B1                     u1200:
  3195     06B1                     l1783:
  3196     06B1  3001               	movlw	1
  3197     06B2  00B8               	movwf	??___lldiv
  3198     06B3                     u1215:
  3199     06B3  1003               	clrc
  3200     06B4  0DB9               	rlf	___lldiv@quotient,f
  3201     06B5  0DBA               	rlf	___lldiv@quotient+1,f
  3202     06B6  0DBB               	rlf	___lldiv@quotient+2,f
  3203     06B7  0DBC               	rlf	___lldiv@quotient+3,f
  3204     06B8  0BB8               	decfsz	??___lldiv,f
  3205     06B9  2EB3               	goto	u1215
  3206     06BA                     l1785:
  3207     06BA  0833               	movf	___lldiv@divisor+3,w
  3208     06BB  0237               	subwf	___lldiv@dividend+3,w
  3209     06BC  1D03               	skipz
  3210     06BD  2EC8               	goto	u1225
  3211     06BE  0832               	movf	___lldiv@divisor+2,w
  3212     06BF  0236               	subwf	___lldiv@dividend+2,w
  3213     06C0  1D03               	skipz
  3214     06C1  2EC8               	goto	u1225
  3215     06C2  0831               	movf	___lldiv@divisor+1,w
  3216     06C3  0235               	subwf	___lldiv@dividend+1,w
  3217     06C4  1D03               	skipz
  3218     06C5  2EC8               	goto	u1225
  3219     06C6  0830               	movf	___lldiv@divisor,w
  3220     06C7  0234               	subwf	___lldiv@dividend,w
  3221     06C8                     u1225:
  3222     06C8  1C03               	skipc
  3223     06C9  2ECB               	goto	u1221
  3224     06CA  2ECC               	goto	u1220
  3225     06CB                     u1221:
  3226     06CB  2EDB               	goto	l1791
  3227     06CC                     u1220:
  3228     06CC                     l1787:
  3229     06CC  0830               	movf	___lldiv@divisor,w
  3230     06CD  02B4               	subwf	___lldiv@dividend,f
  3231     06CE  0831               	movf	___lldiv@divisor+1,w
  3232     06CF  1C03               	skipc
  3233     06D0  0F31               	incfsz	___lldiv@divisor+1,w
  3234     06D1  02B5               	subwf	___lldiv@dividend+1,f
  3235     06D2  0832               	movf	___lldiv@divisor+2,w
  3236     06D3  1C03               	skipc
  3237     06D4  0F32               	incfsz	___lldiv@divisor+2,w
  3238     06D5  02B6               	subwf	___lldiv@dividend+2,f
  3239     06D6  0833               	movf	___lldiv@divisor+3,w
  3240     06D7  1C03               	skipc
  3241     06D8  0F33               	incfsz	___lldiv@divisor+3,w
  3242     06D9  02B7               	subwf	___lldiv@dividend+3,f
  3243     06DA                     l1789:
  3244     06DA  1439               	bsf	___lldiv@quotient,0
  3245     06DB                     l1791:
  3246     06DB  3001               	movlw	1
  3247     06DC                     u1235:
  3248     06DC  1003               	clrc
  3249     06DD  0CB3               	rrf	___lldiv@divisor+3,f
  3250     06DE  0CB2               	rrf	___lldiv@divisor+2,f
  3251     06DF  0CB1               	rrf	___lldiv@divisor+1,f
  3252     06E0  0CB0               	rrf	___lldiv@divisor,f
  3253     06E1  3EFF               	addlw	-1
  3254     06E2  1D03               	skipz
  3255     06E3  2EDC               	goto	u1235
  3256     06E4                     l1793:
  3257     06E4  3001               	movlw	1
  3258     06E5  02BD               	subwf	___lldiv@counter,f
  3259     06E6  1D03               	btfss	3,2
  3260     06E7  2EE9               	goto	u1241
  3261     06E8  2EEA               	goto	u1240
  3262     06E9                     u1241:
  3263     06E9  2EB1               	goto	l1783
  3264     06EA                     u1240:
  3265     06EA                     l1795:
  3266     06EA  083C               	movf	___lldiv@quotient+3,w
  3267     06EB  00B3               	movwf	?___lldiv+3
  3268     06EC  083B               	movf	___lldiv@quotient+2,w
  3269     06ED  00B2               	movwf	?___lldiv+2
  3270     06EE  083A               	movf	___lldiv@quotient+1,w
  3271     06EF  00B1               	movwf	?___lldiv+1
  3272     06F0  0839               	movf	___lldiv@quotient,w
  3273     06F1  00B0               	movwf	?___lldiv
  3274     06F2                     l440:
  3275     06F2  0008               	return
  3276     06F3                     __end_of___lldiv:
  3277                           
  3278                           	psect	text10
  3279     04B6                     __ptext10:	
  3280 ;; *************** function _settingRTC *****************
  3281 ;; Defined at:
  3282 ;;		line 254 in file "E:/Universidad/Semestre2_2023/Digital-2/Lab4/Lab4_Master.X/Lab4_Master.c"
  3283 ;; Parameters:    Size  Location     Type
  3284 ;;  sec             1    wreg     unsigned char 
  3285 ;;  min             1   32[BANK0 ] unsigned char 
  3286 ;;  hour            1   33[BANK0 ] unsigned char 
  3287 ;;  day             1   34[BANK0 ] unsigned char 
  3288 ;;  mon             1   35[BANK0 ] unsigned char 
  3289 ;;  year            1   36[BANK0 ] unsigned char 
  3290 ;; Auto vars:     Size  Location     Type
  3291 ;;  sec             1   39[BANK0 ] unsigned char 
  3292 ;; Return value:  Size  Location     Type
  3293 ;;                  1    wreg      void 
  3294 ;; Registers used:
  3295 ;;		wreg, status,2, status,0, btemp+1, pclath, cstack
  3296 ;; Tracked objects:
  3297 ;;		On entry : 0/0
  3298 ;;		On exit  : 0/0
  3299 ;;		Unchanged: 0/0
  3300 ;; Data sizes:     COMMON   BANK0   BANK1   BANK3   BANK2
  3301 ;;      Params:         0       5       0       0       0
  3302 ;;      Locals:         0       1       0       0       0
  3303 ;;      Temps:          0       2       0       0       0
  3304 ;;      Totals:         0       8       0       0       0
  3305 ;;Total ram usage:        8 bytes
  3306 ;; Hardware stack levels used: 1
  3307 ;; Hardware stack levels required when called: 6
  3308 ;; This function calls:
  3309 ;;		_Decimal_to_BCD
  3310 ;;		_I2C_Master_Start
  3311 ;;		_I2C_Master_Stop
  3312 ;;		_I2C_Master_Write
  3313 ;; This function is called by:
  3314 ;;		_main
  3315 ;; This function uses a non-reentrant model
  3316 ;;
  3317                           
  3318     04B6                     _settingRTC:	
  3319                           ;psect for function _settingRTC
  3320                           
  3321                           
  3322                           ;incstack = 0
  3323                           ; Regs used in _settingRTC: [wreg+status,2+status,0+btemp+1+pclath+cstack]
  3324                           ;settingRTC@sec stored from wreg
  3325     04B6  1283               	bcf	3,5	;RP0=0, select bank0
  3326     04B7  1303               	bcf	3,6	;RP1=0, select bank0
  3327     04B8  00C7               	movwf	settingRTC@sec
  3328     04B9                     l2175:
  3329                           
  3330                           ;E:/Universidad/Semestre2_2023/Digital-2/Lab4/Lab4_Master.X/Lab4_Master.c: 256:         
      +                          I2C_Master_Start();
  3331     04B9  120A  158A  244E  120A  118A  	fcall	_I2C_Master_Start
  3332                           
  3333                           ;E:/Universidad/Semestre2_2023/Digital-2/Lab4/Lab4_Master.X/Lab4_Master.c: 257:         
      +                          I2C_Master_Write(0b11010000);
  3334     04BE  30D0               	movlw	208
  3335     04BF  1283               	bcf	3,5	;RP0=0, select bank0
  3336     04C0  1303               	bcf	3,6	;RP1=0, select bank0
  3337     04C1  00BE               	movwf	I2C_Master_Write@d
  3338     04C2  3000               	movlw	0
  3339     04C3  00BF               	movwf	I2C_Master_Write@d+1
  3340     04C4  120A  158A  246A  120A  118A  	fcall	_I2C_Master_Write
  3341                           
  3342                           ;E:/Universidad/Semestre2_2023/Digital-2/Lab4/Lab4_Master.X/Lab4_Master.c: 258:         
      +                          I2C_Master_Write(0x00);
  3343     04C9  3000               	movlw	0
  3344     04CA  1283               	bcf	3,5	;RP0=0, select bank0
  3345     04CB  1303               	bcf	3,6	;RP1=0, select bank0
  3346     04CC  00BE               	movwf	I2C_Master_Write@d
  3347     04CD  00BF               	movwf	I2C_Master_Write@d+1
  3348     04CE  120A  158A  246A  120A  118A  	fcall	_I2C_Master_Write
  3349     04D3                     l2177:
  3350                           
  3351                           ;E:/Universidad/Semestre2_2023/Digital-2/Lab4/Lab4_Master.X/Lab4_Master.c: 261:         
      +                          I2C_Master_Write(Decimal_to_BCD(sec));
  3352     04D3  1283               	bcf	3,5	;RP0=0, select bank0
  3353     04D4  1303               	bcf	3,6	;RP1=0, select bank0
  3354     04D5  0847               	movf	settingRTC@sec,w
  3355     04D6  120A  158A  25C5  120A  118A  	fcall	_Decimal_to_BCD
  3356     04DB  1283               	bcf	3,5	;RP0=0, select bank0
  3357     04DC  1303               	bcf	3,6	;RP1=0, select bank0
  3358     04DD  00C5               	movwf	??_settingRTC
  3359     04DE  01C6               	clrf	??_settingRTC+1
  3360     04DF  0845               	movf	??_settingRTC,w
  3361     04E0  00BE               	movwf	I2C_Master_Write@d
  3362     04E1  0846               	movf	??_settingRTC+1,w
  3363     04E2  00BF               	movwf	I2C_Master_Write@d+1
  3364     04E3  120A  158A  246A  120A  118A  	fcall	_I2C_Master_Write
  3365     04E8                     l2179:
  3366                           
  3367                           ;E:/Universidad/Semestre2_2023/Digital-2/Lab4/Lab4_Master.X/Lab4_Master.c: 264:         
      +                          I2C_Master_Write(Decimal_to_BCD(min));
  3368     04E8  1283               	bcf	3,5	;RP0=0, select bank0
  3369     04E9  1303               	bcf	3,6	;RP1=0, select bank0
  3370     04EA  0840               	movf	settingRTC@min,w
  3371     04EB  120A  158A  25C5  120A  118A  	fcall	_Decimal_to_BCD
  3372     04F0  1283               	bcf	3,5	;RP0=0, select bank0
  3373     04F1  1303               	bcf	3,6	;RP1=0, select bank0
  3374     04F2  00C5               	movwf	??_settingRTC
  3375     04F3  01C6               	clrf	??_settingRTC+1
  3376     04F4  0845               	movf	??_settingRTC,w
  3377     04F5  00BE               	movwf	I2C_Master_Write@d
  3378     04F6  0846               	movf	??_settingRTC+1,w
  3379     04F7  00BF               	movwf	I2C_Master_Write@d+1
  3380     04F8  120A  158A  246A  120A  118A  	fcall	_I2C_Master_Write
  3381     04FD                     l2181:
  3382                           
  3383                           ;E:/Universidad/Semestre2_2023/Digital-2/Lab4/Lab4_Master.X/Lab4_Master.c: 267:         
      +                          I2C_Master_Write(Decimal_to_BCD(hour));
  3384     04FD  1283               	bcf	3,5	;RP0=0, select bank0
  3385     04FE  1303               	bcf	3,6	;RP1=0, select bank0
  3386     04FF  0841               	movf	settingRTC@hour,w
  3387     0500  120A  158A  25C5  120A  118A  	fcall	_Decimal_to_BCD
  3388     0505  1283               	bcf	3,5	;RP0=0, select bank0
  3389     0506  1303               	bcf	3,6	;RP1=0, select bank0
  3390     0507  00C5               	movwf	??_settingRTC
  3391     0508  01C6               	clrf	??_settingRTC+1
  3392     0509  0845               	movf	??_settingRTC,w
  3393     050A  00BE               	movwf	I2C_Master_Write@d
  3394     050B  0846               	movf	??_settingRTC+1,w
  3395     050C  00BF               	movwf	I2C_Master_Write@d+1
  3396     050D  120A  158A  246A  120A  118A  	fcall	_I2C_Master_Write
  3397     0512                     l2183:
  3398                           
  3399                           ;E:/Universidad/Semestre2_2023/Digital-2/Lab4/Lab4_Master.X/Lab4_Master.c: 269:         
      +                          I2C_Master_Write(Decimal_to_BCD(day));
  3400     0512  1283               	bcf	3,5	;RP0=0, select bank0
  3401     0513  1303               	bcf	3,6	;RP1=0, select bank0
  3402     0514  0842               	movf	settingRTC@day,w
  3403     0515  120A  158A  25C5  120A  118A  	fcall	_Decimal_to_BCD
  3404     051A  1283               	bcf	3,5	;RP0=0, select bank0
  3405     051B  1303               	bcf	3,6	;RP1=0, select bank0
  3406     051C  00C5               	movwf	??_settingRTC
  3407     051D  01C6               	clrf	??_settingRTC+1
  3408     051E  0845               	movf	??_settingRTC,w
  3409     051F  00BE               	movwf	I2C_Master_Write@d
  3410     0520  0846               	movf	??_settingRTC+1,w
  3411     0521  00BF               	movwf	I2C_Master_Write@d+1
  3412     0522  120A  158A  246A  120A  118A  	fcall	_I2C_Master_Write
  3413     0527                     l2185:
  3414                           
  3415                           ;E:/Universidad/Semestre2_2023/Digital-2/Lab4/Lab4_Master.X/Lab4_Master.c: 270:         
      +                          I2C_Master_Write(Decimal_to_BCD(day));
  3416     0527  1283               	bcf	3,5	;RP0=0, select bank0
  3417     0528  1303               	bcf	3,6	;RP1=0, select bank0
  3418     0529  0842               	movf	settingRTC@day,w
  3419     052A  120A  158A  25C5  120A  118A  	fcall	_Decimal_to_BCD
  3420     052F  1283               	bcf	3,5	;RP0=0, select bank0
  3421     0530  1303               	bcf	3,6	;RP1=0, select bank0
  3422     0531  00C5               	movwf	??_settingRTC
  3423     0532  01C6               	clrf	??_settingRTC+1
  3424     0533  0845               	movf	??_settingRTC,w
  3425     0534  00BE               	movwf	I2C_Master_Write@d
  3426     0535  0846               	movf	??_settingRTC+1,w
  3427     0536  00BF               	movwf	I2C_Master_Write@d+1
  3428     0537  120A  158A  246A  120A  118A  	fcall	_I2C_Master_Write
  3429     053C                     l2187:
  3430                           
  3431                           ;E:/Universidad/Semestre2_2023/Digital-2/Lab4/Lab4_Master.X/Lab4_Master.c: 273:         
      +                          I2C_Master_Write(Decimal_to_BCD(mon));
  3432     053C  1283               	bcf	3,5	;RP0=0, select bank0
  3433     053D  1303               	bcf	3,6	;RP1=0, select bank0
  3434     053E  0843               	movf	settingRTC@mon,w
  3435     053F  120A  158A  25C5  120A  118A  	fcall	_Decimal_to_BCD
  3436     0544  1283               	bcf	3,5	;RP0=0, select bank0
  3437     0545  1303               	bcf	3,6	;RP1=0, select bank0
  3438     0546  00C5               	movwf	??_settingRTC
  3439     0547  01C6               	clrf	??_settingRTC+1
  3440     0548  0845               	movf	??_settingRTC,w
  3441     0549  00BE               	movwf	I2C_Master_Write@d
  3442     054A  0846               	movf	??_settingRTC+1,w
  3443     054B  00BF               	movwf	I2C_Master_Write@d+1
  3444     054C  120A  158A  246A  120A  118A  	fcall	_I2C_Master_Write
  3445     0551                     l2189:
  3446                           
  3447                           ;E:/Universidad/Semestre2_2023/Digital-2/Lab4/Lab4_Master.X/Lab4_Master.c: 276:         
      +                          I2C_Master_Write(Decimal_to_BCD(year));
  3448     0551  1283               	bcf	3,5	;RP0=0, select bank0
  3449     0552  1303               	bcf	3,6	;RP1=0, select bank0
  3450     0553  0844               	movf	settingRTC@year,w
  3451     0554  120A  158A  25C5  120A  118A  	fcall	_Decimal_to_BCD
  3452     0559  1283               	bcf	3,5	;RP0=0, select bank0
  3453     055A  1303               	bcf	3,6	;RP1=0, select bank0
  3454     055B  00C5               	movwf	??_settingRTC
  3455     055C  01C6               	clrf	??_settingRTC+1
  3456     055D  0845               	movf	??_settingRTC,w
  3457     055E  00BE               	movwf	I2C_Master_Write@d
  3458     055F  0846               	movf	??_settingRTC+1,w
  3459     0560  00BF               	movwf	I2C_Master_Write@d+1
  3460     0561  120A  158A  246A  120A  118A  	fcall	_I2C_Master_Write
  3461     0566                     l2191:
  3462                           
  3463                           ;E:/Universidad/Semestre2_2023/Digital-2/Lab4/Lab4_Master.X/Lab4_Master.c: 279:         
      +                          I2C_Master_Stop();
  3464     0566  120A  158A  2457  120A  118A  	fcall	_I2C_Master_Stop
  3465     056B                     l270:
  3466     056B  0008               	return
  3467     056C                     __end_of_settingRTC:
  3468                           
  3469                           	psect	text11
  3470     0C6A                     __ptext11:	
  3471 ;; *************** function _I2C_Master_Write *****************
  3472 ;; Defined at:
  3473 ;;		line 65 in file "I2C.c"
  3474 ;; Parameters:    Size  Location     Type
  3475 ;;  d               2   30[BANK0 ] unsigned int 
  3476 ;; Auto vars:     Size  Location     Type
  3477 ;;		None
  3478 ;; Return value:  Size  Location     Type
  3479 ;;                  1    wreg      void 
  3480 ;; Registers used:
  3481 ;;		wreg, status,2, status,0, pclath, cstack
  3482 ;; Tracked objects:
  3483 ;;		On entry : 0/0
  3484 ;;		On exit  : 0/0
  3485 ;;		Unchanged: 0/0
  3486 ;; Data sizes:     COMMON   BANK0   BANK1   BANK3   BANK2
  3487 ;;      Params:         0       2       0       0       0
  3488 ;;      Locals:         0       0       0       0       0
  3489 ;;      Temps:          0       0       0       0       0
  3490 ;;      Totals:         0       2       0       0       0
  3491 ;;Total ram usage:        2 bytes
  3492 ;; Hardware stack levels used: 1
  3493 ;; Hardware stack levels required when called: 5
  3494 ;; This function calls:
  3495 ;;		_I2C_Master_Wait
  3496 ;; This function is called by:
  3497 ;;		_main
  3498 ;;		_settingRTC
  3499 ;; This function uses a non-reentrant model
  3500 ;;
  3501                           
  3502     0C6A                     _I2C_Master_Write:	
  3503                           ;psect for function _I2C_Master_Write
  3504                           
  3505     0C6A                     l2025:	
  3506                           ;incstack = 0
  3507                           ; Regs used in _I2C_Master_Write: [wreg+status,2+status,0+pclath+cstack]
  3508                           
  3509                           
  3510                           ;I2C.c: 65: void I2C_Master_Write(unsigned d);I2C.c: 66: {;I2C.c: 67:     I2C_Master_Wai
      +                          t();
  3511     0C6A  120A  158A  2481  120A  158A  	fcall	_I2C_Master_Wait
  3512     0C6F                     l2027:
  3513                           
  3514                           ;I2C.c: 68:     SSPBUF = d;
  3515     0C6F  1283               	bcf	3,5	;RP0=0, select bank0
  3516     0C70  1303               	bcf	3,6	;RP1=0, select bank0
  3517     0C71  083E               	movf	I2C_Master_Write@d,w
  3518     0C72  0093               	movwf	19	;volatile
  3519     0C73                     l132:
  3520     0C73  0008               	return
  3521     0C74                     __end_of_I2C_Master_Write:
  3522                           
  3523                           	psect	text12
  3524     0C57                     __ptext12:	
  3525 ;; *************** function _I2C_Master_Stop *****************
  3526 ;; Defined at:
  3527 ;;		line 55 in file "I2C.c"
  3528 ;; Parameters:    Size  Location     Type
  3529 ;;		None
  3530 ;; Auto vars:     Size  Location     Type
  3531 ;;		None
  3532 ;; Return value:  Size  Location     Type
  3533 ;;                  1    wreg      void 
  3534 ;; Registers used:
  3535 ;;		wreg, status,2, status,0, pclath, cstack
  3536 ;; Tracked objects:
  3537 ;;		On entry : 0/0
  3538 ;;		On exit  : 0/0
  3539 ;;		Unchanged: 0/0
  3540 ;; Data sizes:     COMMON   BANK0   BANK1   BANK3   BANK2
  3541 ;;      Params:         0       0       0       0       0
  3542 ;;      Locals:         0       0       0       0       0
  3543 ;;      Temps:          0       0       0       0       0
  3544 ;;      Totals:         0       0       0       0       0
  3545 ;;Total ram usage:        0 bytes
  3546 ;; Hardware stack levels used: 1
  3547 ;; Hardware stack levels required when called: 5
  3548 ;; This function calls:
  3549 ;;		_I2C_Master_Wait
  3550 ;; This function is called by:
  3551 ;;		_main
  3552 ;;		_settingRTC
  3553 ;; This function uses a non-reentrant model
  3554 ;;
  3555                           
  3556     0C57                     _I2C_Master_Stop:	
  3557                           ;psect for function _I2C_Master_Stop
  3558                           
  3559     0C57                     l2021:	
  3560                           ;incstack = 0
  3561                           ; Regs used in _I2C_Master_Stop: [wreg+status,2+status,0+pclath+cstack]
  3562                           
  3563                           
  3564                           ;I2C.c: 57:     I2C_Master_Wait();
  3565     0C57  120A  158A  2481  120A  158A  	fcall	_I2C_Master_Wait
  3566     0C5C                     l2023:
  3567                           
  3568                           ;I2C.c: 58:     SSPCON2bits.PEN = 1;
  3569     0C5C  1683               	bsf	3,5	;RP0=1, select bank1
  3570     0C5D  1303               	bcf	3,6	;RP1=0, select bank1
  3571     0C5E  1511               	bsf	17,2	;volatile
  3572     0C5F                     l129:
  3573     0C5F  0008               	return
  3574     0C60                     __end_of_I2C_Master_Stop:
  3575                           
  3576                           	psect	text13
  3577     0C4E                     __ptext13:	
  3578 ;; *************** function _I2C_Master_Start *****************
  3579 ;; Defined at:
  3580 ;;		line 39 in file "I2C.c"
  3581 ;; Parameters:    Size  Location     Type
  3582 ;;		None
  3583 ;; Auto vars:     Size  Location     Type
  3584 ;;		None
  3585 ;; Return value:  Size  Location     Type
  3586 ;;                  1    wreg      void 
  3587 ;; Registers used:
  3588 ;;		wreg, status,2, status,0, pclath, cstack
  3589 ;; Tracked objects:
  3590 ;;		On entry : 0/0
  3591 ;;		On exit  : 0/0
  3592 ;;		Unchanged: 0/0
  3593 ;; Data sizes:     COMMON   BANK0   BANK1   BANK3   BANK2
  3594 ;;      Params:         0       0       0       0       0
  3595 ;;      Locals:         0       0       0       0       0
  3596 ;;      Temps:          0       0       0       0       0
  3597 ;;      Totals:         0       0       0       0       0
  3598 ;;Total ram usage:        0 bytes
  3599 ;; Hardware stack levels used: 1
  3600 ;; Hardware stack levels required when called: 5
  3601 ;; This function calls:
  3602 ;;		_I2C_Master_Wait
  3603 ;; This function is called by:
  3604 ;;		_main
  3605 ;;		_settingRTC
  3606 ;; This function uses a non-reentrant model
  3607 ;;
  3608                           
  3609     0C4E                     _I2C_Master_Start:	
  3610                           ;psect for function _I2C_Master_Start
  3611                           
  3612     0C4E                     l2017:	
  3613                           ;incstack = 0
  3614                           ; Regs used in _I2C_Master_Start: [wreg+status,2+status,0+pclath+cstack]
  3615                           
  3616                           
  3617                           ;I2C.c: 41:     I2C_Master_Wait();
  3618     0C4E  120A  158A  2481  120A  158A  	fcall	_I2C_Master_Wait
  3619     0C53                     l2019:
  3620                           
  3621                           ;I2C.c: 42:     SSPCON2bits.SEN = 1;
  3622     0C53  1683               	bsf	3,5	;RP0=1, select bank1
  3623     0C54  1303               	bcf	3,6	;RP1=0, select bank1
  3624     0C55  1411               	bsf	17,0	;volatile
  3625     0C56                     l123:
  3626     0C56  0008               	return
  3627     0C57                     __end_of_I2C_Master_Start:
  3628                           
  3629                           	psect	text14
  3630     0DC5                     __ptext14:	
  3631 ;; *************** function _Decimal_to_BCD *****************
  3632 ;; Defined at:
  3633 ;;		line 295 in file "E:/Universidad/Semestre2_2023/Digital-2/Lab4/Lab4_Master.X/Lab4_Master.c"
  3634 ;; Parameters:    Size  Location     Type
  3635 ;;  decimal_valu    1    wreg     unsigned char 
  3636 ;; Auto vars:     Size  Location     Type
  3637 ;;  decimal_valu    1   29[BANK0 ] unsigned char 
  3638 ;;  bcd_value       1   28[BANK0 ] unsigned char 
  3639 ;;  ones_digit      1   27[BANK0 ] unsigned char 
  3640 ;;  tens_digit      1   26[BANK0 ] unsigned char 
  3641 ;; Return value:  Size  Location     Type
  3642 ;;                  1    wreg      unsigned char 
  3643 ;; Registers used:
  3644 ;;		wreg, status,2, status,0, btemp+1, pclath, cstack
  3645 ;; Tracked objects:
  3646 ;;		On entry : 0/0
  3647 ;;		On exit  : 0/0
  3648 ;;		Unchanged: 0/0
  3649 ;; Data sizes:     COMMON   BANK0   BANK1   BANK3   BANK2
  3650 ;;      Params:         0       0       0       0       0
  3651 ;;      Locals:         0       4       0       0       0
  3652 ;;      Temps:          0       2       0       0       0
  3653 ;;      Totals:         0       6       0       0       0
  3654 ;;Total ram usage:        6 bytes
  3655 ;; Hardware stack levels used: 1
  3656 ;; Hardware stack levels required when called: 5
  3657 ;; This function calls:
  3658 ;;		___awdiv
  3659 ;;		___awmod
  3660 ;; This function is called by:
  3661 ;;		_settingRTC
  3662 ;; This function uses a non-reentrant model
  3663 ;;
  3664                           
  3665     0DC5                     _Decimal_to_BCD:	
  3666                           ;psect for function _Decimal_to_BCD
  3667                           
  3668                           
  3669                           ;incstack = 0
  3670                           ; Regs used in _Decimal_to_BCD: [wreg+status,2+status,0+btemp+1+pclath+cstack]
  3671                           ;Decimal_to_BCD@decimal_value stored from wreg
  3672     0DC5  1283               	bcf	3,5	;RP0=0, select bank0
  3673     0DC6  1303               	bcf	3,6	;RP1=0, select bank0
  3674     0DC7  00BD               	movwf	Decimal_to_BCD@decimal_value
  3675     0DC8                     l2029:
  3676                           
  3677                           ;E:/Universidad/Semestre2_2023/Digital-2/Lab4/Lab4_Master.X/Lab4_Master.c: 297:     uint
      +                          8_t tens_digit = decimal_value / 10;
  3678     0DC8  300A               	movlw	10
  3679     0DC9  00B0               	movwf	___awdiv@divisor
  3680     0DCA  3000               	movlw	0
  3681     0DCB  00B1               	movwf	___awdiv@divisor+1
  3682     0DCC  083D               	movf	Decimal_to_BCD@decimal_value,w
  3683     0DCD  00B8               	movwf	??_Decimal_to_BCD
  3684     0DCE  01B9               	clrf	??_Decimal_to_BCD+1
  3685     0DCF  0838               	movf	??_Decimal_to_BCD,w
  3686     0DD0  00B2               	movwf	___awdiv@dividend
  3687     0DD1  0839               	movf	??_Decimal_to_BCD+1,w
  3688     0DD2  00B3               	movwf	___awdiv@dividend+1
  3689     0DD3  120A  118A  2622  120A  158A  	fcall	___awdiv
  3690     0DD8  1283               	bcf	3,5	;RP0=0, select bank0
  3691     0DD9  1303               	bcf	3,6	;RP1=0, select bank0
  3692     0DDA  0830               	movf	?___awdiv,w
  3693     0DDB  00BA               	movwf	Decimal_to_BCD@tens_digit
  3694                           
  3695                           ;E:/Universidad/Semestre2_2023/Digital-2/Lab4/Lab4_Master.X/Lab4_Master.c: 298:     uint
      +                          8_t ones_digit = decimal_value % 10;
  3696     0DDC  300A               	movlw	10
  3697     0DDD  00B0               	movwf	___awmod@divisor
  3698     0DDE  3000               	movlw	0
  3699     0DDF  00B1               	movwf	___awmod@divisor+1
  3700     0DE0  083D               	movf	Decimal_to_BCD@decimal_value,w
  3701     0DE1  00B8               	movwf	??_Decimal_to_BCD
  3702     0DE2  01B9               	clrf	??_Decimal_to_BCD+1
  3703     0DE3  0838               	movf	??_Decimal_to_BCD,w
  3704     0DE4  00B2               	movwf	___awmod@dividend
  3705     0DE5  0839               	movf	??_Decimal_to_BCD+1,w
  3706     0DE6  00B3               	movwf	___awmod@dividend+1
  3707     0DE7  120A  158A  27A5  120A  158A  	fcall	___awmod
  3708     0DEC  1283               	bcf	3,5	;RP0=0, select bank0
  3709     0DED  1303               	bcf	3,6	;RP1=0, select bank0
  3710     0DEE  0830               	movf	?___awmod,w
  3711     0DEF  00BB               	movwf	Decimal_to_BCD@ones_digit
  3712     0DF0                     l2031:
  3713                           
  3714                           ;E:/Universidad/Semestre2_2023/Digital-2/Lab4/Lab4_Master.X/Lab4_Master.c: 301:     uint
      +                          8_t bcd_value = (tens_digit << 4) | ones_digit;
  3715     0DF0  083A               	movf	Decimal_to_BCD@tens_digit,w
  3716     0DF1  00B8               	movwf	??_Decimal_to_BCD
  3717     0DF2  3003               	movlw	3
  3718     0DF3                     u1735:
  3719     0DF3  1003               	clrc
  3720     0DF4  0DB8               	rlf	??_Decimal_to_BCD,f
  3721     0DF5  3EFF               	addlw	-1
  3722     0DF6  1D03               	skipz
  3723     0DF7  2DF3               	goto	u1735
  3724     0DF8  1003               	clrc
  3725     0DF9  0D38               	rlf	??_Decimal_to_BCD,w
  3726     0DFA  043B               	iorwf	Decimal_to_BCD@ones_digit,w
  3727     0DFB  00BC               	movwf	Decimal_to_BCD@bcd_value
  3728     0DFC                     l2033:
  3729                           
  3730                           ;E:/Universidad/Semestre2_2023/Digital-2/Lab4/Lab4_Master.X/Lab4_Master.c: 303:     retu
      +                          rn bcd_value;
  3731     0DFC  083C               	movf	Decimal_to_BCD@bcd_value,w
  3732     0DFD                     l276:
  3733     0DFD  0008               	return
  3734     0DFE                     __end_of_Decimal_to_BCD:
  3735                           
  3736                           	psect	text15
  3737     0FA5                     __ptext15:	
  3738 ;; *************** function ___awmod *****************
  3739 ;; Defined at:
  3740 ;;		line 5 in file "C:\Program Files\Microchip\xc8\v2.41\pic\sources\c90\common\awmod.c"
  3741 ;; Parameters:    Size  Location     Type
  3742 ;;  divisor         2   16[BANK0 ] int 
  3743 ;;  dividend        2   18[BANK0 ] int 
  3744 ;; Auto vars:     Size  Location     Type
  3745 ;;  sign            1   21[BANK0 ] unsigned char 
  3746 ;;  counter         1   20[BANK0 ] unsigned char 
  3747 ;; Return value:  Size  Location     Type
  3748 ;;                  2   16[BANK0 ] int 
  3749 ;; Registers used:
  3750 ;;		wreg, status,2, status,0, btemp+1
  3751 ;; Tracked objects:
  3752 ;;		On entry : 0/0
  3753 ;;		On exit  : 0/0
  3754 ;;		Unchanged: 0/0
  3755 ;; Data sizes:     COMMON   BANK0   BANK1   BANK3   BANK2
  3756 ;;      Params:         0       4       0       0       0
  3757 ;;      Locals:         0       2       0       0       0
  3758 ;;      Temps:          0       0       0       0       0
  3759 ;;      Totals:         0       6       0       0       0
  3760 ;;Total ram usage:        6 bytes
  3761 ;; Hardware stack levels used: 1
  3762 ;; Hardware stack levels required when called: 4
  3763 ;; This function calls:
  3764 ;;		Nothing
  3765 ;; This function is called by:
  3766 ;;		_Decimal_to_BCD
  3767 ;; This function uses a non-reentrant model
  3768 ;;
  3769                           
  3770     0FA5                     ___awmod:	
  3771                           ;psect for function ___awmod
  3772                           
  3773     0FA5                     l1843:	
  3774                           ;incstack = 0
  3775                           ; Regs used in ___awmod: [wreg+status,2+status,0+btemp+1]
  3776                           
  3777     0FA5  1283               	bcf	3,5	;RP0=0, select bank0
  3778     0FA6  1303               	bcf	3,6	;RP1=0, select bank0
  3779     0FA7  01B5               	clrf	___awmod@sign
  3780     0FA8                     l1845:
  3781     0FA8  1FB3               	btfss	___awmod@dividend+1,7
  3782     0FA9  2FAB               	goto	u1351
  3783     0FAA  2FAC               	goto	u1350
  3784     0FAB                     u1351:
  3785     0FAB  2FB3               	goto	l1851
  3786     0FAC                     u1350:
  3787     0FAC                     l1847:
  3788     0FAC  09B2               	comf	___awmod@dividend,f
  3789     0FAD  09B3               	comf	___awmod@dividend+1,f
  3790     0FAE  0AB2               	incf	___awmod@dividend,f
  3791     0FAF  1903               	skipnz
  3792     0FB0  0AB3               	incf	___awmod@dividend+1,f
  3793     0FB1                     l1849:
  3794     0FB1  01B5               	clrf	___awmod@sign
  3795     0FB2  0AB5               	incf	___awmod@sign,f
  3796     0FB3                     l1851:
  3797     0FB3  1FB1               	btfss	___awmod@divisor+1,7
  3798     0FB4  2FB6               	goto	u1361
  3799     0FB5  2FB7               	goto	u1360
  3800     0FB6                     u1361:
  3801     0FB6  2FBC               	goto	l1855
  3802     0FB7                     u1360:
  3803     0FB7                     l1853:
  3804     0FB7  09B0               	comf	___awmod@divisor,f
  3805     0FB8  09B1               	comf	___awmod@divisor+1,f
  3806     0FB9  0AB0               	incf	___awmod@divisor,f
  3807     0FBA  1903               	skipnz
  3808     0FBB  0AB1               	incf	___awmod@divisor+1,f
  3809     0FBC                     l1855:
  3810     0FBC  0830               	movf	___awmod@divisor,w
  3811     0FBD  0431               	iorwf	___awmod@divisor+1,w
  3812     0FBE  1903               	btfsc	3,2
  3813     0FBF  2FC1               	goto	u1371
  3814     0FC0  2FC2               	goto	u1370
  3815     0FC1                     u1371:
  3816     0FC1  2FF1               	goto	l1873
  3817     0FC2                     u1370:
  3818     0FC2                     l1857:
  3819     0FC2  01B4               	clrf	___awmod@counter
  3820     0FC3  0AB4               	incf	___awmod@counter,f
  3821     0FC4  2FD0               	goto	l1863
  3822     0FC5                     l1859:
  3823     0FC5  3001               	movlw	1
  3824     0FC6                     u1385:
  3825     0FC6  1003               	clrc
  3826     0FC7  0DB0               	rlf	___awmod@divisor,f
  3827     0FC8  0DB1               	rlf	___awmod@divisor+1,f
  3828     0FC9  3EFF               	addlw	-1
  3829     0FCA  1D03               	skipz
  3830     0FCB  2FC6               	goto	u1385
  3831     0FCC                     l1861:
  3832     0FCC  3001               	movlw	1
  3833     0FCD  00FF               	movwf	btemp+1
  3834     0FCE  087F               	movf	btemp+1,w
  3835     0FCF  07B4               	addwf	___awmod@counter,f
  3836     0FD0                     l1863:
  3837     0FD0  1FB1               	btfss	___awmod@divisor+1,7
  3838     0FD1  2FD3               	goto	u1391
  3839     0FD2  2FD4               	goto	u1390
  3840     0FD3                     u1391:
  3841     0FD3  2FC5               	goto	l1859
  3842     0FD4                     u1390:
  3843     0FD4                     l1865:
  3844     0FD4  0831               	movf	___awmod@divisor+1,w
  3845     0FD5  0233               	subwf	___awmod@dividend+1,w
  3846     0FD6  1D03               	skipz
  3847     0FD7  2FDA               	goto	u1405
  3848     0FD8  0830               	movf	___awmod@divisor,w
  3849     0FD9  0232               	subwf	___awmod@dividend,w
  3850     0FDA                     u1405:
  3851     0FDA  1C03               	skipc
  3852     0FDB  2FDD               	goto	u1401
  3853     0FDC  2FDE               	goto	u1400
  3854     0FDD                     u1401:
  3855     0FDD  2FE4               	goto	l1869
  3856     0FDE                     u1400:
  3857     0FDE                     l1867:
  3858     0FDE  0830               	movf	___awmod@divisor,w
  3859     0FDF  02B2               	subwf	___awmod@dividend,f
  3860     0FE0  0831               	movf	___awmod@divisor+1,w
  3861     0FE1  1C03               	skipc
  3862     0FE2  03B3               	decf	___awmod@dividend+1,f
  3863     0FE3  02B3               	subwf	___awmod@dividend+1,f
  3864     0FE4                     l1869:
  3865     0FE4  3001               	movlw	1
  3866     0FE5                     u1415:
  3867     0FE5  1003               	clrc
  3868     0FE6  0CB1               	rrf	___awmod@divisor+1,f
  3869     0FE7  0CB0               	rrf	___awmod@divisor,f
  3870     0FE8  3EFF               	addlw	-1
  3871     0FE9  1D03               	skipz
  3872     0FEA  2FE5               	goto	u1415
  3873     0FEB                     l1871:
  3874     0FEB  3001               	movlw	1
  3875     0FEC  02B4               	subwf	___awmod@counter,f
  3876     0FED  1D03               	btfss	3,2
  3877     0FEE  2FF0               	goto	u1421
  3878     0FEF  2FF1               	goto	u1420
  3879     0FF0                     u1421:
  3880     0FF0  2FD4               	goto	l1865
  3881     0FF1                     u1420:
  3882     0FF1                     l1873:
  3883     0FF1  0835               	movf	___awmod@sign,w
  3884     0FF2  1903               	btfsc	3,2
  3885     0FF3  2FF5               	goto	u1431
  3886     0FF4  2FF6               	goto	u1430
  3887     0FF5                     u1431:
  3888     0FF5  2FFB               	goto	l1877
  3889     0FF6                     u1430:
  3890     0FF6                     l1875:
  3891     0FF6  09B2               	comf	___awmod@dividend,f
  3892     0FF7  09B3               	comf	___awmod@dividend+1,f
  3893     0FF8  0AB2               	incf	___awmod@dividend,f
  3894     0FF9  1903               	skipnz
  3895     0FFA  0AB3               	incf	___awmod@dividend+1,f
  3896     0FFB                     l1877:
  3897     0FFB  0833               	movf	___awmod@dividend+1,w
  3898     0FFC  00B1               	movwf	?___awmod+1
  3899     0FFD  0832               	movf	___awmod@dividend,w
  3900     0FFE  00B0               	movwf	?___awmod
  3901     0FFF                     l570:
  3902     0FFF  0008               	return
  3903     1000                     __end_of___awmod:
  3904                           
  3905                           	psect	text16
  3906     0622                     __ptext16:	
  3907 ;; *************** function ___awdiv *****************
  3908 ;; Defined at:
  3909 ;;		line 5 in file "C:\Program Files\Microchip\xc8\v2.41\pic\sources\c90\common\awdiv.c"
  3910 ;; Parameters:    Size  Location     Type
  3911 ;;  divisor         2   16[BANK0 ] int 
  3912 ;;  dividend        2   18[BANK0 ] int 
  3913 ;; Auto vars:     Size  Location     Type
  3914 ;;  quotient        2   22[BANK0 ] int 
  3915 ;;  sign            1   21[BANK0 ] unsigned char 
  3916 ;;  counter         1   20[BANK0 ] unsigned char 
  3917 ;; Return value:  Size  Location     Type
  3918 ;;                  2   16[BANK0 ] int 
  3919 ;; Registers used:
  3920 ;;		wreg, status,2, status,0, btemp+1
  3921 ;; Tracked objects:
  3922 ;;		On entry : 0/0
  3923 ;;		On exit  : 0/0
  3924 ;;		Unchanged: 0/0
  3925 ;; Data sizes:     COMMON   BANK0   BANK1   BANK3   BANK2
  3926 ;;      Params:         0       4       0       0       0
  3927 ;;      Locals:         0       4       0       0       0
  3928 ;;      Temps:          0       0       0       0       0
  3929 ;;      Totals:         0       8       0       0       0
  3930 ;;Total ram usage:        8 bytes
  3931 ;; Hardware stack levels used: 1
  3932 ;; Hardware stack levels required when called: 4
  3933 ;; This function calls:
  3934 ;;		Nothing
  3935 ;; This function is called by:
  3936 ;;		_Decimal_to_BCD
  3937 ;; This function uses a non-reentrant model
  3938 ;;
  3939                           
  3940     0622                     ___awdiv:	
  3941                           ;psect for function ___awdiv
  3942                           
  3943     0622                     l1799:	
  3944                           ;incstack = 0
  3945                           ; Regs used in ___awdiv: [wreg+status,2+status,0+btemp+1]
  3946                           
  3947     0622  1283               	bcf	3,5	;RP0=0, select bank0
  3948     0623  1303               	bcf	3,6	;RP1=0, select bank0
  3949     0624  01B5               	clrf	___awdiv@sign
  3950     0625                     l1801:
  3951     0625  1FB1               	btfss	___awdiv@divisor+1,7
  3952     0626  2E28               	goto	u1251
  3953     0627  2E29               	goto	u1250
  3954     0628                     u1251:
  3955     0628  2E30               	goto	l1807
  3956     0629                     u1250:
  3957     0629                     l1803:
  3958     0629  09B0               	comf	___awdiv@divisor,f
  3959     062A  09B1               	comf	___awdiv@divisor+1,f
  3960     062B  0AB0               	incf	___awdiv@divisor,f
  3961     062C  1903               	skipnz
  3962     062D  0AB1               	incf	___awdiv@divisor+1,f
  3963     062E                     l1805:
  3964     062E  01B5               	clrf	___awdiv@sign
  3965     062F  0AB5               	incf	___awdiv@sign,f
  3966     0630                     l1807:
  3967     0630  1FB3               	btfss	___awdiv@dividend+1,7
  3968     0631  2E33               	goto	u1261
  3969     0632  2E34               	goto	u1260
  3970     0633                     u1261:
  3971     0633  2E3D               	goto	l1813
  3972     0634                     u1260:
  3973     0634                     l1809:
  3974     0634  09B2               	comf	___awdiv@dividend,f
  3975     0635  09B3               	comf	___awdiv@dividend+1,f
  3976     0636  0AB2               	incf	___awdiv@dividend,f
  3977     0637  1903               	skipnz
  3978     0638  0AB3               	incf	___awdiv@dividend+1,f
  3979     0639                     l1811:
  3980     0639  3001               	movlw	1
  3981     063A  00FF               	movwf	btemp+1
  3982     063B  087F               	movf	btemp+1,w
  3983     063C  06B5               	xorwf	___awdiv@sign,f
  3984     063D                     l1813:
  3985     063D  01B6               	clrf	___awdiv@quotient
  3986     063E  01B7               	clrf	___awdiv@quotient+1
  3987     063F                     l1815:
  3988     063F  0830               	movf	___awdiv@divisor,w
  3989     0640  0431               	iorwf	___awdiv@divisor+1,w
  3990     0641  1903               	btfsc	3,2
  3991     0642  2E44               	goto	u1271
  3992     0643  2E45               	goto	u1270
  3993     0644                     u1271:
  3994     0644  2E7C               	goto	l1835
  3995     0645                     u1270:
  3996     0645                     l1817:
  3997     0645  01B4               	clrf	___awdiv@counter
  3998     0646  0AB4               	incf	___awdiv@counter,f
  3999     0647  2E53               	goto	l1823
  4000     0648                     l1819:
  4001     0648  3001               	movlw	1
  4002     0649                     u1285:
  4003     0649  1003               	clrc
  4004     064A  0DB0               	rlf	___awdiv@divisor,f
  4005     064B  0DB1               	rlf	___awdiv@divisor+1,f
  4006     064C  3EFF               	addlw	-1
  4007     064D  1D03               	skipz
  4008     064E  2E49               	goto	u1285
  4009     064F                     l1821:
  4010     064F  3001               	movlw	1
  4011     0650  00FF               	movwf	btemp+1
  4012     0651  087F               	movf	btemp+1,w
  4013     0652  07B4               	addwf	___awdiv@counter,f
  4014     0653                     l1823:
  4015     0653  1FB1               	btfss	___awdiv@divisor+1,7
  4016     0654  2E56               	goto	u1291
  4017     0655  2E57               	goto	u1290
  4018     0656                     u1291:
  4019     0656  2E48               	goto	l1819
  4020     0657                     u1290:
  4021     0657                     l1825:
  4022     0657  3001               	movlw	1
  4023     0658                     u1305:
  4024     0658  1003               	clrc
  4025     0659  0DB6               	rlf	___awdiv@quotient,f
  4026     065A  0DB7               	rlf	___awdiv@quotient+1,f
  4027     065B  3EFF               	addlw	-1
  4028     065C  1D03               	skipz
  4029     065D  2E58               	goto	u1305
  4030     065E  0831               	movf	___awdiv@divisor+1,w
  4031     065F  0233               	subwf	___awdiv@dividend+1,w
  4032     0660  1D03               	skipz
  4033     0661  2E64               	goto	u1315
  4034     0662  0830               	movf	___awdiv@divisor,w
  4035     0663  0232               	subwf	___awdiv@dividend,w
  4036     0664                     u1315:
  4037     0664  1C03               	skipc
  4038     0665  2E67               	goto	u1311
  4039     0666  2E68               	goto	u1310
  4040     0667                     u1311:
  4041     0667  2E6F               	goto	l1831
  4042     0668                     u1310:
  4043     0668                     l1827:
  4044     0668  0830               	movf	___awdiv@divisor,w
  4045     0669  02B2               	subwf	___awdiv@dividend,f
  4046     066A  0831               	movf	___awdiv@divisor+1,w
  4047     066B  1C03               	skipc
  4048     066C  03B3               	decf	___awdiv@dividend+1,f
  4049     066D  02B3               	subwf	___awdiv@dividend+1,f
  4050     066E                     l1829:
  4051     066E  1436               	bsf	___awdiv@quotient,0
  4052     066F                     l1831:
  4053     066F  3001               	movlw	1
  4054     0670                     u1325:
  4055     0670  1003               	clrc
  4056     0671  0CB1               	rrf	___awdiv@divisor+1,f
  4057     0672  0CB0               	rrf	___awdiv@divisor,f
  4058     0673  3EFF               	addlw	-1
  4059     0674  1D03               	skipz
  4060     0675  2E70               	goto	u1325
  4061     0676                     l1833:
  4062     0676  3001               	movlw	1
  4063     0677  02B4               	subwf	___awdiv@counter,f
  4064     0678  1D03               	btfss	3,2
  4065     0679  2E7B               	goto	u1331
  4066     067A  2E7C               	goto	u1330
  4067     067B                     u1331:
  4068     067B  2E57               	goto	l1825
  4069     067C                     u1330:
  4070     067C                     l1835:
  4071     067C  0835               	movf	___awdiv@sign,w
  4072     067D  1903               	btfsc	3,2
  4073     067E  2E80               	goto	u1341
  4074     067F  2E81               	goto	u1340
  4075     0680                     u1341:
  4076     0680  2E86               	goto	l1839
  4077     0681                     u1340:
  4078     0681                     l1837:
  4079     0681  09B6               	comf	___awdiv@quotient,f
  4080     0682  09B7               	comf	___awdiv@quotient+1,f
  4081     0683  0AB6               	incf	___awdiv@quotient,f
  4082     0684  1903               	skipnz
  4083     0685  0AB7               	incf	___awdiv@quotient+1,f
  4084     0686                     l1839:
  4085     0686  0837               	movf	___awdiv@quotient+1,w
  4086     0687  00B1               	movwf	?___awdiv+1
  4087     0688  0836               	movf	___awdiv@quotient,w
  4088     0689  00B0               	movwf	?___awdiv
  4089     068A                     l557:
  4090     068A  0008               	return
  4091     068B                     __end_of___awdiv:
  4092                           
  4093                           	psect	text17
  4094     0D3B                     __ptext17:	
  4095 ;; *************** function _Lcd_Write_String *****************
  4096 ;; Defined at:
  4097 ;;		line 104 in file "lcd.c"
  4098 ;; Parameters:    Size  Location     Type
  4099 ;;  a               1    wreg     PTR unsigned char 
  4100 ;;		 -> lineLCD(16), 
  4101 ;; Auto vars:     Size  Location     Type
  4102 ;;  a               1   22[BANK0 ] PTR unsigned char 
  4103 ;;		 -> lineLCD(16), 
  4104 ;;  i               2   20[BANK0 ] int 
  4105 ;; Return value:  Size  Location     Type
  4106 ;;                  1    wreg      void 
  4107 ;; Registers used:
  4108 ;;		wreg, fsr0l, fsr0h, status,2, status,0, pclath, cstack
  4109 ;; Tracked objects:
  4110 ;;		On entry : 0/0
  4111 ;;		On exit  : 0/0
  4112 ;;		Unchanged: 0/0
  4113 ;; Data sizes:     COMMON   BANK0   BANK1   BANK3   BANK2
  4114 ;;      Params:         0       0       0       0       0
  4115 ;;      Locals:         0       3       0       0       0
  4116 ;;      Temps:          0       1       0       0       0
  4117 ;;      Totals:         0       4       0       0       0
  4118 ;;Total ram usage:        4 bytes
  4119 ;; Hardware stack levels used: 1
  4120 ;; Hardware stack levels required when called: 6
  4121 ;; This function calls:
  4122 ;;		_Lcd_Write_Char
  4123 ;; This function is called by:
  4124 ;;		_main
  4125 ;; This function uses a non-reentrant model
  4126 ;;
  4127                           
  4128     0D3B                     _Lcd_Write_String:	
  4129                           ;psect for function _Lcd_Write_String
  4130                           
  4131                           
  4132                           ;incstack = 0
  4133                           ; Regs used in _Lcd_Write_String: [wreg-fsr0h+status,2+status,0+pclath+cstack]
  4134                           ;Lcd_Write_String@a stored from wreg
  4135     0D3B  1283               	bcf	3,5	;RP0=0, select bank0
  4136     0D3C  1303               	bcf	3,6	;RP1=0, select bank0
  4137     0D3D  00B6               	movwf	Lcd_Write_String@a
  4138     0D3E                     l2147:
  4139                           
  4140                           ;lcd.c: 105:     int i;;lcd.c: 106:     for (i = 0; a[i] != '\0'; i++)
  4141     0D3E  01B4               	clrf	Lcd_Write_String@i
  4142     0D3F  01B5               	clrf	Lcd_Write_String@i+1
  4143     0D40  2D54               	goto	l2153
  4144     0D41                     l2149:
  4145                           
  4146                           ;lcd.c: 107:         Lcd_Write_Char(a[i]);
  4147     0D41  0834               	movf	Lcd_Write_String@i,w
  4148     0D42  0736               	addwf	Lcd_Write_String@a,w
  4149     0D43  00B3               	movwf	??_Lcd_Write_String
  4150     0D44  0833               	movf	??_Lcd_Write_String,w
  4151     0D45  0084               	movwf	4
  4152     0D46  0800               	movf	0,w
  4153     0D47  120A  158A  24C6  120A  158A  	fcall	_Lcd_Write_Char
  4154     0D4C                     l2151:
  4155     0D4C  3001               	movlw	1
  4156     0D4D  1283               	bcf	3,5	;RP0=0, select bank0
  4157     0D4E  1303               	bcf	3,6	;RP1=0, select bank0
  4158     0D4F  07B4               	addwf	Lcd_Write_String@i,f
  4159     0D50  1803               	skipnc
  4160     0D51  0AB5               	incf	Lcd_Write_String@i+1,f
  4161     0D52  3000               	movlw	0
  4162     0D53  07B5               	addwf	Lcd_Write_String@i+1,f
  4163     0D54                     l2153:
  4164     0D54  0834               	movf	Lcd_Write_String@i,w
  4165     0D55  0736               	addwf	Lcd_Write_String@a,w
  4166     0D56  00B3               	movwf	??_Lcd_Write_String
  4167     0D57  0833               	movf	??_Lcd_Write_String,w
  4168     0D58  0084               	movwf	4
  4169     0D59  1383               	bcf	3,7	;select IRP bank0
  4170     0D5A  0800               	movf	0,w
  4171     0D5B  1D03               	btfss	3,2
  4172     0D5C  2D5E               	goto	u1941
  4173     0D5D  2D5F               	goto	u1940
  4174     0D5E                     u1941:
  4175     0D5E  2D41               	goto	l2149
  4176     0D5F                     u1940:
  4177     0D5F                     l67:
  4178     0D5F  0008               	return
  4179     0D60                     __end_of_Lcd_Write_String:
  4180                           
  4181                           	psect	text18
  4182     0CC6                     __ptext18:	
  4183 ;; *************** function _Lcd_Write_Char *****************
  4184 ;; Defined at:
  4185 ;;		line 96 in file "lcd.c"
  4186 ;; Parameters:    Size  Location     Type
  4187 ;;  a               1    wreg     unsigned char 
  4188 ;; Auto vars:     Size  Location     Type
  4189 ;;  a               1   18[BANK0 ] unsigned char 
  4190 ;; Return value:  Size  Location     Type
  4191 ;;                  1    wreg      void 
  4192 ;; Registers used:
  4193 ;;		wreg, status,2, status,0, pclath, cstack
  4194 ;; Tracked objects:
  4195 ;;		On entry : 0/0
  4196 ;;		On exit  : 0/0
  4197 ;;		Unchanged: 0/0
  4198 ;; Data sizes:     COMMON   BANK0   BANK1   BANK3   BANK2
  4199 ;;      Params:         0       0       0       0       0
  4200 ;;      Locals:         0       1       0       0       0
  4201 ;;      Temps:          0       1       0       0       0
  4202 ;;      Totals:         0       2       0       0       0
  4203 ;;Total ram usage:        2 bytes
  4204 ;; Hardware stack levels used: 1
  4205 ;; Hardware stack levels required when called: 5
  4206 ;; This function calls:
  4207 ;;		_Lcd_Port
  4208 ;; This function is called by:
  4209 ;;		_Lcd_Write_String
  4210 ;; This function uses a non-reentrant model
  4211 ;;
  4212                           
  4213     0CC6                     _Lcd_Write_Char:	
  4214                           ;psect for function _Lcd_Write_Char
  4215                           
  4216                           
  4217                           ;incstack = 0
  4218                           ; Regs used in _Lcd_Write_Char: [wreg+status,2+status,0+pclath+cstack]
  4219                           ;Lcd_Write_Char@a stored from wreg
  4220     0CC6  1283               	bcf	3,5	;RP0=0, select bank0
  4221     0CC7  1303               	bcf	3,6	;RP1=0, select bank0
  4222     0CC8  00B2               	movwf	Lcd_Write_Char@a
  4223     0CC9                     l1977:
  4224                           
  4225                           ;lcd.c: 97:     RC0 = 1;
  4226     0CC9  1407               	bsf	7,0	;volatile
  4227     0CCA                     l1979:
  4228                           
  4229                           ;lcd.c: 98:     Lcd_Port(a);
  4230     0CCA  0832               	movf	Lcd_Write_Char@a,w
  4231     0CCB  120A  158A  2638  120A  158A  	fcall	_Lcd_Port
  4232     0CD0                     l1981:
  4233                           
  4234                           ;lcd.c: 99:     RC1 = 1;
  4235     0CD0  1283               	bcf	3,5	;RP0=0, select bank0
  4236     0CD1  1303               	bcf	3,6	;RP1=0, select bank0
  4237     0CD2  1487               	bsf	7,1	;volatile
  4238     0CD3                     l1983:
  4239                           
  4240                           ;lcd.c: 100:     _delay((unsigned long)((40)*(8000000/4000000.0)));
  4241     0CD3  3019               	movlw	25
  4242     0CD4  1283               	bcf	3,5	;RP0=0, select bank0
  4243     0CD5  1303               	bcf	3,6	;RP1=0, select bank0
  4244     0CD6  00B1               	movwf	??_Lcd_Write_Char
  4245     0CD7                     u2227:
  4246     0CD7  0BB1               	decfsz	??_Lcd_Write_Char,f
  4247     0CD8  2CD7               	goto	u2227
  4248     0CD9  2CDA               	nop2
  4249     0CDA                     l1985:
  4250                           
  4251                           ;lcd.c: 101:     RC1 = 0;
  4252     0CDA  1283               	bcf	3,5	;RP0=0, select bank0
  4253     0CDB  1303               	bcf	3,6	;RP1=0, select bank0
  4254     0CDC  1087               	bcf	7,1	;volatile
  4255     0CDD                     l61:
  4256     0CDD  0008               	return
  4257     0CDE                     __end_of_Lcd_Write_Char:
  4258                           
  4259                           	psect	text19
  4260     0D19                     __ptext19:	
  4261 ;; *************** function _Lcd_Set_Cursor *****************
  4262 ;; Defined at:
  4263 ;;		line 68 in file "lcd.c"
  4264 ;; Parameters:    Size  Location     Type
  4265 ;;  a               1    wreg     unsigned char 
  4266 ;;  b               1   20[BANK0 ] unsigned char 
  4267 ;; Auto vars:     Size  Location     Type
  4268 ;;  a               1   21[BANK0 ] unsigned char 
  4269 ;;  temp            1   22[BANK0 ] unsigned char 
  4270 ;; Return value:  Size  Location     Type
  4271 ;;                  1    wreg      void 
  4272 ;; Registers used:
  4273 ;;		wreg, status,2, status,0, pclath, cstack
  4274 ;; Tracked objects:
  4275 ;;		On entry : 0/0
  4276 ;;		On exit  : 0/0
  4277 ;;		Unchanged: 0/0
  4278 ;; Data sizes:     COMMON   BANK0   BANK1   BANK3   BANK2
  4279 ;;      Params:         0       1       0       0       0
  4280 ;;      Locals:         0       2       0       0       0
  4281 ;;      Temps:          0       0       0       0       0
  4282 ;;      Totals:         0       3       0       0       0
  4283 ;;Total ram usage:        3 bytes
  4284 ;; Hardware stack levels used: 1
  4285 ;; Hardware stack levels required when called: 6
  4286 ;; This function calls:
  4287 ;;		_Lcd_Cmd
  4288 ;; This function is called by:
  4289 ;;		_main
  4290 ;; This function uses a non-reentrant model
  4291 ;;
  4292                           
  4293     0D19                     _Lcd_Set_Cursor:	
  4294                           ;psect for function _Lcd_Set_Cursor
  4295                           
  4296                           
  4297                           ;incstack = 0
  4298                           ; Regs used in _Lcd_Set_Cursor: [wreg+status,2+status,0+pclath+cstack]
  4299                           ;Lcd_Set_Cursor@a stored from wreg
  4300     0D19  1283               	bcf	3,5	;RP0=0, select bank0
  4301     0D1A  1303               	bcf	3,6	;RP1=0, select bank0
  4302     0D1B  00B5               	movwf	Lcd_Set_Cursor@a
  4303     0D1C                     l2135:
  4304                           
  4305                           ;lcd.c: 69:     unsigned char temp;;lcd.c: 70:     if (a == 1) {
  4306     0D1C  0335               	decf	Lcd_Set_Cursor@a,w
  4307     0D1D  1D03               	btfss	3,2
  4308     0D1E  2D20               	goto	u1921
  4309     0D1F  2D21               	goto	u1920
  4310     0D20                     u1921:
  4311     0D20  2D2B               	goto	l2141
  4312     0D21                     u1920:
  4313     0D21                     l2137:
  4314                           
  4315                           ;lcd.c: 71:         temp = 0x80 + b - 1;
  4316     0D21  0834               	movf	Lcd_Set_Cursor@b,w
  4317     0D22  3E7F               	addlw	127
  4318     0D23  00B6               	movwf	Lcd_Set_Cursor@temp
  4319     0D24                     l2139:
  4320                           
  4321                           ;lcd.c: 72:         Lcd_Cmd(temp);
  4322     0D24  0836               	movf	Lcd_Set_Cursor@temp,w
  4323     0D25  120A  158A  24DE  120A  158A  	fcall	_Lcd_Cmd
  4324                           
  4325                           ;lcd.c: 74:     } else if (a == 2) {
  4326     0D2A  2D3A               	goto	l55
  4327     0D2B                     l2141:
  4328     0D2B  3002               	movlw	2
  4329     0D2C  0635               	xorwf	Lcd_Set_Cursor@a,w
  4330     0D2D  1D03               	btfss	3,2
  4331     0D2E  2D30               	goto	u1931
  4332     0D2F  2D31               	goto	u1930
  4333     0D30                     u1931:
  4334     0D30  2D3A               	goto	l55
  4335     0D31                     u1930:
  4336     0D31                     l2143:
  4337                           
  4338                           ;lcd.c: 75:         temp = 0xC0 + b - 1;
  4339     0D31  0834               	movf	Lcd_Set_Cursor@b,w
  4340     0D32  3EBF               	addlw	191
  4341     0D33  00B6               	movwf	Lcd_Set_Cursor@temp
  4342     0D34                     l2145:
  4343                           
  4344                           ;lcd.c: 76:         Lcd_Cmd(temp);
  4345     0D34  0836               	movf	Lcd_Set_Cursor@temp,w
  4346     0D35  120A  158A  24DE  120A  158A  	fcall	_Lcd_Cmd
  4347     0D3A                     l55:
  4348     0D3A  0008               	return
  4349     0D3B                     __end_of_Lcd_Set_Cursor:
  4350                           
  4351                           	psect	text20
  4352     0C8E                     __ptext20:	
  4353 ;; *************** function _Lcd_Clear *****************
  4354 ;; Defined at:
  4355 ;;		line 63 in file "lcd.c"
  4356 ;; Parameters:    Size  Location     Type
  4357 ;;		None
  4358 ;; Auto vars:     Size  Location     Type
  4359 ;;		None
  4360 ;; Return value:  Size  Location     Type
  4361 ;;                  1    wreg      void 
  4362 ;; Registers used:
  4363 ;;		wreg, status,2, status,0, pclath, cstack
  4364 ;; Tracked objects:
  4365 ;;		On entry : 0/0
  4366 ;;		On exit  : 0/0
  4367 ;;		Unchanged: 0/0
  4368 ;; Data sizes:     COMMON   BANK0   BANK1   BANK3   BANK2
  4369 ;;      Params:         0       0       0       0       0
  4370 ;;      Locals:         0       0       0       0       0
  4371 ;;      Temps:          0       0       0       0       0
  4372 ;;      Totals:         0       0       0       0       0
  4373 ;;Total ram usage:        0 bytes
  4374 ;; Hardware stack levels used: 1
  4375 ;; Hardware stack levels required when called: 6
  4376 ;; This function calls:
  4377 ;;		_Lcd_Cmd
  4378 ;; This function is called by:
  4379 ;;		_main
  4380 ;; This function uses a non-reentrant model
  4381 ;;
  4382                           
  4383     0C8E                     _Lcd_Clear:	
  4384                           ;psect for function _Lcd_Clear
  4385                           
  4386     0C8E                     l2133:	
  4387                           ;incstack = 0
  4388                           ; Regs used in _Lcd_Clear: [wreg+status,2+status,0+pclath+cstack]
  4389                           
  4390                           
  4391                           ;lcd.c: 64:     Lcd_Cmd(0);
  4392     0C8E  3000               	movlw	0
  4393     0C8F  120A  158A  24DE  120A  158A  	fcall	_Lcd_Cmd
  4394                           
  4395                           ;lcd.c: 65:     Lcd_Cmd(1);
  4396     0C94  3001               	movlw	1
  4397     0C95  120A  158A  24DE  120A  158A  	fcall	_Lcd_Cmd
  4398     0C9A                     l49:
  4399     0C9A  0008               	return
  4400     0C9B                     __end_of_Lcd_Clear:
  4401                           
  4402                           	psect	text21
  4403     0CDE                     __ptext21:	
  4404 ;; *************** function _Lcd_Cmd *****************
  4405 ;; Defined at:
  4406 ;;		line 55 in file "lcd.c"
  4407 ;; Parameters:    Size  Location     Type
  4408 ;;  a               1    wreg     unsigned char 
  4409 ;; Auto vars:     Size  Location     Type
  4410 ;;  a               1   19[BANK0 ] unsigned char 
  4411 ;; Return value:  Size  Location     Type
  4412 ;;                  1    wreg      void 
  4413 ;; Registers used:
  4414 ;;		wreg, status,2, status,0, pclath, cstack
  4415 ;; Tracked objects:
  4416 ;;		On entry : 0/0
  4417 ;;		On exit  : 0/0
  4418 ;;		Unchanged: 0/0
  4419 ;; Data sizes:     COMMON   BANK0   BANK1   BANK3   BANK2
  4420 ;;      Params:         0       0       0       0       0
  4421 ;;      Locals:         0       1       0       0       0
  4422 ;;      Temps:          0       2       0       0       0
  4423 ;;      Totals:         0       3       0       0       0
  4424 ;;Total ram usage:        3 bytes
  4425 ;; Hardware stack levels used: 1
  4426 ;; Hardware stack levels required when called: 5
  4427 ;; This function calls:
  4428 ;;		_Lcd_Port
  4429 ;; This function is called by:
  4430 ;;		_Lcd_Clear
  4431 ;;		_Lcd_Set_Cursor
  4432 ;;		_Lcd_Init
  4433 ;;		_Lcd_Shift_Right
  4434 ;;		_Lcd_Shift_Left
  4435 ;; This function uses a non-reentrant model
  4436 ;;
  4437                           
  4438     0CDE                     _Lcd_Cmd:	
  4439                           ;psect for function _Lcd_Cmd
  4440                           
  4441                           
  4442                           ;incstack = 0
  4443                           ; Regs used in _Lcd_Cmd: [wreg+status,2+status,0+pclath+cstack]
  4444                           ;Lcd_Cmd@a stored from wreg
  4445     0CDE  1283               	bcf	3,5	;RP0=0, select bank0
  4446     0CDF  1303               	bcf	3,6	;RP1=0, select bank0
  4447     0CE0  00B3               	movwf	Lcd_Cmd@a
  4448     0CE1                     l1759:
  4449                           
  4450                           ;lcd.c: 56:     RC0 = 0;
  4451     0CE1  1007               	bcf	7,0	;volatile
  4452     0CE2                     l1761:
  4453                           
  4454                           ;lcd.c: 57:     Lcd_Port(a);
  4455     0CE2  0833               	movf	Lcd_Cmd@a,w
  4456     0CE3  120A  158A  2638  120A  158A  	fcall	_Lcd_Port
  4457     0CE8                     l1763:
  4458                           
  4459                           ;lcd.c: 58:     RC1 = 1;
  4460     0CE8  1283               	bcf	3,5	;RP0=0, select bank0
  4461     0CE9  1303               	bcf	3,6	;RP1=0, select bank0
  4462     0CEA  1487               	bsf	7,1	;volatile
  4463     0CEB                     l1765:
  4464                           
  4465                           ;lcd.c: 59:     _delay((unsigned long)((4)*(8000000/4000.0)));
  4466     0CEB  300B               	movlw	11
  4467     0CEC  1283               	bcf	3,5	;RP0=0, select bank0
  4468     0CED  1303               	bcf	3,6	;RP1=0, select bank0
  4469     0CEE  00B2               	movwf	??_Lcd_Cmd+1
  4470     0CEF  3061               	movlw	97
  4471     0CF0  00B1               	movwf	??_Lcd_Cmd
  4472     0CF1                     u2237:
  4473     0CF1  0BB1               	decfsz	??_Lcd_Cmd,f
  4474     0CF2  2CF1               	goto	u2237
  4475     0CF3  0BB2               	decfsz	??_Lcd_Cmd+1,f
  4476     0CF4  2CF1               	goto	u2237
  4477     0CF5  2CF6               	nop2
  4478     0CF6                     l1767:
  4479                           
  4480                           ;lcd.c: 60:     RC1 = 0;
  4481     0CF6  1283               	bcf	3,5	;RP0=0, select bank0
  4482     0CF7  1303               	bcf	3,6	;RP1=0, select bank0
  4483     0CF8  1087               	bcf	7,1	;volatile
  4484     0CF9                     l46:
  4485     0CF9  0008               	return
  4486     0CFA                     __end_of_Lcd_Cmd:
  4487                           
  4488                           	psect	text22
  4489     0E38                     __ptext22:	
  4490 ;; *************** function _Lcd_Port *****************
  4491 ;; Defined at:
  4492 ;;		line 13 in file "lcd.c"
  4493 ;; Parameters:    Size  Location     Type
  4494 ;;  a               1    wreg     unsigned char 
  4495 ;; Auto vars:     Size  Location     Type
  4496 ;;  a               1   16[BANK0 ] unsigned char 
  4497 ;; Return value:  Size  Location     Type
  4498 ;;                  1    wreg      void 
  4499 ;; Registers used:
  4500 ;;		wreg
  4501 ;; Tracked objects:
  4502 ;;		On entry : 0/0
  4503 ;;		On exit  : 0/0
  4504 ;;		Unchanged: 0/0
  4505 ;; Data sizes:     COMMON   BANK0   BANK1   BANK3   BANK2
  4506 ;;      Params:         0       0       0       0       0
  4507 ;;      Locals:         0       1       0       0       0
  4508 ;;      Temps:          0       0       0       0       0
  4509 ;;      Totals:         0       1       0       0       0
  4510 ;;Total ram usage:        1 bytes
  4511 ;; Hardware stack levels used: 1
  4512 ;; Hardware stack levels required when called: 4
  4513 ;; This function calls:
  4514 ;;		Nothing
  4515 ;; This function is called by:
  4516 ;;		_Lcd_Cmd
  4517 ;;		_Lcd_Init
  4518 ;;		_Lcd_Write_Char
  4519 ;; This function uses a non-reentrant model
  4520 ;;
  4521                           
  4522     0E38                     _Lcd_Port:	
  4523                           ;psect for function _Lcd_Port
  4524                           
  4525                           
  4526                           ;incstack = 0
  4527                           ; Regs used in _Lcd_Port: [wreg]
  4528                           ;Lcd_Port@a stored from wreg
  4529     0E38  1283               	bcf	3,5	;RP0=0, select bank0
  4530     0E39  1303               	bcf	3,6	;RP1=0, select bank0
  4531     0E3A  00B0               	movwf	Lcd_Port@a
  4532     0E3B                     l1741:
  4533                           
  4534                           ;lcd.c: 14:     if (a & 1)
  4535     0E3B  1C30               	btfss	Lcd_Port@a,0
  4536     0E3C  2E3E               	goto	u1081
  4537     0E3D  2E3F               	goto	u1080
  4538     0E3E                     u1081:
  4539     0E3E  2E41               	goto	l27
  4540     0E3F                     u1080:
  4541     0E3F                     l1743:
  4542                           
  4543                           ;lcd.c: 15:         RD0 = 1;
  4544     0E3F  1408               	bsf	8,0	;volatile
  4545     0E40  2E42               	goto	l28
  4546     0E41                     l27:	
  4547                           ;lcd.c: 16:     else
  4548                           
  4549                           
  4550                           ;lcd.c: 17:         RD0 = 0;
  4551     0E41  1008               	bcf	8,0	;volatile
  4552     0E42                     l28:
  4553                           
  4554                           ;lcd.c: 19:     if (a & 2)
  4555     0E42  1CB0               	btfss	Lcd_Port@a,1
  4556     0E43  2E45               	goto	u1091
  4557     0E44  2E46               	goto	u1090
  4558     0E45                     u1091:
  4559     0E45  2E48               	goto	l29
  4560     0E46                     u1090:
  4561     0E46                     l1745:
  4562                           
  4563                           ;lcd.c: 20:         RD1 = 1;
  4564     0E46  1488               	bsf	8,1	;volatile
  4565     0E47  2E49               	goto	l30
  4566     0E48                     l29:	
  4567                           ;lcd.c: 21:     else
  4568                           
  4569                           
  4570                           ;lcd.c: 22:         RD1 = 0;
  4571     0E48  1088               	bcf	8,1	;volatile
  4572     0E49                     l30:
  4573                           
  4574                           ;lcd.c: 24:     if (a & 4)
  4575     0E49  1D30               	btfss	Lcd_Port@a,2
  4576     0E4A  2E4C               	goto	u1101
  4577     0E4B  2E4D               	goto	u1100
  4578     0E4C                     u1101:
  4579     0E4C  2E4F               	goto	l31
  4580     0E4D                     u1100:
  4581     0E4D                     l1747:
  4582                           
  4583                           ;lcd.c: 25:         RD2 = 1;
  4584     0E4D  1508               	bsf	8,2	;volatile
  4585     0E4E  2E50               	goto	l32
  4586     0E4F                     l31:	
  4587                           ;lcd.c: 26:     else
  4588                           
  4589                           
  4590                           ;lcd.c: 27:         RD2 = 0;
  4591     0E4F  1108               	bcf	8,2	;volatile
  4592     0E50                     l32:
  4593                           
  4594                           ;lcd.c: 29:     if (a & 8)
  4595     0E50  1DB0               	btfss	Lcd_Port@a,3
  4596     0E51  2E53               	goto	u1111
  4597     0E52  2E54               	goto	u1110
  4598     0E53                     u1111:
  4599     0E53  2E56               	goto	l33
  4600     0E54                     u1110:
  4601     0E54                     l1749:
  4602                           
  4603                           ;lcd.c: 30:         RD3 = 1;
  4604     0E54  1588               	bsf	8,3	;volatile
  4605     0E55  2E57               	goto	l34
  4606     0E56                     l33:	
  4607                           ;lcd.c: 31:     else
  4608                           
  4609                           
  4610                           ;lcd.c: 32:         RD3 = 0;
  4611     0E56  1188               	bcf	8,3	;volatile
  4612     0E57                     l34:
  4613                           
  4614                           ;lcd.c: 34:     if (a & 16)
  4615     0E57  1E30               	btfss	Lcd_Port@a,4
  4616     0E58  2E5A               	goto	u1121
  4617     0E59  2E5B               	goto	u1120
  4618     0E5A                     u1121:
  4619     0E5A  2E5D               	goto	l35
  4620     0E5B                     u1120:
  4621     0E5B                     l1751:
  4622                           
  4623                           ;lcd.c: 35:         RD4 = 1;
  4624     0E5B  1608               	bsf	8,4	;volatile
  4625     0E5C  2E5E               	goto	l36
  4626     0E5D                     l35:	
  4627                           ;lcd.c: 36:     else
  4628                           
  4629                           
  4630                           ;lcd.c: 37:         RD4 = 0;
  4631     0E5D  1208               	bcf	8,4	;volatile
  4632     0E5E                     l36:
  4633                           
  4634                           ;lcd.c: 39:     if (a & 32)
  4635     0E5E  1EB0               	btfss	Lcd_Port@a,5
  4636     0E5F  2E61               	goto	u1131
  4637     0E60  2E62               	goto	u1130
  4638     0E61                     u1131:
  4639     0E61  2E64               	goto	l37
  4640     0E62                     u1130:
  4641     0E62                     l1753:
  4642                           
  4643                           ;lcd.c: 40:         RD5 = 1;
  4644     0E62  1688               	bsf	8,5	;volatile
  4645     0E63  2E65               	goto	l38
  4646     0E64                     l37:	
  4647                           ;lcd.c: 41:     else
  4648                           
  4649                           
  4650                           ;lcd.c: 42:         RD5 = 0;
  4651     0E64  1288               	bcf	8,5	;volatile
  4652     0E65                     l38:
  4653                           
  4654                           ;lcd.c: 44:     if (a & 64)
  4655     0E65  1F30               	btfss	Lcd_Port@a,6
  4656     0E66  2E68               	goto	u1141
  4657     0E67  2E69               	goto	u1140
  4658     0E68                     u1141:
  4659     0E68  2E6B               	goto	l39
  4660     0E69                     u1140:
  4661     0E69                     l1755:
  4662                           
  4663                           ;lcd.c: 45:         RD6 = 1;
  4664     0E69  1708               	bsf	8,6	;volatile
  4665     0E6A  2E6C               	goto	l40
  4666     0E6B                     l39:	
  4667                           ;lcd.c: 46:     else
  4668                           
  4669                           
  4670                           ;lcd.c: 47:         RD6 = 0;
  4671     0E6B  1308               	bcf	8,6	;volatile
  4672     0E6C                     l40:
  4673                           
  4674                           ;lcd.c: 49:     if (a & 128)
  4675     0E6C  1FB0               	btfss	Lcd_Port@a,7
  4676     0E6D  2E6F               	goto	u1151
  4677     0E6E  2E70               	goto	u1150
  4678     0E6F                     u1151:
  4679     0E6F  2E72               	goto	l41
  4680     0E70                     u1150:
  4681     0E70                     l1757:
  4682                           
  4683                           ;lcd.c: 50:         RD7 = 1;
  4684     0E70  1788               	bsf	8,7	;volatile
  4685     0E71  2E73               	goto	l43
  4686     0E72                     l41:	
  4687                           ;lcd.c: 51:     else
  4688                           
  4689                           
  4690                           ;lcd.c: 52:         RD7 = 0;
  4691     0E72  1388               	bcf	8,7	;volatile
  4692     0E73                     l43:
  4693     0E73  0008               	return
  4694     0E74                     __end_of_Lcd_Port:
  4695                           
  4696                           	psect	text23
  4697     0C45                     __ptext23:	
  4698 ;; *************** function _I2C_Master_RepeatedStart *****************
  4699 ;; Defined at:
  4700 ;;		line 47 in file "I2C.c"
  4701 ;; Parameters:    Size  Location     Type
  4702 ;;		None
  4703 ;; Auto vars:     Size  Location     Type
  4704 ;;		None
  4705 ;; Return value:  Size  Location     Type
  4706 ;;                  1    wreg      void 
  4707 ;; Registers used:
  4708 ;;		wreg, status,2, status,0, pclath, cstack
  4709 ;; Tracked objects:
  4710 ;;		On entry : 0/0
  4711 ;;		On exit  : 0/0
  4712 ;;		Unchanged: 0/0
  4713 ;; Data sizes:     COMMON   BANK0   BANK1   BANK3   BANK2
  4714 ;;      Params:         0       0       0       0       0
  4715 ;;      Locals:         0       0       0       0       0
  4716 ;;      Temps:          0       0       0       0       0
  4717 ;;      Totals:         0       0       0       0       0
  4718 ;;Total ram usage:        0 bytes
  4719 ;; Hardware stack levels used: 1
  4720 ;; Hardware stack levels required when called: 5
  4721 ;; This function calls:
  4722 ;;		_I2C_Master_Wait
  4723 ;; This function is called by:
  4724 ;;		_main
  4725 ;; This function uses a non-reentrant model
  4726 ;;
  4727                           
  4728     0C45                     _I2C_Master_RepeatedStart:	
  4729                           ;psect for function _I2C_Master_RepeatedStart
  4730                           
  4731     0C45                     l2155:	
  4732                           ;incstack = 0
  4733                           ; Regs used in _I2C_Master_RepeatedStart: [wreg+status,2+status,0+pclath+cstack]
  4734                           
  4735                           
  4736                           ;I2C.c: 49:     I2C_Master_Wait();
  4737     0C45  120A  158A  2481  120A  158A  	fcall	_I2C_Master_Wait
  4738     0C4A                     l2157:
  4739                           
  4740                           ;I2C.c: 50:     SSPCON2bits.RSEN = 1;
  4741     0C4A  1683               	bsf	3,5	;RP0=1, select bank1
  4742     0C4B  1303               	bcf	3,6	;RP1=0, select bank1
  4743     0C4C  1491               	bsf	17,1	;volatile
  4744     0C4D                     l126:
  4745     0C4D  0008               	return
  4746     0C4E                     __end_of_I2C_Master_RepeatedStart:
  4747                           
  4748                           	psect	text24
  4749     0D60                     __ptext24:	
  4750 ;; *************** function _I2C_Master_Read *****************
  4751 ;; Defined at:
  4752 ;;		line 74 in file "I2C.c"
  4753 ;; Parameters:    Size  Location     Type
  4754 ;;  a               2   16[BANK0 ] unsigned short 
  4755 ;; Auto vars:     Size  Location     Type
  4756 ;;  temp            2   20[BANK0 ] unsigned short 
  4757 ;; Return value:  Size  Location     Type
  4758 ;;                  2   16[BANK0 ] unsigned short 
  4759 ;; Registers used:
  4760 ;;		wreg, status,2, status,0, pclath, cstack
  4761 ;; Tracked objects:
  4762 ;;		On entry : 0/0
  4763 ;;		On exit  : 0/0
  4764 ;;		Unchanged: 0/0
  4765 ;; Data sizes:     COMMON   BANK0   BANK1   BANK3   BANK2
  4766 ;;      Params:         0       2       0       0       0
  4767 ;;      Locals:         0       2       0       0       0
  4768 ;;      Temps:          0       2       0       0       0
  4769 ;;      Totals:         0       6       0       0       0
  4770 ;;Total ram usage:        6 bytes
  4771 ;; Hardware stack levels used: 1
  4772 ;; Hardware stack levels required when called: 5
  4773 ;; This function calls:
  4774 ;;		_I2C_Master_Wait
  4775 ;; This function is called by:
  4776 ;;		_main
  4777 ;; This function uses a non-reentrant model
  4778 ;;
  4779                           
  4780     0D60                     _I2C_Master_Read:	
  4781                           ;psect for function _I2C_Master_Read
  4782                           
  4783     0D60                     l2159:	
  4784                           ;incstack = 0
  4785                           ; Regs used in _I2C_Master_Read: [wreg+status,2+status,0+pclath+cstack]
  4786                           
  4787                           
  4788                           ;I2C.c: 74: unsigned short I2C_Master_Read(unsigned short a);I2C.c: 75: {;I2C.c: 76:    
      +                           unsigned short temp;;I2C.c: 77:     I2C_Master_Wait();
  4789     0D60  120A  158A  2481  120A  158A  	fcall	_I2C_Master_Wait
  4790     0D65                     l2161:
  4791                           
  4792                           ;I2C.c: 78:     SSPCON2bits.RCEN = 1;
  4793     0D65  1683               	bsf	3,5	;RP0=1, select bank1
  4794     0D66  1303               	bcf	3,6	;RP1=0, select bank1
  4795     0D67  1591               	bsf	17,3	;volatile
  4796                           
  4797                           ;I2C.c: 79:     I2C_Master_Wait();
  4798     0D68  120A  158A  2481  120A  158A  	fcall	_I2C_Master_Wait
  4799     0D6D                     l2163:
  4800                           
  4801                           ;I2C.c: 80:     temp = SSPBUF;
  4802     0D6D  1283               	bcf	3,5	;RP0=0, select bank0
  4803     0D6E  1303               	bcf	3,6	;RP1=0, select bank0
  4804     0D6F  0813               	movf	19,w	;volatile
  4805     0D70  00B2               	movwf	??_I2C_Master_Read
  4806     0D71  01B3               	clrf	??_I2C_Master_Read+1
  4807     0D72  0832               	movf	??_I2C_Master_Read,w
  4808     0D73  00B4               	movwf	I2C_Master_Read@temp
  4809     0D74  0833               	movf	??_I2C_Master_Read+1,w
  4810     0D75  00B5               	movwf	I2C_Master_Read@temp+1
  4811     0D76                     l2165:
  4812                           
  4813                           ;I2C.c: 81:     I2C_Master_Wait();
  4814     0D76  120A  158A  2481  120A  158A  	fcall	_I2C_Master_Wait
  4815     0D7B                     l2167:
  4816                           
  4817                           ;I2C.c: 82:     if(a == 1){
  4818     0D7B  1283               	bcf	3,5	;RP0=0, select bank0
  4819     0D7C  1303               	bcf	3,6	;RP1=0, select bank0
  4820     0D7D  0330               	decf	I2C_Master_Read@a,w
  4821     0D7E  0431               	iorwf	I2C_Master_Read@a+1,w
  4822     0D7F  1D03               	btfss	3,2
  4823     0D80  2D82               	goto	u1951
  4824     0D81  2D83               	goto	u1950
  4825     0D82                     u1951:
  4826     0D82  2D87               	goto	l135
  4827     0D83                     u1950:
  4828     0D83                     l2169:
  4829                           
  4830                           ;I2C.c: 83:         SSPCON2bits.ACKDT = 0;
  4831     0D83  1683               	bsf	3,5	;RP0=1, select bank1
  4832     0D84  1303               	bcf	3,6	;RP1=0, select bank1
  4833     0D85  1291               	bcf	17,5	;volatile
  4834                           
  4835                           ;I2C.c: 84:     }else{
  4836     0D86  2D8A               	goto	l136
  4837     0D87                     l135:
  4838                           
  4839                           ;I2C.c: 85:         SSPCON2bits.ACKDT = 1;
  4840     0D87  1683               	bsf	3,5	;RP0=1, select bank1
  4841     0D88  1303               	bcf	3,6	;RP1=0, select bank1
  4842     0D89  1691               	bsf	17,5	;volatile
  4843     0D8A                     l136:	
  4844                           ;I2C.c: 86:     }
  4845                           
  4846                           
  4847                           ;I2C.c: 87:     SSPCON2bits.ACKEN = 1;
  4848     0D8A  1611               	bsf	17,4	;volatile
  4849     0D8B                     l2171:
  4850                           
  4851                           ;I2C.c: 88:     return temp;
  4852     0D8B  1283               	bcf	3,5	;RP0=0, select bank0
  4853     0D8C  1303               	bcf	3,6	;RP1=0, select bank0
  4854     0D8D  0835               	movf	I2C_Master_Read@temp+1,w
  4855     0D8E  00B1               	movwf	?_I2C_Master_Read+1
  4856     0D8F  0834               	movf	I2C_Master_Read@temp,w
  4857     0D90  00B0               	movwf	?_I2C_Master_Read
  4858     0D91                     l137:
  4859     0D91  0008               	return
  4860     0D92                     __end_of_I2C_Master_Read:
  4861                           
  4862                           	psect	text25
  4863     0C81                     __ptext25:	
  4864 ;; *************** function _I2C_Master_Wait *****************
  4865 ;; Defined at:
  4866 ;;		line 32 in file "I2C.c"
  4867 ;; Parameters:    Size  Location     Type
  4868 ;;		None
  4869 ;; Auto vars:     Size  Location     Type
  4870 ;;		None
  4871 ;; Return value:  Size  Location     Type
  4872 ;;                  1    wreg      void 
  4873 ;; Registers used:
  4874 ;;		wreg, status,2
  4875 ;; Tracked objects:
  4876 ;;		On entry : 0/0
  4877 ;;		On exit  : 0/0
  4878 ;;		Unchanged: 0/0
  4879 ;; Data sizes:     COMMON   BANK0   BANK1   BANK3   BANK2
  4880 ;;      Params:         0       0       0       0       0
  4881 ;;      Locals:         0       0       0       0       0
  4882 ;;      Temps:          0       0       0       0       0
  4883 ;;      Totals:         0       0       0       0       0
  4884 ;;Total ram usage:        0 bytes
  4885 ;; Hardware stack levels used: 1
  4886 ;; Hardware stack levels required when called: 4
  4887 ;; This function calls:
  4888 ;;		Nothing
  4889 ;; This function is called by:
  4890 ;;		_I2C_Master_Start
  4891 ;;		_I2C_Master_RepeatedStart
  4892 ;;		_I2C_Master_Stop
  4893 ;;		_I2C_Master_Write
  4894 ;;		_I2C_Master_Read
  4895 ;; This function uses a non-reentrant model
  4896 ;;
  4897                           
  4898     0C81                     _I2C_Master_Wait:	
  4899                           ;psect for function _I2C_Master_Wait
  4900                           
  4901     0C81                     l1769:	
  4902                           ;incstack = 0
  4903                           ; Regs used in _I2C_Master_Wait: [wreg+status,2]
  4904                           
  4905     0C81                     l117:	
  4906                           ;I2C.c: 34:     while ((SSPSTAT & 0x04) || (SSPCON2 & 0x1F));
  4907                           
  4908     0C81  1683               	bsf	3,5	;RP0=1, select bank1
  4909     0C82  1303               	bcf	3,6	;RP1=0, select bank1
  4910     0C83  1914               	btfsc	20,2	;volatile
  4911     0C84  2C86               	goto	u1161
  4912     0C85  2C87               	goto	u1160
  4913     0C86                     u1161:
  4914     0C86  2C81               	goto	l117
  4915     0C87                     u1160:
  4916     0C87                     l1771:
  4917     0C87  0811               	movf	17,w	;volatile
  4918     0C88  391F               	andlw	31
  4919     0C89  1D03               	btfss	3,2
  4920     0C8A  2C8C               	goto	u1171
  4921     0C8B  2C8D               	goto	u1170
  4922     0C8C                     u1171:
  4923     0C8C  2C81               	goto	l117
  4924     0C8D                     u1170:
  4925     0C8D                     l120:
  4926     0C8D  0008               	return
  4927     0C8E                     __end_of_I2C_Master_Wait:
  4928                           
  4929                           	psect	text26
  4930     0CFA                     __ptext26:	
  4931 ;; *************** function _BCD_to_Decimal *****************
  4932 ;; Defined at:
  4933 ;;		line 282 in file "E:/Universidad/Semestre2_2023/Digital-2/Lab4/Lab4_Master.X/Lab4_Master.c"
  4934 ;; Parameters:    Size  Location     Type
  4935 ;;  bcd_value       1    wreg     unsigned char 
  4936 ;; Auto vars:     Size  Location     Type
  4937 ;;  bcd_value       1   23[BANK0 ] unsigned char 
  4938 ;;  decimal_valu    1   22[BANK0 ] unsigned char 
  4939 ;;  ones_digit      1   21[BANK0 ] unsigned char 
  4940 ;;  tens_digit      1   20[BANK0 ] unsigned char 
  4941 ;; Return value:  Size  Location     Type
  4942 ;;                  1    wreg      unsigned char 
  4943 ;; Registers used:
  4944 ;;		wreg, status,2, status,0, btemp+1, pclath, cstack
  4945 ;; Tracked objects:
  4946 ;;		On entry : 0/0
  4947 ;;		On exit  : 0/0
  4948 ;;		Unchanged: 0/0
  4949 ;; Data sizes:     COMMON   BANK0   BANK1   BANK3   BANK2
  4950 ;;      Params:         0       0       0       0       0
  4951 ;;      Locals:         0       4       0       0       0
  4952 ;;      Temps:          0       1       0       0       0
  4953 ;;      Totals:         0       5       0       0       0
  4954 ;;Total ram usage:        5 bytes
  4955 ;; Hardware stack levels used: 1
  4956 ;; Hardware stack levels required when called: 5
  4957 ;; This function calls:
  4958 ;;		___bmul
  4959 ;; This function is called by:
  4960 ;;		_main
  4961 ;; This function uses a non-reentrant model
  4962 ;;
  4963                           
  4964     0CFA                     _BCD_to_Decimal:	
  4965                           ;psect for function _BCD_to_Decimal
  4966                           
  4967                           
  4968                           ;incstack = 0
  4969                           ; Regs used in _BCD_to_Decimal: [wreg+status,2+status,0+btemp+1+pclath+cstack]
  4970                           ;BCD_to_Decimal@bcd_value stored from wreg
  4971     0CFA  1283               	bcf	3,5	;RP0=0, select bank0
  4972     0CFB  1303               	bcf	3,6	;RP1=0, select bank0
  4973     0CFC  00B7               	movwf	BCD_to_Decimal@bcd_value
  4974     0CFD                     l2241:
  4975                           
  4976                           ;E:/Universidad/Semestre2_2023/Digital-2/Lab4/Lab4_Master.X/Lab4_Master.c: 284:     uint
      +                          8_t tens_digit = (bcd_value >> 4) & 0x0F;
  4977     0CFD  0837               	movf	BCD_to_Decimal@bcd_value,w
  4978     0CFE  00B3               	movwf	??_BCD_to_Decimal
  4979     0CFF  3004               	movlw	4
  4980     0D00                     u1965:
  4981     0D00  1003               	clrc
  4982     0D01  0CB3               	rrf	??_BCD_to_Decimal,f
  4983     0D02  3EFF               	addlw	-1
  4984     0D03  1D03               	skipz
  4985     0D04  2D00               	goto	u1965
  4986     0D05  0833               	movf	??_BCD_to_Decimal,w
  4987     0D06  390F               	andlw	15
  4988     0D07  00B4               	movwf	BCD_to_Decimal@tens_digit
  4989     0D08                     l2243:
  4990                           
  4991                           ;E:/Universidad/Semestre2_2023/Digital-2/Lab4/Lab4_Master.X/Lab4_Master.c: 287:     uint
      +                          8_t ones_digit = bcd_value & 0x0F;
  4992     0D08  0837               	movf	BCD_to_Decimal@bcd_value,w
  4993     0D09  390F               	andlw	15
  4994     0D0A  00B5               	movwf	BCD_to_Decimal@ones_digit
  4995     0D0B                     l2245:
  4996                           
  4997                           ;E:/Universidad/Semestre2_2023/Digital-2/Lab4/Lab4_Master.X/Lab4_Master.c: 290:     uint
      +                          8_t decimal_value = (tens_digit * 10) + ones_digit;
  4998     0D0B  300A               	movlw	10
  4999     0D0C  00B0               	movwf	___bmul@multiplicand
  5000     0D0D  0834               	movf	BCD_to_Decimal@tens_digit,w
  5001     0D0E  120A  158A  24AF  120A  158A  	fcall	___bmul
  5002     0D13  1283               	bcf	3,5	;RP0=0, select bank0
  5003     0D14  1303               	bcf	3,6	;RP1=0, select bank0
  5004     0D15  0735               	addwf	BCD_to_Decimal@ones_digit,w
  5005     0D16  00B6               	movwf	BCD_to_Decimal@decimal_value
  5006     0D17                     l2247:
  5007                           
  5008                           ;E:/Universidad/Semestre2_2023/Digital-2/Lab4/Lab4_Master.X/Lab4_Master.c: 292:     retu
      +                          rn decimal_value;
  5009     0D17  0836               	movf	BCD_to_Decimal@decimal_value,w
  5010     0D18                     l273:
  5011     0D18  0008               	return
  5012     0D19                     __end_of_BCD_to_Decimal:
  5013                           
  5014                           	psect	text27
  5015     0CAF                     __ptext27:	
  5016 ;; *************** function ___bmul *****************
  5017 ;; Defined at:
  5018 ;;		line 4 in file "C:\Program Files\Microchip\xc8\v2.41\pic\sources\c90\common\Umul8.c"
  5019 ;; Parameters:    Size  Location     Type
  5020 ;;  multiplier      1    wreg     unsigned char 
  5021 ;;  multiplicand    1   16[BANK0 ] unsigned char 
  5022 ;; Auto vars:     Size  Location     Type
  5023 ;;  multiplier      1   18[BANK0 ] unsigned char 
  5024 ;;  product         1   17[BANK0 ] unsigned char 
  5025 ;; Return value:  Size  Location     Type
  5026 ;;                  1    wreg      unsigned char 
  5027 ;; Registers used:
  5028 ;;		wreg, status,2, status,0, btemp+1
  5029 ;; Tracked objects:
  5030 ;;		On entry : 0/0
  5031 ;;		On exit  : 0/0
  5032 ;;		Unchanged: 0/0
  5033 ;; Data sizes:     COMMON   BANK0   BANK1   BANK3   BANK2
  5034 ;;      Params:         0       1       0       0       0
  5035 ;;      Locals:         0       2       0       0       0
  5036 ;;      Temps:          0       0       0       0       0
  5037 ;;      Totals:         0       3       0       0       0
  5038 ;;Total ram usage:        3 bytes
  5039 ;; Hardware stack levels used: 1
  5040 ;; Hardware stack levels required when called: 4
  5041 ;; This function calls:
  5042 ;;		Nothing
  5043 ;; This function is called by:
  5044 ;;		_BCD_to_Decimal
  5045 ;;		_sprintf
  5046 ;; This function uses a non-reentrant model
  5047 ;;
  5048                           
  5049     0CAF                     ___bmul:	
  5050                           ;psect for function ___bmul
  5051                           
  5052                           
  5053                           ;incstack = 0
  5054                           ; Regs used in ___bmul: [wreg+status,2+status,0+btemp+1]
  5055                           ;___bmul@multiplier stored from wreg
  5056     0CAF  1283               	bcf	3,5	;RP0=0, select bank0
  5057     0CB0  1303               	bcf	3,6	;RP1=0, select bank0
  5058     0CB1  00B2               	movwf	___bmul@multiplier
  5059     0CB2                     l2049:
  5060     0CB2  01B1               	clrf	___bmul@product
  5061     0CB3                     l2051:
  5062     0CB3  1C32               	btfss	___bmul@multiplier,0
  5063     0CB4  2CB6               	goto	u1761
  5064     0CB5  2CB7               	goto	u1760
  5065     0CB6                     u1761:
  5066     0CB6  2CBB               	goto	l2055
  5067     0CB7                     u1760:
  5068     0CB7                     l2053:
  5069     0CB7  0830               	movf	___bmul@multiplicand,w
  5070     0CB8  00FF               	movwf	btemp+1
  5071     0CB9  087F               	movf	btemp+1,w
  5072     0CBA  07B1               	addwf	___bmul@product,f
  5073     0CBB                     l2055:
  5074     0CBB  1003               	clrc
  5075     0CBC  0DB0               	rlf	___bmul@multiplicand,f
  5076     0CBD                     l2057:
  5077     0CBD  1003               	clrc
  5078     0CBE  0CB2               	rrf	___bmul@multiplier,f
  5079     0CBF                     l2059:
  5080     0CBF  0832               	movf	___bmul@multiplier,w
  5081     0CC0  1D03               	btfss	3,2
  5082     0CC1  2CC3               	goto	u1771
  5083     0CC2  2CC4               	goto	u1770
  5084     0CC3                     u1771:
  5085     0CC3  2CB3               	goto	l2051
  5086     0CC4                     u1770:
  5087     0CC4                     l2061:
  5088     0CC4  0831               	movf	___bmul@product,w
  5089     0CC5                     l430:
  5090     0CC5  0008               	return
  5091     0CC6                     __end_of___bmul:
  5092                           
  5093                           	psect	text28
  5094     0380                     __ptext28:	
  5095 ;; *************** function _isr *****************
  5096 ;; Defined at:
  5097 ;;		line 91 in file "E:/Universidad/Semestre2_2023/Digital-2/Lab4/Lab4_Master.X/Lab4_Master.c"
  5098 ;; Parameters:    Size  Location     Type
  5099 ;;		None
  5100 ;; Auto vars:     Size  Location     Type
  5101 ;;		None
  5102 ;; Return value:  Size  Location     Type
  5103 ;;                  1    wreg      void 
  5104 ;; Registers used:
  5105 ;;		wreg, fsr0l, fsr0h, status,2, status,0, btemp+1, pclath, cstack
  5106 ;; Tracked objects:
  5107 ;;		On entry : 0/0
  5108 ;;		On exit  : 0/0
  5109 ;;		Unchanged: 0/0
  5110 ;; Data sizes:     COMMON   BANK0   BANK1   BANK3   BANK2
  5111 ;;      Params:         0       0       0       0       0
  5112 ;;      Locals:         0       0       0       0       0
  5113 ;;      Temps:          0       6       0       0       0
  5114 ;;      Totals:         0       6       0       0       0
  5115 ;;Total ram usage:        6 bytes
  5116 ;; Hardware stack levels used: 1
  5117 ;; Hardware stack levels required when called: 3
  5118 ;; This function calls:
  5119 ;;		i1_settingRTC
  5120 ;; This function is called by:
  5121 ;;		Interrupt level 1
  5122 ;; This function uses a non-reentrant model
  5123 ;;
  5124                           
  5125     0380                     _isr:	
  5126                           ;psect for function _isr
  5127                           
  5128     0380                     i1l2367:
  5129                           
  5130                           ;E:/Universidad/Semestre2_2023/Digital-2/Lab4/Lab4_Master.X/Lab4_Master.c: 93:     if(RB
      +                          IF == 1) {
  5131     0380  1C0B               	btfss	11,0	;volatile
  5132     0381  2B83               	goto	u210_21
  5133     0382  2B84               	goto	u210_20
  5134     0383                     u210_21:
  5135     0383  2CAB               	goto	i1l255
  5136     0384                     u210_20:
  5137     0384                     i1l2369:
  5138                           
  5139                           ;E:/Universidad/Semestre2_2023/Digital-2/Lab4/Lab4_Master.X/Lab4_Master.c: 94:     if (!
      +                          RB0){
  5140     0384  1806               	btfsc	6,0	;volatile
  5141     0385  2B87               	goto	u211_21
  5142     0386  2B88               	goto	u211_20
  5143     0387                     u211_21:
  5144     0387  2C11               	goto	i1l236
  5145     0388                     u211_20:
  5146     0388  2BF5               	goto	i1l2387
  5147     0389                     i1l2373:
  5148                           
  5149                           ;E:/Universidad/Semestre2_2023/Digital-2/Lab4/Lab4_Master.X/Lab4_Master.c: 97:          
      +                                 settingRTC(timeRTC[2]+1,timeRTC[1],timeRTC[0],dateRTC[1],dateRTC[2],dateRTC[3]);
  5150     0389  0852               	movf	_timeRTC+1,w
  5151     038A  00A2               	movwf	i1settingRTC@min
  5152     038B  0851               	movf	_timeRTC,w
  5153     038C  00A3               	movwf	i1settingRTC@hour
  5154     038D  084E               	movf	_dateRTC+1,w
  5155     038E  00A4               	movwf	i1settingRTC@day
  5156     038F  084F               	movf	_dateRTC+2,w
  5157     0390  00A5               	movwf	i1settingRTC@mon
  5158     0391  0850               	movf	_dateRTC+3,w
  5159     0392  00A6               	movwf	i1settingRTC@year
  5160     0393  0853               	movf	_timeRTC+2,w
  5161     0394  3E01               	addlw	1
  5162     0395  120A  118A  256C  120A  118A  	fcall	i1_settingRTC
  5163                           
  5164                           ;E:/Universidad/Semestre2_2023/Digital-2/Lab4/Lab4_Master.X/Lab4_Master.c: 98:          
      +                                 break;
  5165     039A  2C11               	goto	i1l236
  5166     039B                     i1l2375:
  5167                           
  5168                           ;E:/Universidad/Semestre2_2023/Digital-2/Lab4/Lab4_Master.X/Lab4_Master.c: 100:         
      +                                  settingRTC(timeRTC[2],timeRTC[1]+1,timeRTC[0],dateRTC[1],dateRTC[2],dateRTC[3]);
  5169     039B  0852               	movf	_timeRTC+1,w
  5170     039C  3E01               	addlw	1
  5171     039D  00A2               	movwf	i1settingRTC@min
  5172     039E  0851               	movf	_timeRTC,w
  5173     039F  00A3               	movwf	i1settingRTC@hour
  5174     03A0  084E               	movf	_dateRTC+1,w
  5175     03A1  00A4               	movwf	i1settingRTC@day
  5176     03A2  084F               	movf	_dateRTC+2,w
  5177     03A3  00A5               	movwf	i1settingRTC@mon
  5178     03A4  0850               	movf	_dateRTC+3,w
  5179     03A5  00A6               	movwf	i1settingRTC@year
  5180     03A6  0853               	movf	_timeRTC+2,w
  5181     03A7  120A  118A  256C  120A  118A  	fcall	i1_settingRTC
  5182                           
  5183                           ;E:/Universidad/Semestre2_2023/Digital-2/Lab4/Lab4_Master.X/Lab4_Master.c: 101:         
      +                                  break;
  5184     03AC  2C11               	goto	i1l236
  5185     03AD                     i1l2377:
  5186                           
  5187                           ;E:/Universidad/Semestre2_2023/Digital-2/Lab4/Lab4_Master.X/Lab4_Master.c: 103:         
      +                                  settingRTC(timeRTC[2],timeRTC[1],timeRTC[0]+1,dateRTC[1],dateRTC[2],dateRTC[3]);
  5188     03AD  0852               	movf	_timeRTC+1,w
  5189     03AE  00A2               	movwf	i1settingRTC@min
  5190     03AF  0851               	movf	_timeRTC,w
  5191     03B0  3E01               	addlw	1
  5192     03B1  00A3               	movwf	i1settingRTC@hour
  5193     03B2  084E               	movf	_dateRTC+1,w
  5194     03B3  00A4               	movwf	i1settingRTC@day
  5195     03B4  084F               	movf	_dateRTC+2,w
  5196     03B5  00A5               	movwf	i1settingRTC@mon
  5197     03B6  0850               	movf	_dateRTC+3,w
  5198     03B7  00A6               	movwf	i1settingRTC@year
  5199     03B8  0853               	movf	_timeRTC+2,w
  5200     03B9  120A  118A  256C  120A  118A  	fcall	i1_settingRTC
  5201                           
  5202                           ;E:/Universidad/Semestre2_2023/Digital-2/Lab4/Lab4_Master.X/Lab4_Master.c: 104:         
      +                                  break;
  5203     03BE  2C11               	goto	i1l236
  5204     03BF                     i1l2379:
  5205                           
  5206                           ;E:/Universidad/Semestre2_2023/Digital-2/Lab4/Lab4_Master.X/Lab4_Master.c: 106:         
      +                                  settingRTC(timeRTC[2],timeRTC[1],timeRTC[0],dateRTC[1]+1,dateRTC[2],dateRTC[3]);
  5207     03BF  0852               	movf	_timeRTC+1,w
  5208     03C0  00A2               	movwf	i1settingRTC@min
  5209     03C1  0851               	movf	_timeRTC,w
  5210     03C2  00A3               	movwf	i1settingRTC@hour
  5211     03C3  084E               	movf	_dateRTC+1,w
  5212     03C4  3E01               	addlw	1
  5213     03C5  00A4               	movwf	i1settingRTC@day
  5214     03C6  084F               	movf	_dateRTC+2,w
  5215     03C7  00A5               	movwf	i1settingRTC@mon
  5216     03C8  0850               	movf	_dateRTC+3,w
  5217     03C9  00A6               	movwf	i1settingRTC@year
  5218     03CA  0853               	movf	_timeRTC+2,w
  5219     03CB  120A  118A  256C  120A  118A  	fcall	i1_settingRTC
  5220                           
  5221                           ;E:/Universidad/Semestre2_2023/Digital-2/Lab4/Lab4_Master.X/Lab4_Master.c: 107:         
      +                                  break;
  5222     03D0  2C11               	goto	i1l236
  5223     03D1                     i1l2381:
  5224                           
  5225                           ;E:/Universidad/Semestre2_2023/Digital-2/Lab4/Lab4_Master.X/Lab4_Master.c: 109:         
      +                                  settingRTC(timeRTC[2],timeRTC[1],timeRTC[0],dateRTC[1],dateRTC[2]+1,dateRTC[3]);
  5226     03D1  0852               	movf	_timeRTC+1,w
  5227     03D2  00A2               	movwf	i1settingRTC@min
  5228     03D3  0851               	movf	_timeRTC,w
  5229     03D4  00A3               	movwf	i1settingRTC@hour
  5230     03D5  084E               	movf	_dateRTC+1,w
  5231     03D6  00A4               	movwf	i1settingRTC@day
  5232     03D7  084F               	movf	_dateRTC+2,w
  5233     03D8  3E01               	addlw	1
  5234     03D9  00A5               	movwf	i1settingRTC@mon
  5235     03DA  0850               	movf	_dateRTC+3,w
  5236     03DB  00A6               	movwf	i1settingRTC@year
  5237     03DC  0853               	movf	_timeRTC+2,w
  5238     03DD  120A  118A  256C  120A  118A  	fcall	i1_settingRTC
  5239                           
  5240                           ;E:/Universidad/Semestre2_2023/Digital-2/Lab4/Lab4_Master.X/Lab4_Master.c: 110:         
      +                                  break;
  5241     03E2  2C11               	goto	i1l236
  5242     03E3                     i1l2383:
  5243                           
  5244                           ;E:/Universidad/Semestre2_2023/Digital-2/Lab4/Lab4_Master.X/Lab4_Master.c: 112:         
      +                                  settingRTC(timeRTC[2],timeRTC[1],timeRTC[0],dateRTC[1],dateRTC[2],dateRTC[3]+1);
  5245     03E3  0852               	movf	_timeRTC+1,w
  5246     03E4  00A2               	movwf	i1settingRTC@min
  5247     03E5  0851               	movf	_timeRTC,w
  5248     03E6  00A3               	movwf	i1settingRTC@hour
  5249     03E7  084E               	movf	_dateRTC+1,w
  5250     03E8  00A4               	movwf	i1settingRTC@day
  5251     03E9  084F               	movf	_dateRTC+2,w
  5252     03EA  00A5               	movwf	i1settingRTC@mon
  5253     03EB  0850               	movf	_dateRTC+3,w
  5254     03EC  3E01               	addlw	1
  5255     03ED  00A6               	movwf	i1settingRTC@year
  5256     03EE  0853               	movf	_timeRTC+2,w
  5257     03EF  120A  118A  256C  120A  118A  	fcall	i1_settingRTC
  5258                           
  5259                           ;E:/Universidad/Semestre2_2023/Digital-2/Lab4/Lab4_Master.X/Lab4_Master.c: 113:         
      +                                  break;
  5260     03F4  2C11               	goto	i1l236
  5261     03F5                     i1l2387:
  5262     03F5  0857               	movf	_mode,w
  5263     03F6  00AA               	movwf	??_isr
  5264     03F7  01AB               	clrf	??_isr+1
  5265                           
  5266                           ; Switch on 2 bytes has been partitioned into a top level switch of size 1, and 1 sub-sw
      +                          itches
  5267                           ; Switch size 1, requested type "simple"
  5268                           ; Number of cases is 1, Range of values is 0 to 0
  5269                           ; switch strategies available:
  5270                           ; Name         Instructions Cycles
  5271                           ; simple_byte            4     3 (average)
  5272                           ; direct_byte           11     8 (fixed)
  5273                           ; jumptable            260     6 (fixed)
  5274                           ;	Chosen strategy is simple_byte
  5275     03F8  082B               	movf	??_isr+1,w
  5276     03F9  3A00               	xorlw	0	; case 0
  5277     03FA  1903               	skipnz
  5278     03FB  2BFD               	goto	i1l2733
  5279     03FC  2C11               	goto	i1l236
  5280     03FD                     i1l2733:
  5281                           
  5282                           ; Switch size 1, requested type "simple"
  5283                           ; Number of cases is 6, Range of values is 0 to 5
  5284                           ; switch strategies available:
  5285                           ; Name         Instructions Cycles
  5286                           ; simple_byte           19    10 (average)
  5287                           ; direct_byte           26     8 (fixed)
  5288                           ; jumptable            260     6 (fixed)
  5289                           ;	Chosen strategy is simple_byte
  5290     03FD  082A               	movf	??_isr,w
  5291     03FE  3A00               	xorlw	0	; case 0
  5292     03FF  1903               	skipnz
  5293     0400  2B89               	goto	i1l2373
  5294     0401  3A01               	xorlw	1	; case 1
  5295     0402  1903               	skipnz
  5296     0403  2B9B               	goto	i1l2375
  5297     0404  3A03               	xorlw	3	; case 2
  5298     0405  1903               	skipnz
  5299     0406  2BAD               	goto	i1l2377
  5300     0407  3A01               	xorlw	1	; case 3
  5301     0408  1903               	skipnz
  5302     0409  2BBF               	goto	i1l2379
  5303     040A  3A07               	xorlw	7	; case 4
  5304     040B  1903               	skipnz
  5305     040C  2BD1               	goto	i1l2381
  5306     040D  3A01               	xorlw	1	; case 5
  5307     040E  1903               	skipnz
  5308     040F  2BE3               	goto	i1l2383
  5309     0410  2C11               	goto	i1l236
  5310     0411                     i1l236:	
  5311                           ;E:/Universidad/Semestre2_2023/Digital-2/Lab4/Lab4_Master.X/Lab4_Master.c: 116:     }
  5312                           
  5313                           
  5314                           ;E:/Universidad/Semestre2_2023/Digital-2/Lab4/Lab4_Master.X/Lab4_Master.c: 117:     if (
      +                          !RB1){
  5315     0411  1283               	bcf	3,5	;RP0=0, select bank0
  5316     0412  1303               	bcf	3,6	;RP1=0, select bank0
  5317     0413  1886               	btfsc	6,1	;volatile
  5318     0414  2C16               	goto	u212_21
  5319     0415  2C17               	goto	u212_20
  5320     0416                     u212_21:
  5321     0416  2CA0               	goto	i1l245
  5322     0417                     u212_20:
  5323     0417  2C84               	goto	i1l2405
  5324     0418                     i1l2391:
  5325                           
  5326                           ;E:/Universidad/Semestre2_2023/Digital-2/Lab4/Lab4_Master.X/Lab4_Master.c: 120:         
      +                                  settingRTC(timeRTC[2]-1,timeRTC[1],timeRTC[0],dateRTC[1],dateRTC[2],dateRTC[3]);
  5327     0418  0852               	movf	_timeRTC+1,w
  5328     0419  00A2               	movwf	i1settingRTC@min
  5329     041A  0851               	movf	_timeRTC,w
  5330     041B  00A3               	movwf	i1settingRTC@hour
  5331     041C  084E               	movf	_dateRTC+1,w
  5332     041D  00A4               	movwf	i1settingRTC@day
  5333     041E  084F               	movf	_dateRTC+2,w
  5334     041F  00A5               	movwf	i1settingRTC@mon
  5335     0420  0850               	movf	_dateRTC+3,w
  5336     0421  00A6               	movwf	i1settingRTC@year
  5337     0422  0853               	movf	_timeRTC+2,w
  5338     0423  3EFF               	addlw	255
  5339     0424  120A  118A  256C  120A  118A  	fcall	i1_settingRTC
  5340                           
  5341                           ;E:/Universidad/Semestre2_2023/Digital-2/Lab4/Lab4_Master.X/Lab4_Master.c: 121:         
      +                                  break;
  5342     0429  2CA0               	goto	i1l245
  5343     042A                     i1l2393:
  5344                           
  5345                           ;E:/Universidad/Semestre2_2023/Digital-2/Lab4/Lab4_Master.X/Lab4_Master.c: 123:         
      +                                  settingRTC(timeRTC[2],timeRTC[1]-1,timeRTC[0],dateRTC[1],dateRTC[2],dateRTC[3]);
  5346     042A  0852               	movf	_timeRTC+1,w
  5347     042B  3EFF               	addlw	255
  5348     042C  00A2               	movwf	i1settingRTC@min
  5349     042D  0851               	movf	_timeRTC,w
  5350     042E  00A3               	movwf	i1settingRTC@hour
  5351     042F  084E               	movf	_dateRTC+1,w
  5352     0430  00A4               	movwf	i1settingRTC@day
  5353     0431  084F               	movf	_dateRTC+2,w
  5354     0432  00A5               	movwf	i1settingRTC@mon
  5355     0433  0850               	movf	_dateRTC+3,w
  5356     0434  00A6               	movwf	i1settingRTC@year
  5357     0435  0853               	movf	_timeRTC+2,w
  5358     0436  120A  118A  256C  120A  118A  	fcall	i1_settingRTC
  5359                           
  5360                           ;E:/Universidad/Semestre2_2023/Digital-2/Lab4/Lab4_Master.X/Lab4_Master.c: 124:         
      +                                  break;
  5361     043B  2CA0               	goto	i1l245
  5362     043C                     i1l2395:
  5363                           
  5364                           ;E:/Universidad/Semestre2_2023/Digital-2/Lab4/Lab4_Master.X/Lab4_Master.c: 126:         
      +                                  settingRTC(timeRTC[2],timeRTC[1],timeRTC[0]-1,dateRTC[1],dateRTC[2],dateRTC[3]);
  5365     043C  0852               	movf	_timeRTC+1,w
  5366     043D  00A2               	movwf	i1settingRTC@min
  5367     043E  0851               	movf	_timeRTC,w
  5368     043F  3EFF               	addlw	255
  5369     0440  00A3               	movwf	i1settingRTC@hour
  5370     0441  084E               	movf	_dateRTC+1,w
  5371     0442  00A4               	movwf	i1settingRTC@day
  5372     0443  084F               	movf	_dateRTC+2,w
  5373     0444  00A5               	movwf	i1settingRTC@mon
  5374     0445  0850               	movf	_dateRTC+3,w
  5375     0446  00A6               	movwf	i1settingRTC@year
  5376     0447  0853               	movf	_timeRTC+2,w
  5377     0448  120A  118A  256C  120A  118A  	fcall	i1_settingRTC
  5378                           
  5379                           ;E:/Universidad/Semestre2_2023/Digital-2/Lab4/Lab4_Master.X/Lab4_Master.c: 127:         
      +                                  break;
  5380     044D  2CA0               	goto	i1l245
  5381     044E                     i1l2397:
  5382                           
  5383                           ;E:/Universidad/Semestre2_2023/Digital-2/Lab4/Lab4_Master.X/Lab4_Master.c: 129:         
      +                                  settingRTC(timeRTC[2],timeRTC[1],timeRTC[0],dateRTC[1]-1,dateRTC[2],dateRTC[3]);
  5384     044E  0852               	movf	_timeRTC+1,w
  5385     044F  00A2               	movwf	i1settingRTC@min
  5386     0450  0851               	movf	_timeRTC,w
  5387     0451  00A3               	movwf	i1settingRTC@hour
  5388     0452  084E               	movf	_dateRTC+1,w
  5389     0453  3EFF               	addlw	255
  5390     0454  00A4               	movwf	i1settingRTC@day
  5391     0455  084F               	movf	_dateRTC+2,w
  5392     0456  00A5               	movwf	i1settingRTC@mon
  5393     0457  0850               	movf	_dateRTC+3,w
  5394     0458  00A6               	movwf	i1settingRTC@year
  5395     0459  0853               	movf	_timeRTC+2,w
  5396     045A  120A  118A  256C  120A  118A  	fcall	i1_settingRTC
  5397                           
  5398                           ;E:/Universidad/Semestre2_2023/Digital-2/Lab4/Lab4_Master.X/Lab4_Master.c: 130:         
      +                                  break;
  5399     045F  2CA0               	goto	i1l245
  5400     0460                     i1l2399:
  5401                           
  5402                           ;E:/Universidad/Semestre2_2023/Digital-2/Lab4/Lab4_Master.X/Lab4_Master.c: 132:         
      +                                  settingRTC(timeRTC[2],timeRTC[1],timeRTC[0],dateRTC[1],dateRTC[2]-1,dateRTC[3]);
  5403     0460  0852               	movf	_timeRTC+1,w
  5404     0461  00A2               	movwf	i1settingRTC@min
  5405     0462  0851               	movf	_timeRTC,w
  5406     0463  00A3               	movwf	i1settingRTC@hour
  5407     0464  084E               	movf	_dateRTC+1,w
  5408     0465  00A4               	movwf	i1settingRTC@day
  5409     0466  084F               	movf	_dateRTC+2,w
  5410     0467  3EFF               	addlw	255
  5411     0468  00A5               	movwf	i1settingRTC@mon
  5412     0469  0850               	movf	_dateRTC+3,w
  5413     046A  00A6               	movwf	i1settingRTC@year
  5414     046B  0853               	movf	_timeRTC+2,w
  5415     046C  120A  118A  256C  120A  118A  	fcall	i1_settingRTC
  5416                           
  5417                           ;E:/Universidad/Semestre2_2023/Digital-2/Lab4/Lab4_Master.X/Lab4_Master.c: 133:         
      +                                  break;
  5418     0471  2CA0               	goto	i1l245
  5419     0472                     i1l2401:
  5420                           
  5421                           ;E:/Universidad/Semestre2_2023/Digital-2/Lab4/Lab4_Master.X/Lab4_Master.c: 135:         
      +                                  settingRTC(timeRTC[2],timeRTC[1],timeRTC[0],dateRTC[1],dateRTC[2],dateRTC[3]-1);
  5422     0472  0852               	movf	_timeRTC+1,w
  5423     0473  00A2               	movwf	i1settingRTC@min
  5424     0474  0851               	movf	_timeRTC,w
  5425     0475  00A3               	movwf	i1settingRTC@hour
  5426     0476  084E               	movf	_dateRTC+1,w
  5427     0477  00A4               	movwf	i1settingRTC@day
  5428     0478  084F               	movf	_dateRTC+2,w
  5429     0479  00A5               	movwf	i1settingRTC@mon
  5430     047A  0850               	movf	_dateRTC+3,w
  5431     047B  3EFF               	addlw	255
  5432     047C  00A6               	movwf	i1settingRTC@year
  5433     047D  0853               	movf	_timeRTC+2,w
  5434     047E  120A  118A  256C  120A  118A  	fcall	i1_settingRTC
  5435                           
  5436                           ;E:/Universidad/Semestre2_2023/Digital-2/Lab4/Lab4_Master.X/Lab4_Master.c: 136:         
      +                                  break;
  5437     0483  2CA0               	goto	i1l245
  5438     0484                     i1l2405:
  5439     0484  0857               	movf	_mode,w
  5440     0485  00AA               	movwf	??_isr
  5441     0486  01AB               	clrf	??_isr+1
  5442                           
  5443                           ; Switch on 2 bytes has been partitioned into a top level switch of size 1, and 1 sub-sw
      +                          itches
  5444                           ; Switch size 1, requested type "simple"
  5445                           ; Number of cases is 1, Range of values is 0 to 0
  5446                           ; switch strategies available:
  5447                           ; Name         Instructions Cycles
  5448                           ; simple_byte            4     3 (average)
  5449                           ; direct_byte           11     8 (fixed)
  5450                           ; jumptable            260     6 (fixed)
  5451                           ;	Chosen strategy is simple_byte
  5452     0487  082B               	movf	??_isr+1,w
  5453     0488  3A00               	xorlw	0	; case 0
  5454     0489  1903               	skipnz
  5455     048A  2C8C               	goto	i1l2735
  5456     048B  2CA0               	goto	i1l245
  5457     048C                     i1l2735:
  5458                           
  5459                           ; Switch size 1, requested type "simple"
  5460                           ; Number of cases is 6, Range of values is 0 to 5
  5461                           ; switch strategies available:
  5462                           ; Name         Instructions Cycles
  5463                           ; simple_byte           19    10 (average)
  5464                           ; direct_byte           26     8 (fixed)
  5465                           ; jumptable            260     6 (fixed)
  5466                           ;	Chosen strategy is simple_byte
  5467     048C  082A               	movf	??_isr,w
  5468     048D  3A00               	xorlw	0	; case 0
  5469     048E  1903               	skipnz
  5470     048F  2C18               	goto	i1l2391
  5471     0490  3A01               	xorlw	1	; case 1
  5472     0491  1903               	skipnz
  5473     0492  2C2A               	goto	i1l2393
  5474     0493  3A03               	xorlw	3	; case 2
  5475     0494  1903               	skipnz
  5476     0495  2C3C               	goto	i1l2395
  5477     0496  3A01               	xorlw	1	; case 3
  5478     0497  1903               	skipnz
  5479     0498  2C4E               	goto	i1l2397
  5480     0499  3A07               	xorlw	7	; case 4
  5481     049A  1903               	skipnz
  5482     049B  2C60               	goto	i1l2399
  5483     049C  3A01               	xorlw	1	; case 5
  5484     049D  1903               	skipnz
  5485     049E  2C72               	goto	i1l2401
  5486     049F  2CA0               	goto	i1l245
  5487     04A0                     i1l245:	
  5488                           ;E:/Universidad/Semestre2_2023/Digital-2/Lab4/Lab4_Master.X/Lab4_Master.c: 138:     }
  5489                           
  5490                           
  5491                           ;E:/Universidad/Semestre2_2023/Digital-2/Lab4/Lab4_Master.X/Lab4_Master.c: 139:     if (
      +                          !RB2){
  5492     04A0  1283               	bcf	3,5	;RP0=0, select bank0
  5493     04A1  1303               	bcf	3,6	;RP1=0, select bank0
  5494     04A2  1906               	btfsc	6,2	;volatile
  5495     04A3  2CA5               	goto	u213_21
  5496     04A4  2CA6               	goto	u213_20
  5497     04A5                     u213_21:
  5498     04A5  2CAA               	goto	i1l2409
  5499     04A6                     u213_20:
  5500     04A6                     i1l2407:
  5501                           
  5502                           ;E:/Universidad/Semestre2_2023/Digital-2/Lab4/Lab4_Master.X/Lab4_Master.c: 140:         
      +                          mode++;
  5503     04A6  3001               	movlw	1
  5504     04A7  00FF               	movwf	btemp+1
  5505     04A8  087F               	movf	btemp+1,w
  5506     04A9  07D7               	addwf	_mode,f
  5507     04AA                     i1l2409:
  5508                           
  5509                           ;E:/Universidad/Semestre2_2023/Digital-2/Lab4/Lab4_Master.X/Lab4_Master.c: 142:         
      +                          INTCONbits.RBIF = 0;
  5510     04AA  100B               	bcf	11,0	;volatile
  5511     04AB                     i1l255:
  5512     04AB  082F               	movf	??_isr+5,w
  5513     04AC  00FF               	movwf	btemp+1
  5514     04AD  082E               	movf	??_isr+4,w
  5515     04AE  008A               	movwf	10
  5516     04AF  082D               	movf	??_isr+3,w
  5517     04B0  0084               	movwf	4
  5518     04B1  0E2C               	swapf	??_isr+2,w
  5519     04B2  0083               	movwf	3
  5520     04B3  0EFE               	swapf	btemp,f
  5521     04B4  0E7E               	swapf	btemp,w
  5522     04B5  0009               	retfie
  5523     04B6                     __end_of_isr:
  5524                           
  5525                           	psect	intentry
  5526     0004                     __pintentry:	
  5527                           ;incstack = 0
  5528                           ; Regs used in _isr: [wreg-fsr0h+status,2+status,0+btemp+1+pclath+cstack]
  5529                           
  5530     0004                     interrupt_function:
  5531     007E                     saved_w	set	btemp
  5532     0004  00FE               	movwf	btemp
  5533     0005  0E03               	swapf	3,w
  5534     0006  1283               	bcf	3,5	;RP0=0, select bank0
  5535     0007  1303               	bcf	3,6	;RP1=0, select bank0
  5536     0008  00AC               	movwf	??_isr+2
  5537     0009  0804               	movf	4,w
  5538     000A  00AD               	movwf	??_isr+3
  5539     000B  080A               	movf	10,w
  5540     000C  00AE               	movwf	??_isr+4
  5541     000D  087F               	movf	btemp+1,w
  5542     000E  00AF               	movwf	??_isr+5
  5543     000F  120A  118A  2B80   	ljmp	_isr
  5544                           
  5545                           	psect	text29
  5546     056C                     __ptext29:	
  5547 ;; *************** function i1_settingRTC *****************
  5548 ;; Defined at:
  5549 ;;		line 254 in file "E:/Universidad/Semestre2_2023/Digital-2/Lab4/Lab4_Master.X/Lab4_Master.c"
  5550 ;; Parameters:    Size  Location     Type
  5551 ;;  sec             1    wreg     unsigned char 
  5552 ;;  min             1    2[BANK0 ] unsigned char 
  5553 ;;  hour            1    3[BANK0 ] unsigned char 
  5554 ;;  day             1    4[BANK0 ] unsigned char 
  5555 ;;  mon             1    5[BANK0 ] unsigned char 
  5556 ;;  year            1    6[BANK0 ] unsigned char 
  5557 ;; Auto vars:     Size  Location     Type
  5558 ;;  sec             1    9[BANK0 ] unsigned char 
  5559 ;; Return value:  Size  Location     Type
  5560 ;;                  1    wreg      void 
  5561 ;; Registers used:
  5562 ;;		wreg, status,2, status,0, btemp+1, pclath, cstack
  5563 ;; Tracked objects:
  5564 ;;		On entry : 0/0
  5565 ;;		On exit  : 0/0
  5566 ;;		Unchanged: 0/0
  5567 ;; Data sizes:     COMMON   BANK0   BANK1   BANK3   BANK2
  5568 ;;      Params:         0       5       0       0       0
  5569 ;;      Locals:         0       1       0       0       0
  5570 ;;      Temps:          0       2       0       0       0
  5571 ;;      Totals:         0       8       0       0       0
  5572 ;;Total ram usage:        8 bytes
  5573 ;; Hardware stack levels used: 1
  5574 ;; Hardware stack levels required when called: 2
  5575 ;; This function calls:
  5576 ;;		i1_Decimal_to_BCD
  5577 ;;		i1_I2C_Master_Start
  5578 ;;		i1_I2C_Master_Stop
  5579 ;;		i1_I2C_Master_Write
  5580 ;; This function is called by:
  5581 ;;		_isr
  5582 ;; This function uses a non-reentrant model
  5583 ;;
  5584                           
  5585     056C                     i1_settingRTC:	
  5586                           ;psect for function i1_settingRTC
  5587                           
  5588                           
  5589                           ;incstack = 0
  5590                           ; Regs used in i1_settingRTC: [wreg+status,2+status,0+btemp+1+pclath+cstack]
  5591                           ;i1settingRTC@sec stored from wreg
  5592     056C  1283               	bcf	3,5	;RP0=0, select bank0
  5593     056D  1303               	bcf	3,6	;RP1=0, select bank0
  5594     056E  00A9               	movwf	i1settingRTC@sec
  5595     056F                     i1l2345:
  5596                           
  5597                           ;E:/Universidad/Semestre2_2023/Digital-2/Lab4/Lab4_Master.X/Lab4_Master.c: 256:         
      +                          I2C_Master_Start();
  5598     056F  120A  158A  2433  120A  118A  	fcall	i1_I2C_Master_Start
  5599                           
  5600                           ;E:/Universidad/Semestre2_2023/Digital-2/Lab4/Lab4_Master.X/Lab4_Master.c: 257:         
      +                          I2C_Master_Write(0b11010000);
  5601     0574  30D0               	movlw	208
  5602     0575  1283               	bcf	3,5	;RP0=0, select bank0
  5603     0576  1303               	bcf	3,6	;RP1=0, select bank0
  5604     0577  00A0               	movwf	i1I2C_Master_Write@d
  5605     0578  3000               	movlw	0
  5606     0579  00A1               	movwf	i1I2C_Master_Write@d+1
  5607     057A  120A  158A  2460  120A  118A  	fcall	i1_I2C_Master_Write
  5608                           
  5609                           ;E:/Universidad/Semestre2_2023/Digital-2/Lab4/Lab4_Master.X/Lab4_Master.c: 258:         
      +                          I2C_Master_Write(0x00);
  5610     057F  3000               	movlw	0
  5611     0580  1283               	bcf	3,5	;RP0=0, select bank0
  5612     0581  1303               	bcf	3,6	;RP1=0, select bank0
  5613     0582  00A0               	movwf	i1I2C_Master_Write@d
  5614     0583  00A1               	movwf	i1I2C_Master_Write@d+1
  5615     0584  120A  158A  2460  120A  118A  	fcall	i1_I2C_Master_Write
  5616     0589                     i1l2347:
  5617                           
  5618                           ;E:/Universidad/Semestre2_2023/Digital-2/Lab4/Lab4_Master.X/Lab4_Master.c: 261:         
      +                          I2C_Master_Write(Decimal_to_BCD(sec));
  5619     0589  1283               	bcf	3,5	;RP0=0, select bank0
  5620     058A  1303               	bcf	3,6	;RP1=0, select bank0
  5621     058B  0829               	movf	i1settingRTC@sec,w
  5622     058C  120A  158A  2592  120A  118A  	fcall	i1_Decimal_to_BCD
  5623     0591  1283               	bcf	3,5	;RP0=0, select bank0
  5624     0592  1303               	bcf	3,6	;RP1=0, select bank0
  5625     0593  00A7               	movwf	??i1_settingRTC
  5626     0594  01A8               	clrf	??i1_settingRTC+1
  5627     0595  0827               	movf	??i1_settingRTC,w
  5628     0596  00A0               	movwf	i1I2C_Master_Write@d
  5629     0597  0828               	movf	??i1_settingRTC+1,w
  5630     0598  00A1               	movwf	i1I2C_Master_Write@d+1
  5631     0599  120A  158A  2460  120A  118A  	fcall	i1_I2C_Master_Write
  5632     059E                     i1l2349:
  5633                           
  5634                           ;E:/Universidad/Semestre2_2023/Digital-2/Lab4/Lab4_Master.X/Lab4_Master.c: 264:         
      +                          I2C_Master_Write(Decimal_to_BCD(min));
  5635     059E  1283               	bcf	3,5	;RP0=0, select bank0
  5636     059F  1303               	bcf	3,6	;RP1=0, select bank0
  5637     05A0  0822               	movf	i1settingRTC@min,w
  5638     05A1  120A  158A  2592  120A  118A  	fcall	i1_Decimal_to_BCD
  5639     05A6  1283               	bcf	3,5	;RP0=0, select bank0
  5640     05A7  1303               	bcf	3,6	;RP1=0, select bank0
  5641     05A8  00A7               	movwf	??i1_settingRTC
  5642     05A9  01A8               	clrf	??i1_settingRTC+1
  5643     05AA  0827               	movf	??i1_settingRTC,w
  5644     05AB  00A0               	movwf	i1I2C_Master_Write@d
  5645     05AC  0828               	movf	??i1_settingRTC+1,w
  5646     05AD  00A1               	movwf	i1I2C_Master_Write@d+1
  5647     05AE  120A  158A  2460  120A  118A  	fcall	i1_I2C_Master_Write
  5648     05B3                     i1l2351:
  5649                           
  5650                           ;E:/Universidad/Semestre2_2023/Digital-2/Lab4/Lab4_Master.X/Lab4_Master.c: 267:         
      +                          I2C_Master_Write(Decimal_to_BCD(hour));
  5651     05B3  1283               	bcf	3,5	;RP0=0, select bank0
  5652     05B4  1303               	bcf	3,6	;RP1=0, select bank0
  5653     05B5  0823               	movf	i1settingRTC@hour,w
  5654     05B6  120A  158A  2592  120A  118A  	fcall	i1_Decimal_to_BCD
  5655     05BB  1283               	bcf	3,5	;RP0=0, select bank0
  5656     05BC  1303               	bcf	3,6	;RP1=0, select bank0
  5657     05BD  00A7               	movwf	??i1_settingRTC
  5658     05BE  01A8               	clrf	??i1_settingRTC+1
  5659     05BF  0827               	movf	??i1_settingRTC,w
  5660     05C0  00A0               	movwf	i1I2C_Master_Write@d
  5661     05C1  0828               	movf	??i1_settingRTC+1,w
  5662     05C2  00A1               	movwf	i1I2C_Master_Write@d+1
  5663     05C3  120A  158A  2460  120A  118A  	fcall	i1_I2C_Master_Write
  5664     05C8                     i1l2353:
  5665                           
  5666                           ;E:/Universidad/Semestre2_2023/Digital-2/Lab4/Lab4_Master.X/Lab4_Master.c: 269:         
      +                          I2C_Master_Write(Decimal_to_BCD(day));
  5667     05C8  1283               	bcf	3,5	;RP0=0, select bank0
  5668     05C9  1303               	bcf	3,6	;RP1=0, select bank0
  5669     05CA  0824               	movf	i1settingRTC@day,w
  5670     05CB  120A  158A  2592  120A  118A  	fcall	i1_Decimal_to_BCD
  5671     05D0  1283               	bcf	3,5	;RP0=0, select bank0
  5672     05D1  1303               	bcf	3,6	;RP1=0, select bank0
  5673     05D2  00A7               	movwf	??i1_settingRTC
  5674     05D3  01A8               	clrf	??i1_settingRTC+1
  5675     05D4  0827               	movf	??i1_settingRTC,w
  5676     05D5  00A0               	movwf	i1I2C_Master_Write@d
  5677     05D6  0828               	movf	??i1_settingRTC+1,w
  5678     05D7  00A1               	movwf	i1I2C_Master_Write@d+1
  5679     05D8  120A  158A  2460  120A  118A  	fcall	i1_I2C_Master_Write
  5680     05DD                     i1l2355:
  5681                           
  5682                           ;E:/Universidad/Semestre2_2023/Digital-2/Lab4/Lab4_Master.X/Lab4_Master.c: 270:         
      +                          I2C_Master_Write(Decimal_to_BCD(day));
  5683     05DD  1283               	bcf	3,5	;RP0=0, select bank0
  5684     05DE  1303               	bcf	3,6	;RP1=0, select bank0
  5685     05DF  0824               	movf	i1settingRTC@day,w
  5686     05E0  120A  158A  2592  120A  118A  	fcall	i1_Decimal_to_BCD
  5687     05E5  1283               	bcf	3,5	;RP0=0, select bank0
  5688     05E6  1303               	bcf	3,6	;RP1=0, select bank0
  5689     05E7  00A7               	movwf	??i1_settingRTC
  5690     05E8  01A8               	clrf	??i1_settingRTC+1
  5691     05E9  0827               	movf	??i1_settingRTC,w
  5692     05EA  00A0               	movwf	i1I2C_Master_Write@d
  5693     05EB  0828               	movf	??i1_settingRTC+1,w
  5694     05EC  00A1               	movwf	i1I2C_Master_Write@d+1
  5695     05ED  120A  158A  2460  120A  118A  	fcall	i1_I2C_Master_Write
  5696     05F2                     i1l2357:
  5697                           
  5698                           ;E:/Universidad/Semestre2_2023/Digital-2/Lab4/Lab4_Master.X/Lab4_Master.c: 273:         
      +                          I2C_Master_Write(Decimal_to_BCD(mon));
  5699     05F2  1283               	bcf	3,5	;RP0=0, select bank0
  5700     05F3  1303               	bcf	3,6	;RP1=0, select bank0
  5701     05F4  0825               	movf	i1settingRTC@mon,w
  5702     05F5  120A  158A  2592  120A  118A  	fcall	i1_Decimal_to_BCD
  5703     05FA  1283               	bcf	3,5	;RP0=0, select bank0
  5704     05FB  1303               	bcf	3,6	;RP1=0, select bank0
  5705     05FC  00A7               	movwf	??i1_settingRTC
  5706     05FD  01A8               	clrf	??i1_settingRTC+1
  5707     05FE  0827               	movf	??i1_settingRTC,w
  5708     05FF  00A0               	movwf	i1I2C_Master_Write@d
  5709     0600  0828               	movf	??i1_settingRTC+1,w
  5710     0601  00A1               	movwf	i1I2C_Master_Write@d+1
  5711     0602  120A  158A  2460  120A  118A  	fcall	i1_I2C_Master_Write
  5712     0607                     i1l2359:
  5713                           
  5714                           ;E:/Universidad/Semestre2_2023/Digital-2/Lab4/Lab4_Master.X/Lab4_Master.c: 276:         
      +                          I2C_Master_Write(Decimal_to_BCD(year));
  5715     0607  1283               	bcf	3,5	;RP0=0, select bank0
  5716     0608  1303               	bcf	3,6	;RP1=0, select bank0
  5717     0609  0826               	movf	i1settingRTC@year,w
  5718     060A  120A  158A  2592  120A  118A  	fcall	i1_Decimal_to_BCD
  5719     060F  1283               	bcf	3,5	;RP0=0, select bank0
  5720     0610  1303               	bcf	3,6	;RP1=0, select bank0
  5721     0611  00A7               	movwf	??i1_settingRTC
  5722     0612  01A8               	clrf	??i1_settingRTC+1
  5723     0613  0827               	movf	??i1_settingRTC,w
  5724     0614  00A0               	movwf	i1I2C_Master_Write@d
  5725     0615  0828               	movf	??i1_settingRTC+1,w
  5726     0616  00A1               	movwf	i1I2C_Master_Write@d+1
  5727     0617  120A  158A  2460  120A  118A  	fcall	i1_I2C_Master_Write
  5728     061C                     i1l2361:
  5729                           
  5730                           ;E:/Universidad/Semestre2_2023/Digital-2/Lab4/Lab4_Master.X/Lab4_Master.c: 279:         
      +                          I2C_Master_Stop();
  5731     061C  120A  158A  243C  120A  118A  	fcall	i1_I2C_Master_Stop
  5732     0621                     i1l270:
  5733     0621  0008               	return
  5734     0622                     __end_ofi1_settingRTC:
  5735                           
  5736                           	psect	text30
  5737     0C60                     __ptext30:	
  5738 ;; *************** function i1_I2C_Master_Write *****************
  5739 ;; Defined at:
  5740 ;;		line 65 in file "I2C.c"
  5741 ;; Parameters:    Size  Location     Type
  5742 ;;  d               2    0[BANK0 ] unsigned int 
  5743 ;; Auto vars:     Size  Location     Type
  5744 ;;		None
  5745 ;; Return value:  Size  Location     Type
  5746 ;;                  1    wreg      void 
  5747 ;; Registers used:
  5748 ;;		wreg, status,2, status,0, pclath, cstack
  5749 ;; Tracked objects:
  5750 ;;		On entry : 0/0
  5751 ;;		On exit  : 0/0
  5752 ;;		Unchanged: 0/0
  5753 ;; Data sizes:     COMMON   BANK0   BANK1   BANK3   BANK2
  5754 ;;      Params:         0       2       0       0       0
  5755 ;;      Locals:         0       0       0       0       0
  5756 ;;      Temps:          0       0       0       0       0
  5757 ;;      Totals:         0       2       0       0       0
  5758 ;;Total ram usage:        2 bytes
  5759 ;; Hardware stack levels used: 1
  5760 ;; Hardware stack levels required when called: 1
  5761 ;; This function calls:
  5762 ;;		i1_I2C_Master_Wait
  5763 ;; This function is called by:
  5764 ;;		i1_settingRTC
  5765 ;; This function uses a non-reentrant model
  5766 ;;
  5767                           
  5768     0C60                     i1_I2C_Master_Write:	
  5769                           ;psect for function i1_I2C_Master_Write
  5770                           
  5771     0C60                     i1l2121:	
  5772                           ;incstack = 0
  5773                           ; Regs used in i1_I2C_Master_Write: [wreg+status,2+status,0+pclath+cstack]
  5774                           
  5775                           
  5776                           ;I2C.c: 65: void I2C_Master_Write(unsigned d);I2C.c: 66: {;I2C.c: 67:     I2C_Master_Wai
      +                          t();
  5777     0C60  120A  158A  2474  120A  158A  	fcall	i1_I2C_Master_Wait
  5778     0C65                     i1l2123:
  5779                           
  5780                           ;I2C.c: 68:     SSPBUF = d;
  5781     0C65  1283               	bcf	3,5	;RP0=0, select bank0
  5782     0C66  1303               	bcf	3,6	;RP1=0, select bank0
  5783     0C67  0820               	movf	i1I2C_Master_Write@d,w
  5784     0C68  0093               	movwf	19	;volatile
  5785     0C69                     i1l132:
  5786     0C69  0008               	return
  5787     0C6A                     __end_ofi1_I2C_Master_Write:
  5788                           
  5789                           	psect	text31
  5790     0C3C                     __ptext31:	
  5791 ;; *************** function i1_I2C_Master_Stop *****************
  5792 ;; Defined at:
  5793 ;;		line 55 in file "I2C.c"
  5794 ;; Parameters:    Size  Location     Type
  5795 ;;		None
  5796 ;; Auto vars:     Size  Location     Type
  5797 ;;		None
  5798 ;; Return value:  Size  Location     Type
  5799 ;;                  1    wreg      void 
  5800 ;; Registers used:
  5801 ;;		wreg, status,2, status,0, pclath, cstack
  5802 ;; Tracked objects:
  5803 ;;		On entry : 0/0
  5804 ;;		On exit  : 0/0
  5805 ;;		Unchanged: 0/0
  5806 ;; Data sizes:     COMMON   BANK0   BANK1   BANK3   BANK2
  5807 ;;      Params:         0       0       0       0       0
  5808 ;;      Locals:         0       0       0       0       0
  5809 ;;      Temps:          0       0       0       0       0
  5810 ;;      Totals:         0       0       0       0       0
  5811 ;;Total ram usage:        0 bytes
  5812 ;; Hardware stack levels used: 1
  5813 ;; Hardware stack levels required when called: 1
  5814 ;; This function calls:
  5815 ;;		i1_I2C_Master_Wait
  5816 ;; This function is called by:
  5817 ;;		i1_settingRTC
  5818 ;; This function uses a non-reentrant model
  5819 ;;
  5820                           
  5821     0C3C                     i1_I2C_Master_Stop:	
  5822                           ;psect for function i1_I2C_Master_Stop
  5823                           
  5824     0C3C                     i1l2117:	
  5825                           ;incstack = 0
  5826                           ; Regs used in i1_I2C_Master_Stop: [wreg+status,2+status,0+pclath+cstack]
  5827                           
  5828                           
  5829                           ;I2C.c: 57:     I2C_Master_Wait();
  5830     0C3C  120A  158A  2474  120A  158A  	fcall	i1_I2C_Master_Wait
  5831     0C41                     i1l2119:
  5832                           
  5833                           ;I2C.c: 58:     SSPCON2bits.PEN = 1;
  5834     0C41  1683               	bsf	3,5	;RP0=1, select bank1
  5835     0C42  1303               	bcf	3,6	;RP1=0, select bank1
  5836     0C43  1511               	bsf	17,2	;volatile
  5837     0C44                     i1l129:
  5838     0C44  0008               	return
  5839     0C45                     __end_ofi1_I2C_Master_Stop:
  5840                           
  5841                           	psect	text32
  5842     0C33                     __ptext32:	
  5843 ;; *************** function i1_I2C_Master_Start *****************
  5844 ;; Defined at:
  5845 ;;		line 39 in file "I2C.c"
  5846 ;; Parameters:    Size  Location     Type
  5847 ;;		None
  5848 ;; Auto vars:     Size  Location     Type
  5849 ;;		None
  5850 ;; Return value:  Size  Location     Type
  5851 ;;                  1    wreg      void 
  5852 ;; Registers used:
  5853 ;;		wreg, status,2, status,0, pclath, cstack
  5854 ;; Tracked objects:
  5855 ;;		On entry : 0/0
  5856 ;;		On exit  : 0/0
  5857 ;;		Unchanged: 0/0
  5858 ;; Data sizes:     COMMON   BANK0   BANK1   BANK3   BANK2
  5859 ;;      Params:         0       0       0       0       0
  5860 ;;      Locals:         0       0       0       0       0
  5861 ;;      Temps:          0       0       0       0       0
  5862 ;;      Totals:         0       0       0       0       0
  5863 ;;Total ram usage:        0 bytes
  5864 ;; Hardware stack levels used: 1
  5865 ;; Hardware stack levels required when called: 1
  5866 ;; This function calls:
  5867 ;;		i1_I2C_Master_Wait
  5868 ;; This function is called by:
  5869 ;;		i1_settingRTC
  5870 ;; This function uses a non-reentrant model
  5871 ;;
  5872                           
  5873     0C33                     i1_I2C_Master_Start:	
  5874                           ;psect for function i1_I2C_Master_Start
  5875                           
  5876     0C33                     i1l2113:	
  5877                           ;incstack = 0
  5878                           ; Regs used in i1_I2C_Master_Start: [wreg+status,2+status,0+pclath+cstack]
  5879                           
  5880                           
  5881                           ;I2C.c: 41:     I2C_Master_Wait();
  5882     0C33  120A  158A  2474  120A  158A  	fcall	i1_I2C_Master_Wait
  5883     0C38                     i1l2115:
  5884                           
  5885                           ;I2C.c: 42:     SSPCON2bits.SEN = 1;
  5886     0C38  1683               	bsf	3,5	;RP0=1, select bank1
  5887     0C39  1303               	bcf	3,6	;RP1=0, select bank1
  5888     0C3A  1411               	bsf	17,0	;volatile
  5889     0C3B                     i1l123:
  5890     0C3B  0008               	return
  5891     0C3C                     __end_ofi1_I2C_Master_Start:
  5892                           
  5893                           	psect	text33
  5894     0C74                     __ptext33:	
  5895 ;; *************** function i1_I2C_Master_Wait *****************
  5896 ;; Defined at:
  5897 ;;		line 32 in file "I2C.c"
  5898 ;; Parameters:    Size  Location     Type
  5899 ;;		None
  5900 ;; Auto vars:     Size  Location     Type
  5901 ;;		None
  5902 ;; Return value:  Size  Location     Type
  5903 ;;                  1    wreg      void 
  5904 ;; Registers used:
  5905 ;;		wreg, status,2
  5906 ;; Tracked objects:
  5907 ;;		On entry : 0/0
  5908 ;;		On exit  : 0/0
  5909 ;;		Unchanged: 0/0
  5910 ;; Data sizes:     COMMON   BANK0   BANK1   BANK3   BANK2
  5911 ;;      Params:         0       0       0       0       0
  5912 ;;      Locals:         0       0       0       0       0
  5913 ;;      Temps:          0       0       0       0       0
  5914 ;;      Totals:         0       0       0       0       0
  5915 ;;Total ram usage:        0 bytes
  5916 ;; Hardware stack levels used: 1
  5917 ;; This function calls:
  5918 ;;		Nothing
  5919 ;; This function is called by:
  5920 ;;		i1_I2C_Master_Start
  5921 ;;		i1_I2C_Master_Stop
  5922 ;;		i1_I2C_Master_Write
  5923 ;; This function uses a non-reentrant model
  5924 ;;
  5925                           
  5926     0C74                     i1_I2C_Master_Wait:	
  5927                           ;psect for function i1_I2C_Master_Wait
  5928                           
  5929     0C74                     i1l1881:	
  5930                           ;incstack = 0
  5931                           ; Regs used in i1_I2C_Master_Wait: [wreg+status,2]
  5932                           
  5933     0C74                     i1l117:	
  5934                           ;I2C.c: 34:     while ((SSPSTAT & 0x04) || (SSPCON2 & 0x1F));
  5935                           
  5936     0C74  1683               	bsf	3,5	;RP0=1, select bank1
  5937     0C75  1303               	bcf	3,6	;RP1=0, select bank1
  5938     0C76  1914               	btfsc	20,2	;volatile
  5939     0C77  2C79               	goto	u144_21
  5940     0C78  2C7A               	goto	u144_20
  5941     0C79                     u144_21:
  5942     0C79  2C74               	goto	i1l117
  5943     0C7A                     u144_20:
  5944     0C7A                     i1l1883:
  5945     0C7A  0811               	movf	17,w	;volatile
  5946     0C7B  391F               	andlw	31
  5947     0C7C  1D03               	btfss	3,2
  5948     0C7D  2C7F               	goto	u145_21
  5949     0C7E  2C80               	goto	u145_20
  5950     0C7F                     u145_21:
  5951     0C7F  2C74               	goto	i1l117
  5952     0C80                     u145_20:
  5953     0C80                     i1l120:
  5954     0C80  0008               	return
  5955     0C81                     __end_ofi1_I2C_Master_Wait:
  5956                           
  5957                           	psect	text34
  5958     0D92                     __ptext34:	
  5959 ;; *************** function i1_Decimal_to_BCD *****************
  5960 ;; Defined at:
  5961 ;;		line 295 in file "E:/Universidad/Semestre2_2023/Digital-2/Lab4/Lab4_Master.X/Lab4_Master.c"
  5962 ;; Parameters:    Size  Location     Type
  5963 ;;  decimal_valu    1    wreg     unsigned char 
  5964 ;; Auto vars:     Size  Location     Type
  5965 ;;  decimal_valu    1   13[COMMON] unsigned char 
  5966 ;;  bcd_value       1   12[COMMON] unsigned char 
  5967 ;;  ones_digit      1   11[COMMON] unsigned char 
  5968 ;;  tens_digit      1   10[COMMON] unsigned char 
  5969 ;; Return value:  Size  Location     Type
  5970 ;;                  1    wreg      unsigned char 
  5971 ;; Registers used:
  5972 ;;		wreg, status,2, status,0, btemp+1, pclath, cstack
  5973 ;; Tracked objects:
  5974 ;;		On entry : 0/0
  5975 ;;		On exit  : 0/0
  5976 ;;		Unchanged: 0/0
  5977 ;; Data sizes:     COMMON   BANK0   BANK1   BANK3   BANK2
  5978 ;;      Params:         0       0       0       0       0
  5979 ;;      Locals:         4       0       0       0       0
  5980 ;;      Temps:          2       0       0       0       0
  5981 ;;      Totals:         6       0       0       0       0
  5982 ;;Total ram usage:        6 bytes
  5983 ;; Hardware stack levels used: 1
  5984 ;; Hardware stack levels required when called: 1
  5985 ;; This function calls:
  5986 ;;		i1___awdiv
  5987 ;;		i1___awmod
  5988 ;; This function is called by:
  5989 ;;		i1_settingRTC
  5990 ;; This function uses a non-reentrant model
  5991 ;;
  5992                           
  5993     0D92                     i1_Decimal_to_BCD:	
  5994                           ;psect for function i1_Decimal_to_BCD
  5995                           
  5996                           
  5997                           ;incstack = 0
  5998                           ; Regs used in i1_Decimal_to_BCD: [wreg+status,2+status,0+btemp+1+pclath+cstack]
  5999                           ;i1Decimal_to_BCD@decimal_value stored from wreg
  6000     0D92  00FD               	movwf	i1Decimal_to_BCD@decimal_value
  6001     0D93                     i1l2125:
  6002                           
  6003                           ;E:/Universidad/Semestre2_2023/Digital-2/Lab4/Lab4_Master.X/Lab4_Master.c: 297:     uint
      +                          8_t tens_digit = decimal_value / 10;
  6004     0D93  300A               	movlw	10
  6005     0D94  00F0               	movwf	i1___awdiv@divisor
  6006     0D95  3000               	movlw	0
  6007     0D96  00F1               	movwf	i1___awdiv@divisor+1
  6008     0D97  087D               	movf	i1Decimal_to_BCD@decimal_value,w
  6009     0D98  00F8               	movwf	??i1_Decimal_to_BCD
  6010     0D99  01F9               	clrf	??i1_Decimal_to_BCD+1
  6011     0D9A  0878               	movf	??i1_Decimal_to_BCD,w
  6012     0D9B  00F2               	movwf	i1___awdiv@dividend
  6013     0D9C  0879               	movf	??i1_Decimal_to_BCD+1,w
  6014     0D9D  00F3               	movwf	i1___awdiv@dividend+1
  6015     0D9E  120A  118A  26F3  120A  158A  	fcall	i1___awdiv
  6016     0DA3  0870               	movf	?i1___awdiv,w
  6017     0DA4  00FA               	movwf	i1Decimal_to_BCD@tens_digit
  6018                           
  6019                           ;E:/Universidad/Semestre2_2023/Digital-2/Lab4/Lab4_Master.X/Lab4_Master.c: 298:     uint
      +                          8_t ones_digit = decimal_value % 10;
  6020     0DA5  300A               	movlw	10
  6021     0DA6  00F0               	movwf	i1___awmod@divisor
  6022     0DA7  3000               	movlw	0
  6023     0DA8  00F1               	movwf	i1___awmod@divisor+1
  6024     0DA9  087D               	movf	i1Decimal_to_BCD@decimal_value,w
  6025     0DAA  00F8               	movwf	??i1_Decimal_to_BCD
  6026     0DAB  01F9               	clrf	??i1_Decimal_to_BCD+1
  6027     0DAC  0878               	movf	??i1_Decimal_to_BCD,w
  6028     0DAD  00F2               	movwf	i1___awmod@dividend
  6029     0DAE  0879               	movf	??i1_Decimal_to_BCD+1,w
  6030     0DAF  00F3               	movwf	i1___awmod@dividend+1
  6031     0DB0  120A  158A  274C  120A  158A  	fcall	i1___awmod
  6032     0DB5  0870               	movf	?i1___awmod,w
  6033     0DB6  00FB               	movwf	i1Decimal_to_BCD@ones_digit
  6034     0DB7                     i1l2127:
  6035                           
  6036                           ;E:/Universidad/Semestre2_2023/Digital-2/Lab4/Lab4_Master.X/Lab4_Master.c: 301:     uint
      +                          8_t bcd_value = (tens_digit << 4) | ones_digit;
  6037     0DB7  087A               	movf	i1Decimal_to_BCD@tens_digit,w
  6038     0DB8  00F8               	movwf	??i1_Decimal_to_BCD
  6039     0DB9  3003               	movlw	3
  6040     0DBA                     u191_25:
  6041     0DBA  1003               	clrc
  6042     0DBB  0DF8               	rlf	??i1_Decimal_to_BCD,f
  6043     0DBC  3EFF               	addlw	-1
  6044     0DBD  1D03               	skipz
  6045     0DBE  2DBA               	goto	u191_25
  6046     0DBF  1003               	clrc
  6047     0DC0  0D78               	rlf	??i1_Decimal_to_BCD,w
  6048     0DC1  047B               	iorwf	i1Decimal_to_BCD@ones_digit,w
  6049     0DC2  00FC               	movwf	i1Decimal_to_BCD@bcd_value
  6050     0DC3                     i1l2129:
  6051                           
  6052                           ;E:/Universidad/Semestre2_2023/Digital-2/Lab4/Lab4_Master.X/Lab4_Master.c: 303:     retu
      +                          rn bcd_value;
  6053     0DC3  087C               	movf	i1Decimal_to_BCD@bcd_value,w
  6054     0DC4                     i1l276:
  6055     0DC4  0008               	return
  6056     0DC5                     __end_ofi1_Decimal_to_BCD:
  6057                           
  6058                           	psect	text35
  6059     0F4C                     __ptext35:	
  6060 ;; *************** function i1___awmod *****************
  6061 ;; Defined at:
  6062 ;;		line 5 in file "C:\Program Files\Microchip\xc8\v2.41\pic\sources\c90\common\awmod.c"
  6063 ;; Parameters:    Size  Location     Type
  6064 ;;  divisor         2    0[COMMON] int 
  6065 ;;  dividend        2    2[COMMON] int 
  6066 ;; Auto vars:     Size  Location     Type
  6067 ;;  sign            1    5[COMMON] unsigned char 
  6068 ;;  counter         1    4[COMMON] unsigned char 
  6069 ;; Return value:  Size  Location     Type
  6070 ;;                  2    0[COMMON] int 
  6071 ;; Registers used:
  6072 ;;		wreg, status,2, status,0, btemp+1
  6073 ;; Tracked objects:
  6074 ;;		On entry : 0/0
  6075 ;;		On exit  : 0/0
  6076 ;;		Unchanged: 0/0
  6077 ;; Data sizes:     COMMON   BANK0   BANK1   BANK3   BANK2
  6078 ;;      Params:         4       0       0       0       0
  6079 ;;      Locals:         2       0       0       0       0
  6080 ;;      Temps:          0       0       0       0       0
  6081 ;;      Totals:         6       0       0       0       0
  6082 ;;Total ram usage:        6 bytes
  6083 ;; Hardware stack levels used: 1
  6084 ;; This function calls:
  6085 ;;		Nothing
  6086 ;; This function is called by:
  6087 ;;		i1_Decimal_to_BCD
  6088 ;; This function uses a non-reentrant model
  6089 ;;
  6090                           
  6091     0F4C                     i1___awmod:	
  6092                           ;psect for function i1___awmod
  6093                           
  6094     0F4C                     i1l1929:	
  6095                           ;incstack = 0
  6096                           ; Regs used in i1___awmod: [wreg+status,2+status,0+btemp+1]
  6097                           
  6098     0F4C  01F5               	clrf	i1___awmod@sign
  6099     0F4D                     i1l1931:
  6100     0F4D  1FF3               	btfss	i1___awmod@dividend+1,7
  6101     0F4E  2F50               	goto	u156_21
  6102     0F4F  2F51               	goto	u156_20
  6103     0F50                     u156_21:
  6104     0F50  2F58               	goto	i1l1937
  6105     0F51                     u156_20:
  6106     0F51                     i1l1933:
  6107     0F51  09F2               	comf	i1___awmod@dividend,f
  6108     0F52  09F3               	comf	i1___awmod@dividend+1,f
  6109     0F53  0AF2               	incf	i1___awmod@dividend,f
  6110     0F54  1903               	skipnz
  6111     0F55  0AF3               	incf	i1___awmod@dividend+1,f
  6112     0F56                     i1l1935:
  6113     0F56  01F5               	clrf	i1___awmod@sign
  6114     0F57  0AF5               	incf	i1___awmod@sign,f
  6115     0F58                     i1l1937:
  6116     0F58  1FF1               	btfss	i1___awmod@divisor+1,7
  6117     0F59  2F5B               	goto	u157_21
  6118     0F5A  2F5C               	goto	u157_20
  6119     0F5B                     u157_21:
  6120     0F5B  2F61               	goto	i1l1941
  6121     0F5C                     u157_20:
  6122     0F5C                     i1l1939:
  6123     0F5C  09F0               	comf	i1___awmod@divisor,f
  6124     0F5D  09F1               	comf	i1___awmod@divisor+1,f
  6125     0F5E  0AF0               	incf	i1___awmod@divisor,f
  6126     0F5F  1903               	skipnz
  6127     0F60  0AF1               	incf	i1___awmod@divisor+1,f
  6128     0F61                     i1l1941:
  6129     0F61  0870               	movf	i1___awmod@divisor,w
  6130     0F62  0471               	iorwf	i1___awmod@divisor+1,w
  6131     0F63  1903               	btfsc	3,2
  6132     0F64  2F66               	goto	u158_21
  6133     0F65  2F67               	goto	u158_20
  6134     0F66                     u158_21:
  6135     0F66  2F96               	goto	i1l1959
  6136     0F67                     u158_20:
  6137     0F67                     i1l1943:
  6138     0F67  01F4               	clrf	i1___awmod@counter
  6139     0F68  0AF4               	incf	i1___awmod@counter,f
  6140     0F69  2F75               	goto	i1l1949
  6141     0F6A                     i1l1945:
  6142     0F6A  3001               	movlw	1
  6143     0F6B                     u159_25:
  6144     0F6B  1003               	clrc
  6145     0F6C  0DF0               	rlf	i1___awmod@divisor,f
  6146     0F6D  0DF1               	rlf	i1___awmod@divisor+1,f
  6147     0F6E  3EFF               	addlw	-1
  6148     0F6F  1D03               	skipz
  6149     0F70  2F6B               	goto	u159_25
  6150     0F71                     i1l1947:
  6151     0F71  3001               	movlw	1
  6152     0F72  00FF               	movwf	btemp+1
  6153     0F73  087F               	movf	btemp+1,w
  6154     0F74  07F4               	addwf	i1___awmod@counter,f
  6155     0F75                     i1l1949:
  6156     0F75  1FF1               	btfss	i1___awmod@divisor+1,7
  6157     0F76  2F78               	goto	u160_21
  6158     0F77  2F79               	goto	u160_20
  6159     0F78                     u160_21:
  6160     0F78  2F6A               	goto	i1l1945
  6161     0F79                     u160_20:
  6162     0F79                     i1l1951:
  6163     0F79  0871               	movf	i1___awmod@divisor+1,w
  6164     0F7A  0273               	subwf	i1___awmod@dividend+1,w
  6165     0F7B  1D03               	skipz
  6166     0F7C  2F7F               	goto	u161_25
  6167     0F7D  0870               	movf	i1___awmod@divisor,w
  6168     0F7E  0272               	subwf	i1___awmod@dividend,w
  6169     0F7F                     u161_25:
  6170     0F7F  1C03               	skipc
  6171     0F80  2F82               	goto	u161_21
  6172     0F81  2F83               	goto	u161_20
  6173     0F82                     u161_21:
  6174     0F82  2F89               	goto	i1l1955
  6175     0F83                     u161_20:
  6176     0F83                     i1l1953:
  6177     0F83  0870               	movf	i1___awmod@divisor,w
  6178     0F84  02F2               	subwf	i1___awmod@dividend,f
  6179     0F85  0871               	movf	i1___awmod@divisor+1,w
  6180     0F86  1C03               	skipc
  6181     0F87  03F3               	decf	i1___awmod@dividend+1,f
  6182     0F88  02F3               	subwf	i1___awmod@dividend+1,f
  6183     0F89                     i1l1955:
  6184     0F89  3001               	movlw	1
  6185     0F8A                     u162_25:
  6186     0F8A  1003               	clrc
  6187     0F8B  0CF1               	rrf	i1___awmod@divisor+1,f
  6188     0F8C  0CF0               	rrf	i1___awmod@divisor,f
  6189     0F8D  3EFF               	addlw	-1
  6190     0F8E  1D03               	skipz
  6191     0F8F  2F8A               	goto	u162_25
  6192     0F90                     i1l1957:
  6193     0F90  3001               	movlw	1
  6194     0F91  02F4               	subwf	i1___awmod@counter,f
  6195     0F92  1D03               	btfss	3,2
  6196     0F93  2F95               	goto	u163_21
  6197     0F94  2F96               	goto	u163_20
  6198     0F95                     u163_21:
  6199     0F95  2F79               	goto	i1l1951
  6200     0F96                     u163_20:
  6201     0F96                     i1l1959:
  6202     0F96  0875               	movf	i1___awmod@sign,w
  6203     0F97  1903               	btfsc	3,2
  6204     0F98  2F9A               	goto	u164_21
  6205     0F99  2F9B               	goto	u164_20
  6206     0F9A                     u164_21:
  6207     0F9A  2FA0               	goto	i1l1963
  6208     0F9B                     u164_20:
  6209     0F9B                     i1l1961:
  6210     0F9B  09F2               	comf	i1___awmod@dividend,f
  6211     0F9C  09F3               	comf	i1___awmod@dividend+1,f
  6212     0F9D  0AF2               	incf	i1___awmod@dividend,f
  6213     0F9E  1903               	skipnz
  6214     0F9F  0AF3               	incf	i1___awmod@dividend+1,f
  6215     0FA0                     i1l1963:
  6216     0FA0  0873               	movf	i1___awmod@dividend+1,w
  6217     0FA1  00F1               	movwf	?i1___awmod+1
  6218     0FA2  0872               	movf	i1___awmod@dividend,w
  6219     0FA3  00F0               	movwf	?i1___awmod
  6220     0FA4                     i1l570:
  6221     0FA4  0008               	return
  6222     0FA5                     __end_ofi1___awmod:
  6223                           
  6224                           	psect	text36
  6225     06F3                     __ptext36:	
  6226 ;; *************** function i1___awdiv *****************
  6227 ;; Defined at:
  6228 ;;		line 5 in file "C:\Program Files\Microchip\xc8\v2.41\pic\sources\c90\common\awdiv.c"
  6229 ;; Parameters:    Size  Location     Type
  6230 ;;  divisor         2    0[COMMON] int 
  6231 ;;  dividend        2    2[COMMON] int 
  6232 ;; Auto vars:     Size  Location     Type
  6233 ;;  quotient        2    6[COMMON] int 
  6234 ;;  sign            1    5[COMMON] unsigned char 
  6235 ;;  counter         1    4[COMMON] unsigned char 
  6236 ;; Return value:  Size  Location     Type
  6237 ;;                  2    0[COMMON] int 
  6238 ;; Registers used:
  6239 ;;		wreg, status,2, status,0, btemp+1
  6240 ;; Tracked objects:
  6241 ;;		On entry : 0/0
  6242 ;;		On exit  : 0/0
  6243 ;;		Unchanged: 0/0
  6244 ;; Data sizes:     COMMON   BANK0   BANK1   BANK3   BANK2
  6245 ;;      Params:         4       0       0       0       0
  6246 ;;      Locals:         4       0       0       0       0
  6247 ;;      Temps:          0       0       0       0       0
  6248 ;;      Totals:         8       0       0       0       0
  6249 ;;Total ram usage:        8 bytes
  6250 ;; Hardware stack levels used: 1
  6251 ;; This function calls:
  6252 ;;		Nothing
  6253 ;; This function is called by:
  6254 ;;		i1_Decimal_to_BCD
  6255 ;; This function uses a non-reentrant model
  6256 ;;
  6257                           
  6258     06F3                     i1___awdiv:	
  6259                           ;psect for function i1___awdiv
  6260                           
  6261     06F3                     i1l1885:	
  6262                           ;incstack = 0
  6263                           ; Regs used in i1___awdiv: [wreg+status,2+status,0+btemp+1]
  6264                           
  6265     06F3  01F5               	clrf	i1___awdiv@sign
  6266     06F4                     i1l1887:
  6267     06F4  1FF1               	btfss	i1___awdiv@divisor+1,7
  6268     06F5  2EF7               	goto	u146_21
  6269     06F6  2EF8               	goto	u146_20
  6270     06F7                     u146_21:
  6271     06F7  2EFF               	goto	i1l1893
  6272     06F8                     u146_20:
  6273     06F8                     i1l1889:
  6274     06F8  09F0               	comf	i1___awdiv@divisor,f
  6275     06F9  09F1               	comf	i1___awdiv@divisor+1,f
  6276     06FA  0AF0               	incf	i1___awdiv@divisor,f
  6277     06FB  1903               	skipnz
  6278     06FC  0AF1               	incf	i1___awdiv@divisor+1,f
  6279     06FD                     i1l1891:
  6280     06FD  01F5               	clrf	i1___awdiv@sign
  6281     06FE  0AF5               	incf	i1___awdiv@sign,f
  6282     06FF                     i1l1893:
  6283     06FF  1FF3               	btfss	i1___awdiv@dividend+1,7
  6284     0700  2F02               	goto	u147_21
  6285     0701  2F03               	goto	u147_20
  6286     0702                     u147_21:
  6287     0702  2F0C               	goto	i1l1899
  6288     0703                     u147_20:
  6289     0703                     i1l1895:
  6290     0703  09F2               	comf	i1___awdiv@dividend,f
  6291     0704  09F3               	comf	i1___awdiv@dividend+1,f
  6292     0705  0AF2               	incf	i1___awdiv@dividend,f
  6293     0706  1903               	skipnz
  6294     0707  0AF3               	incf	i1___awdiv@dividend+1,f
  6295     0708                     i1l1897:
  6296     0708  3001               	movlw	1
  6297     0709  00FF               	movwf	btemp+1
  6298     070A  087F               	movf	btemp+1,w
  6299     070B  06F5               	xorwf	i1___awdiv@sign,f
  6300     070C                     i1l1899:
  6301     070C  01F6               	clrf	i1___awdiv@quotient
  6302     070D  01F7               	clrf	i1___awdiv@quotient+1
  6303     070E                     i1l1901:
  6304     070E  0870               	movf	i1___awdiv@divisor,w
  6305     070F  0471               	iorwf	i1___awdiv@divisor+1,w
  6306     0710  1903               	btfsc	3,2
  6307     0711  2F13               	goto	u148_21
  6308     0712  2F14               	goto	u148_20
  6309     0713                     u148_21:
  6310     0713  2F4B               	goto	i1l1921
  6311     0714                     u148_20:
  6312     0714                     i1l1903:
  6313     0714  01F4               	clrf	i1___awdiv@counter
  6314     0715  0AF4               	incf	i1___awdiv@counter,f
  6315     0716  2F22               	goto	i1l1909
  6316     0717                     i1l1905:
  6317     0717  3001               	movlw	1
  6318     0718                     u149_25:
  6319     0718  1003               	clrc
  6320     0719  0DF0               	rlf	i1___awdiv@divisor,f
  6321     071A  0DF1               	rlf	i1___awdiv@divisor+1,f
  6322     071B  3EFF               	addlw	-1
  6323     071C  1D03               	skipz
  6324     071D  2F18               	goto	u149_25
  6325     071E                     i1l1907:
  6326     071E  3001               	movlw	1
  6327     071F  00FF               	movwf	btemp+1
  6328     0720  087F               	movf	btemp+1,w
  6329     0721  07F4               	addwf	i1___awdiv@counter,f
  6330     0722                     i1l1909:
  6331     0722  1FF1               	btfss	i1___awdiv@divisor+1,7
  6332     0723  2F25               	goto	u150_21
  6333     0724  2F26               	goto	u150_20
  6334     0725                     u150_21:
  6335     0725  2F17               	goto	i1l1905
  6336     0726                     u150_20:
  6337     0726                     i1l1911:
  6338     0726  3001               	movlw	1
  6339     0727                     u151_25:
  6340     0727  1003               	clrc
  6341     0728  0DF6               	rlf	i1___awdiv@quotient,f
  6342     0729  0DF7               	rlf	i1___awdiv@quotient+1,f
  6343     072A  3EFF               	addlw	-1
  6344     072B  1D03               	skipz
  6345     072C  2F27               	goto	u151_25
  6346     072D  0871               	movf	i1___awdiv@divisor+1,w
  6347     072E  0273               	subwf	i1___awdiv@dividend+1,w
  6348     072F  1D03               	skipz
  6349     0730  2F33               	goto	u152_25
  6350     0731  0870               	movf	i1___awdiv@divisor,w
  6351     0732  0272               	subwf	i1___awdiv@dividend,w
  6352     0733                     u152_25:
  6353     0733  1C03               	skipc
  6354     0734  2F36               	goto	u152_21
  6355     0735  2F37               	goto	u152_20
  6356     0736                     u152_21:
  6357     0736  2F3E               	goto	i1l1917
  6358     0737                     u152_20:
  6359     0737                     i1l1913:
  6360     0737  0870               	movf	i1___awdiv@divisor,w
  6361     0738  02F2               	subwf	i1___awdiv@dividend,f
  6362     0739  0871               	movf	i1___awdiv@divisor+1,w
  6363     073A  1C03               	skipc
  6364     073B  03F3               	decf	i1___awdiv@dividend+1,f
  6365     073C  02F3               	subwf	i1___awdiv@dividend+1,f
  6366     073D                     i1l1915:
  6367     073D  1476               	bsf	i1___awdiv@quotient,0
  6368     073E                     i1l1917:
  6369     073E  3001               	movlw	1
  6370     073F                     u153_25:
  6371     073F  1003               	clrc
  6372     0740  0CF1               	rrf	i1___awdiv@divisor+1,f
  6373     0741  0CF0               	rrf	i1___awdiv@divisor,f
  6374     0742  3EFF               	addlw	-1
  6375     0743  1D03               	skipz
  6376     0744  2F3F               	goto	u153_25
  6377     0745                     i1l1919:
  6378     0745  3001               	movlw	1
  6379     0746  02F4               	subwf	i1___awdiv@counter,f
  6380     0747  1D03               	btfss	3,2
  6381     0748  2F4A               	goto	u154_21
  6382     0749  2F4B               	goto	u154_20
  6383     074A                     u154_21:
  6384     074A  2F26               	goto	i1l1911
  6385     074B                     u154_20:
  6386     074B                     i1l1921:
  6387     074B  0875               	movf	i1___awdiv@sign,w
  6388     074C  1903               	btfsc	3,2
  6389     074D  2F4F               	goto	u155_21
  6390     074E  2F50               	goto	u155_20
  6391     074F                     u155_21:
  6392     074F  2F55               	goto	i1l1925
  6393     0750                     u155_20:
  6394     0750                     i1l1923:
  6395     0750  09F6               	comf	i1___awdiv@quotient,f
  6396     0751  09F7               	comf	i1___awdiv@quotient+1,f
  6397     0752  0AF6               	incf	i1___awdiv@quotient,f
  6398     0753  1903               	skipnz
  6399     0754  0AF7               	incf	i1___awdiv@quotient+1,f
  6400     0755                     i1l1925:
  6401     0755  0877               	movf	i1___awdiv@quotient+1,w
  6402     0756  00F1               	movwf	?i1___awdiv+1
  6403     0757  0876               	movf	i1___awdiv@quotient,w
  6404     0758  00F0               	movwf	?i1___awdiv
  6405     0759                     i1l557:
  6406     0759  0008               	return
  6407     075A                     __end_ofi1___awdiv:
  6408     007E                     btemp	set	126	;btemp
  6409     007E                     wtemp0	set	126
  6410                           
  6411                           	psect	idloc
  6412                           
  6413                           ;Config register IDLOC0 @ 0x2000
  6414                           ;	unspecified, using default values
  6415     2000                     	org	8192
  6416     2000  3FFF               	dw	16383
  6417                           
  6418                           ;Config register IDLOC1 @ 0x2001
  6419                           ;	unspecified, using default values
  6420     2001                     	org	8193
  6421     2001  3FFF               	dw	16383
  6422                           
  6423                           ;Config register IDLOC2 @ 0x2002
  6424                           ;	unspecified, using default values
  6425     2002                     	org	8194
  6426     2002  3FFF               	dw	16383
  6427                           
  6428                           ;Config register IDLOC3 @ 0x2003
  6429                           ;	unspecified, using default values
  6430     2003                     	org	8195
  6431     2003  3FFF               	dw	16383
  6432                           
  6433                           	psect	config
  6434                           
  6435                           ;Config register CONFIG1 @ 0x2007
  6436                           ;	Oscillator Selection bits
  6437                           ;	FOSC = INTRC_NOCLKOUT, INTOSCIO oscillator: I/O function on RA6/OSC2/CLKOUT pin, I/O f
      +                          unction on RA7/OSC1/CLKIN
  6438                           ;	Watchdog Timer Enable bit
  6439                           ;	WDTE = OFF, WDT disabled and can be enabled by SWDTEN bit of the WDTCON register
  6440                           ;	Power-up Timer Enable bit
  6441                           ;	PWRTE = OFF, PWRT disabled
  6442                           ;	RE3/MCLR pin function select bit
  6443                           ;	MCLRE = OFF, RE3/MCLR pin function is digital input, MCLR internally tied to VDD
  6444                           ;	Code Protection bit
  6445                           ;	CP = OFF, Program memory code protection is disabled
  6446                           ;	Data Code Protection bit
  6447                           ;	CPD = OFF, Data memory code protection is disabled
  6448                           ;	Brown Out Reset Selection bits
  6449                           ;	BOREN = OFF, BOR disabled
  6450                           ;	Internal External Switchover bit
  6451                           ;	IESO = OFF, Internal/External Switchover mode is disabled
  6452                           ;	Fail-Safe Clock Monitor Enabled bit
  6453                           ;	FCMEN = OFF, Fail-Safe Clock Monitor is disabled
  6454                           ;	Low Voltage Programming Enable bit
  6455                           ;	LVP = OFF, RB3 pin has digital I/O, HV on MCLR must be used for programming
  6456                           ;	In-Circuit Debugger Mode bit
  6457                           ;	DEBUG = 0x1, unprogramme  6458     2007                     	org	8199
  6459     2007  20D4               	dw	8404
  6460                           
  6461                           ;Config register CONFIG2 @ 0x2008
  6462                           ;	Brown-out Reset Selection bit
  6463                           ;	BOR4V = BOR40V, Brown-out Reset set to 4.0V
  6464                           ;	Flash Program Memory Self Write Enable bits
  6465                           ;	WRT = OFF, Write protection off
  6466     2008                     	org	8200
  6467     2008  3FFF               	dw	16383

Data Sizes:
    Strings     36
    Constant    10
    Data        0
    BSS         30
    Persistent  0
    Stack       0

Auto Spaces:
    Space          Size  Autos    Used
    COMMON           14     14      14
    BANK0            80     45      59
    BANK1            80      6      22
    BANK3            96      0       0
    BANK2            96      0       0

Pointer List with Targets:

    sprintf@f	PTR const unsigned char  size(1) Largest target is 17
		 -> STR_4(CODE[15]), STR_3(CODE[5]), STR_2(CODE[17]), STR_1(CODE[4]), 

    sprintf@sp	PTR unsigned char  size(1) Largest target is 16
		 -> lineLCD(BANK1[16]), 

    sprintf@ap	PTR void [1] size(1) Largest target is 2
		 -> ?_sprintf(BANK0[2]), 

    Lcd_Write_String@a	PTR unsigned char  size(1) Largest target is 16
		 -> lineLCD(BANK1[16]), 


Critical Paths under _main in COMMON

    None.

Critical Paths under _isr in COMMON

    i1_settingRTC->i1_Decimal_to_BCD
    i1_I2C_Master_Write->i1_Decimal_to_BCD
    i1_Decimal_to_BCD->i1___awdiv

Critical Paths under _main in BANK0

    _main->_sprintf
    _sprintf->___lwmod
    ___lwmod->___lwdiv
    _setup->_I2C_Master_Init
    _Lcd_Init->_Lcd_Cmd
    _I2C_Master_Init->___lldiv
    _settingRTC->_I2C_Master_Write
    _I2C_Master_Write->_Decimal_to_BCD
    _Decimal_to_BCD->___awdiv
    _Lcd_Write_String->_Lcd_Write_Char
    _Lcd_Write_Char->_Lcd_Port
    _Lcd_Set_Cursor->_Lcd_Cmd
    _Lcd_Clear->_Lcd_Cmd
    _Lcd_Cmd->_Lcd_Port
    _BCD_to_Decimal->___bmul

Critical Paths under _isr in BANK0

    _isr->i1_settingRTC
    i1_settingRTC->i1_I2C_Master_Write

Critical Paths under _main in BANK1

    None.

Critical Paths under _isr in BANK1

    None.

Critical Paths under _main in BANK3

    None.

Critical Paths under _isr in BANK3

    None.

Critical Paths under _main in BANK2

    None.

Critical Paths under _isr in BANK2

    None.

Call Graph Tables:

 ---------------------------------------------------------------------------------
 (Depth) Function   	        Calls       Base Space   Used Autos Params    Refs
 ---------------------------------------------------------------------------------
 (0) _main                                                 6     6      0   11947
                                              0 BANK1      6     6      0
                     _BCD_to_Decimal
                    _I2C_Master_Read
           _I2C_Master_RepeatedStart
                   _I2C_Master_Start
                    _I2C_Master_Stop
                   _I2C_Master_Write
                          _Lcd_Clear
                     _Lcd_Set_Cursor
                   _Lcd_Write_String
                         _settingRTC
                              _setup
                            _sprintf
 ---------------------------------------------------------------------------------
 (1) _sprintf                                             25    18      7    2100
                                             28 BANK0     17    10      7
                             ___bmul
                            ___lwdiv
                            ___lwmod
                            _isdigit
 ---------------------------------------------------------------------------------
 (2) _isdigit                                              2     2      0      68
                                             16 BANK0      2     2      0
 ---------------------------------------------------------------------------------
 (2) ___lwmod                                              5     1      4     311
                                             23 BANK0      5     1      4
                            ___lwdiv (ARG)
 ---------------------------------------------------------------------------------
 (2) ___lwdiv                                              7     3      4     314
                                             16 BANK0      7     3      4
 ---------------------------------------------------------------------------------
 (1) _setup                                                0     0      0    1016
                    _I2C_Master_Init
                           _Lcd_Init
                          _configOsc
 ---------------------------------------------------------------------------------
 (2) _configOsc                                            2     0      2     230
                                             16 BANK0      2     0      2
 ---------------------------------------------------------------------------------
 (2) _Lcd_Init                                             2     2      0     374
                                             20 BANK0      2     2      0
                            _Lcd_Cmd
                           _Lcd_Port
 ---------------------------------------------------------------------------------
 (2) _I2C_Master_Init                                      8     4      4     412
                                             30 BANK0      8     4      4
                            ___lldiv
 ---------------------------------------------------------------------------------
 (3) ___lldiv                                             14     6      8     314
                                             16 BANK0     14     6      8
 ---------------------------------------------------------------------------------
 (1) _settingRTC                                           8     3      5    5557
                                             32 BANK0      8     3      5
                     _Decimal_to_BCD
                   _I2C_Master_Start
                    _I2C_Master_Stop
                   _I2C_Master_Write
 ---------------------------------------------------------------------------------
 (2) _I2C_Master_Write                                     2     0      2    1010
                                             30 BANK0      2     0      2
                     _Decimal_to_BCD (ARG)
                    _I2C_Master_Wait
 ---------------------------------------------------------------------------------
 (2) _I2C_Master_Stop                                      0     0      0       0
                    _I2C_Master_Wait
 ---------------------------------------------------------------------------------
 (2) _I2C_Master_Start                                     0     0      0       0
                    _I2C_Master_Wait
 ---------------------------------------------------------------------------------
 (2) _Decimal_to_BCD                                       6     6      0    1013
                                             24 BANK0      6     6      0
                            ___awdiv
                            ___awmod
 ---------------------------------------------------------------------------------
 (3) ___awmod                                              6     2      4     448
                                             16 BANK0      6     2      4
 ---------------------------------------------------------------------------------
 (3) ___awdiv                                              8     4      4     452
                                             16 BANK0      8     4      4
 ---------------------------------------------------------------------------------
 (1) _Lcd_Write_String                                     4     4      0     420
                                             19 BANK0      4     4      0
                     _Lcd_Write_Char
 ---------------------------------------------------------------------------------
 (2) _Lcd_Write_Char                                       2     2      0     198
                                             17 BANK0      2     2      0
                           _Lcd_Port
 ---------------------------------------------------------------------------------
 (1) _Lcd_Set_Cursor                                       3     2      1     636
                                             20 BANK0      3     2      1
                            _Lcd_Cmd
 ---------------------------------------------------------------------------------
 (1) _Lcd_Clear                                            0     0      0     198
                            _Lcd_Cmd
 ---------------------------------------------------------------------------------
 (3) _Lcd_Cmd                                              3     3      0     198
                                             17 BANK0      3     3      0
                           _Lcd_Port
 ---------------------------------------------------------------------------------
 (3) _Lcd_Port                                             1     1      0     176
                                             16 BANK0      1     1      0
 ---------------------------------------------------------------------------------
 (1) _I2C_Master_RepeatedStart                             0     0      0       0
                    _I2C_Master_Wait
 ---------------------------------------------------------------------------------
 (1) _I2C_Master_Read                                      6     4      2     653
                                             16 BANK0      6     4      2
                    _I2C_Master_Wait
 ---------------------------------------------------------------------------------
 (3) _I2C_Master_Wait                                      0     0      0       0
 ---------------------------------------------------------------------------------
 (1) _BCD_to_Decimal                                       5     5      0     357
                                             19 BANK0      5     5      0
                             ___bmul
 ---------------------------------------------------------------------------------
 (2) ___bmul                                               3     2      1     244
                                             16 BANK0      3     2      1
 ---------------------------------------------------------------------------------
 Estimated maximum stack depth 3
 ---------------------------------------------------------------------------------
 (Depth) Function   	        Calls       Base Space   Used Autos Params    Refs
 ---------------------------------------------------------------------------------
 (5) _isr                                                  6     6      0    2783
                                             10 BANK0      6     6      0
                       i1_settingRTC
 ---------------------------------------------------------------------------------
 (6) i1_settingRTC                                         8     3      5    2783
                                              2 BANK0      8     3      5
                   i1_Decimal_to_BCD
                 i1_I2C_Master_Start
                  i1_I2C_Master_Stop
                 i1_I2C_Master_Write
 ---------------------------------------------------------------------------------
 (7) i1_I2C_Master_Write                                   2     0      2     256
                                              0 BANK0      2     0      2
                   i1_Decimal_to_BCD (ARG)
                  i1_I2C_Master_Wait
 ---------------------------------------------------------------------------------
 (7) i1_I2C_Master_Stop                                    0     0      0       0
                  i1_I2C_Master_Wait
 ---------------------------------------------------------------------------------
 (7) i1_I2C_Master_Start                                   0     0      0       0
                  i1_I2C_Master_Wait
 ---------------------------------------------------------------------------------
 (8) i1_I2C_Master_Wait                                    0     0      0       0
 ---------------------------------------------------------------------------------
 (7) i1_Decimal_to_BCD                                     6     6      0     813
                                              8 COMMON     6     6      0
                          i1___awdiv
                          i1___awmod
 ---------------------------------------------------------------------------------
 (8) i1___awmod                                            6     2      4     348
                                              0 COMMON     6     2      4
 ---------------------------------------------------------------------------------
 (8) i1___awdiv                                            8     4      4     352
                                              0 COMMON     8     4      4
 ---------------------------------------------------------------------------------
 Estimated maximum stack depth 8
 ---------------------------------------------------------------------------------

 Call Graph Graphs:

 _main (ROOT)
   _BCD_to_Decimal
     ___bmul
   _I2C_Master_Read
     _I2C_Master_Wait
   _I2C_Master_RepeatedStart
     _I2C_Master_Wait
   _I2C_Master_Start
     _I2C_Master_Wait
   _I2C_Master_Stop
     _I2C_Master_Wait
   _I2C_Master_Write
     _Decimal_to_BCD (ARG)
       ___awdiv
       ___awmod
     _I2C_Master_Wait (ARG)
   _Lcd_Clear
     _Lcd_Cmd
       _Lcd_Port
   _Lcd_Set_Cursor
     _Lcd_Cmd
   _Lcd_Write_String
     _Lcd_Write_Char
       _Lcd_Port
   _settingRTC
     _Decimal_to_BCD
     _I2C_Master_Start
     _I2C_Master_Stop
     _I2C_Master_Write
   _setup
     _I2C_Master_Init
       ___lldiv
     _Lcd_Init
       _Lcd_Cmd
       _Lcd_Port
     _configOsc
   _sprintf
     ___bmul
     ___lwdiv
     ___lwmod
       ___lwdiv (ARG)
     _isdigit

 _isr (ROOT)
   i1_settingRTC
     i1_Decimal_to_BCD
       i1___awdiv
       i1___awmod
     i1_I2C_Master_Start
       i1_I2C_Master_Wait
     i1_I2C_Master_Stop
       i1_I2C_Master_Wait
     i1_I2C_Master_Write
       i1_Decimal_to_BCD (ARG)
       i1_I2C_Master_Wait (ARG)

 Address spaces:
Name               Size   Autos  Total    Cost      Usage
BITCOMMON            E      0       0       0        0.0%
EEDATA             100      0       0       0        0.0%
NULL                 0      0       0       0        0.0%
CODE                 0      0       0       0        0.0%
COMMON               E      E       E       1      100.0%
BITSFR0              0      0       0       1        0.0%
SFR0                 0      0       0       1        0.0%
BITSFR1              0      0       0       2        0.0%
SFR1                 0      0       0       2        0.0%
STACK                0      0       0       2        0.0%
ABS                  0      0      5F       3        0.0%
BITBANK0            50      0       0       4        0.0%
BITSFR3              0      0       0       4        0.0%
SFR3                 0      0       0       4        0.0%
BANK0               50     2D      3B       5       73.8%
BITSFR2              0      0       0       5        0.0%
SFR2                 0      0       0       5        0.0%
BITBANK1            50      0       0       6        0.0%
BANK1               50      6      16       7       27.5%
BITBANK3            60      0       0       8        0.0%
BANK3               60      0       0       9        0.0%
BITBANK2            60      0       0      10        0.0%
BANK2               60      0       0      11        0.0%
DATA                 0      0      5F      12        0.0%


Microchip Technology PIC Macro Assembler V2.41 build 20230208172133 
Symbol Table                                                                                   Wed Aug 09 19:50:45 2023

          __end_of_BCD_to_Decimal 0D19                                 _a 005A                                 pc 0002  
                  ___bmul@product 0031                                l30 0E49                                l31 0E4F  
                              l40 0E6C                                l32 0E50                                l41 0E72  
                              l33 0E56                                l34 0E57                                l43 0E73  
                              l35 0E5D                                l27 0E41                                l36 0E5E  
                              l28 0E42                                l37 0E64                                l29 0E48  
                              l61 0CDD                                l38 0E65                                l46 0CF9  
                              l39 0E6B                                l55 0D3A                                l80 0782  
                              l49 0C9A                                l81 0792                                l58 0F4B  
                              l82 07A0                                l67 0D5F                                l83 07AE  
                              l85 07BD                                l78 0767                                l79 0775  
                    ___awdiv@sign 0035                                fsr 0004              __end_ofi1_settingRTC 0622  
                             l120 0C8D                               l114 0E37                               l123 0C56  
                             l132 0C73                               l117 0C81                               l126 0C4D  
                             l135 0D87                               l136 0D8A                               l400 037F  
                             l137 0D91                               l129 0C5F                               l430 0CC5  
                             l270 056B                               l440 06F2                               l273 0D18  
                             l267 07FA                               l276 0DFD                               l570 0FFF  
                             l557 068A                               l676 0EF5                               l686 0EAF  
                             l857 0CAE                               _GIE 005F                               _RB0 0030  
                             _RB1 0031                               _RC0 0038                               _RB2 0032  
                             _RC1 0039                               _RD0 0040                               _RD1 0041  
                             _RD2 0042                               _RD3 0043                               _RD4 0044  
                             _RD5 0045                               _RD6 0046                               _RD7 0047  
                             _isr 0380                               fsr0 0004                               indf 0000  
                    ___awmod@sign 0035                              l2001 07B6                              l2011 0E34  
                            l2003 07BA                              l2021 0C57                              l2013 0E35  
                            l2005 0DFE                              l2101 0E8E                              l2031 0DF0  
                            l2023 0C5C                              l2015 0E36                              l2007 0E02  
                            l2103 0E98                              l2033 0DFC                              l2017 0C4E  
                            l2025 0C6A                              l2009 0E05                              l2201 07D0  
                            l2105 0E9E                              l2041 0CA5                              l2051 0CB3  
                            l2019 0C53                              l2027 0C6F                              l2211 07D9  
                            l2203 07D2                              l2107 0EA5                              l2043 0CAB  
                            l2061 0CC4                              l2053 0CB7                              l2133 0C8E  
                            l2141 0D2B                              l2029 0DC8                              l2221 07EE  
                            l2213 07DA                              l2205 07D4                              l2109 0EAB  
                            l2045 0CAD                              l2037 0C9E                              l2055 0CBB  
                            l2143 0D31                              l2135 0D1C                              l2151 0D4C  
                            l2231 07F5                              l2223 07EF                              l2215 07DB  
                            l2207 07D5                              l2071 0EBD                              l2039 0C9F  
                            l2311 02F3                              l2303 02CD                              l2057 0CBD  
                            l2049 0CB2                              l2241 0CFD                              l2161 0D65  
                            l2145 0D34                              l2137 0D21                              l2153 0D54  
                            l2233 07F6                              l2225 07F0                              l2217 07E8  
                            l2209 07D8                              l2081 0EE3                              l2073 0EC4  
                            l2065 0EB0                              l2321 0324                              l2313 0303  
                            l2059 0CBF                              l2243 0D08                              l2171 0D8B  
                            l2163 0D6D                              l2155 0C45                              l2139 0D24  
                            l2147 0D3E                              l2235 07F7                              l2227 07F1  
                            l2219 07ED                              l2083 0EE4                              l2075 0EC8  
                            l2067 0EB4                              l2091 0E74                              l2323 0329  
                            l2331 0362                              l2315 0304                              l2307 02E9  
                            l2251 0230                              l2245 0D0B                              l2165 0D76  
                            l2157 0C4A                              l2149 0D41                              l2181 04FD  
                            l2237 07F8                              l2229 07F4                              l2085 0EEB  
                            l2077 0ECC                              l2069 0EBA                              l2093 0E7C  
                            l2325 032E                              l2317 0318                              l2309 02ED  
                            l2261 0244                              l2253 0233                              l2333 036B  
                            l2247 0D17                              l2167 0D7B                              l2159 0D60  
                            l2191 0566                              l2183 0512                              l2175 04B9  
                            l2239 07F9                              l2079 0EDD                              l2087 0EF1  
                            l2095 0E7F                              l2327 035C                              l2319 031C  
                            l2335 037B                              l2271 026E                              l2263 0250  
                            l2255 0239                              l2169 0D83                              l1801 0625  
                            l2185 0527                              l2177 04D3                              l2193 07BE  
                            l2097 0E86                              l2281 02A3                              l2273 0272  
                            l2265 0254                              l2257 023E                              l2601 00E5  
                            l1811 0639                              l1803 0629                              l2187 053C  
                            l2179 04E8                              l2195 07C9                              l2099 0E8A  
                            l2291 02BC                              l2283 02AB                              l2267 0256  
                            l2275 0283                              l2259 0243                              l2611 012A  
                            l2603 00FD                              l1741 0E3B                              l1821 064F  
                            l1813 063D                              l1805 062E                              l2189 0551  
                            l2197 07CC                              l2293 02C1                              l2285 02AF  
                            l2269 0263                              l2621 0167                              l2613 012F  
                            l2605 010C                              l1751 0E5B                              l1743 0E3F  
                            l1831 066F                              l1823 0653                              l1815 063F  
                            l1807 0630                              l2199 07CD                              l2295 02C7  
                            l2287 02B3                              l2279 0284                              l2631 020E  
                            l2623 01A4                              l2615 014D                              l2607 0111  
                            l1753 0E62                              l1745 0E46                              l1761 0CE2  
                            l1833 0676                              l1825 0657                              l1817 0645  
                            l1809 0634                              l2297 02CB                              l2289 02B7  
                            l2633 0214                              l2625 01AE                              l2617 0157  
                            l2609 011C                              l1771 0C87                              l1755 0E69  
                            l1747 0E4D                              l1763 0CE8                              l1827 0668  
                            l1819 0648                              l1835 067C                              l1851 0FB3  
                            l1843 0FA5                              l2731 0298                              l2635 021E  
                            l2627 01C7                              l2619 015D                              l1757 0E70  
                            l1749 0E54                              l1765 0CEB                              l1837 0681  
                            l1829 066E                              l1861 0FCC                              l1853 0FB7  
                            l1845 0FA8                              l1781 06AD                              l1773 068B  
                            l2637 0226                              l2629 01CD                              l2581 0046  
                            l1767 0CF6                              l1759 0CE1                              l1839 0686  
                            l1871 0FEB                              l1863 0FD0                              l1855 0FBC  
                            l1847 0FAC                              l1791 06DB                              l1783 06B1  
                            l1775 069D                              l2639 0227                              l2591 0081  
                            l2583 0051                              l1769 0C81                              l1865 0FD4  
                            l1857 0FC2                              l1873 0FF1                              l1849 0FB1  
                            l1793 06E4                              l1785 06BA                              l1777 06A0  
                            l2593 0095                              l2585 005B                              l2577 002A  
                            l1875 0FF6                              l1867 0FDE                              l1859 0FC5  
                            l1787 06CC                              l1779 06A9                              l1795 06EA  
                            l1971 0F06                              l2595 00A9                              l2587 0060  
                            l2579 0041                              l1981 0CD0                              l1877 0FFB  
                            l1869 0FE4                              l1789 06DA                              l1973 0F16  
                            l2597 00BD                              l2589 006B                              l1983 0CD3  
                            l1799 0622                              l1975 0F1C                              l1967 0EF6  
                            l1991 076F                              l2599 00D1                              l1985 0CDA  
                            l1977 0CC9                              l1969 0EFC                              l1993 077C  
                            l1979 0CCA                              l1995 078C                              l1987 075A  
                            l1997 079A                              l1989 0763                              l1999 07A8  
                            ?_isr 0070                              STR_1 0830                              STR_2 0810  
                            STR_3 081C                              STR_4 0821                              u1100 0E4D  
                            u1101 0E4C                              u1110 0E54                              u1111 0E53  
                            u1120 0E5B                              u1200 06B1                              u2000 02B3  
                            u1121 0E5A                              u1201 06B0                              u2001 02B2  
                            u1130 0E62                              u2010 02C1                              u1131 0E61  
                            u2011 02C0                              u1140 0E69                              u1220 06CC  
                            u2020 02C7                              u1141 0E68                              u1221 06CB  
                            u2021 02C6                              u1150 0E70                              u1310 0668  
                            u2030 02E8                              u1151 0E6F                              u1311 0667  
                            u1215 06B3                              u2031 02E7                              u1160 0C87  
                            u1080 0E3F                              u1400 0FDE                              u1240 06EA  
                            u2040 02F3                              u1161 0C86                              u1081 0E3E  
                            u1305 0658                              u1401 0FDD                              u1241 06E9  
                            u1225 06C8                              u2041 02F2                              u1170 0C8D  
                            u1090 0E46                              u1330 067C                              u1250 0629  
                            u2050 0303                              u1171 0C8C                              u1091 0E45  
                            u1331 067B                              u1315 0664                              u1251 0628  
                            u1235 06DC                              u2051 0302                              u2035 02E4  
                            u1340 0681                              u1260 0634                              u1420 0FF1  
                            u1180 069D                              u2060 0318                              u1341 0680  
                            u1325 0670                              u1261 0633                              u1421 0FF0  
                            u1405 0FDA                              u1181 069C                              u2061 0317  
                            u1270 0645                              u1430 0FF6                              u1350 0FAC  
                            u2070 0324                              u2150 0226                              u1271 0644  
                            u1431 0FF5                              u1415 0FE5                              u1351 0FAB  
                            u2207 0F12                              u2071 0323                              u2055 02FF  
                            u2151 0225                              u1360 0FB7                              u2080 036B  
                            u1361 0FB6                              u2217 0F22                              u2081 036A  
                            u2065 0314                              u1290 0657                              u1370 0FC2  
                            u2090 037B                              u2227 0CD7                              u1291 0656  
                            u1371 0FC1                              u1195 06A2                              u2091 037A  
                            u1700 07A8                              u2237 0CF1                              u1285 0649  
                            u1701 07A7                              u1390 0FD4                              u1710 07B6  
                            u1391 0FD3                              u1711 07B5                              u2167 0105  
                            u1720 0E15                              u1800 0ECC                              u1385 0FC6  
                            u1801 0ECB                              u2177 0137                              u1650 0763  
                            u1651 0762                              u2187 021A                              u1660 076F  
                            u1820 0EDD                              u1900 0EAB                              u1740 0CA5  
                            u1725 0E10                              u2197 0F02                              u1661 076E  
                            u1821 0EDC                              u1901 0EAA                              u1741 0CA4  
                            u1670 077C                              u1750 0CAB                              u1735 0DF3  
                            u1671 077B                              u1815 0ECD                              u1751 0CAA  
                            u1760 0CB7                              u1920 0D21                              u1680 078C  
                            u1840 0EF1                              u1761 0CB6                              u1921 0D20  
                            u1681 078B                              u1841 0EF0                              u1825 0ED9  
                            u1770 0CC4                              u1930 0D31                              u1690 079A  
                            u1850 0E7C                              u1771 0CC3                              u1931 0D30  
                            u1691 0799                              u1835 0EE5                              u1851 0E7B  
                            u1940 0D5F                              u1780 0EBA                              u1941 0D5E  
                            u1781 0EB9                              u1950 0D83                              u1870 0E8E  
                            u1951 0D82                              u1871 0E8D                              u1880 0E98  
                            u1881 0E97                              u1865 0E80                              u1970 0239  
                            u1795 0EBE                              u1971 0238                              _PEIE 005E  
                            u1980 0250                              u1965 0D00                              u1885 0E94  
                            u1981 024F                              u1990 0282                              u1895 0E9F  
                            u1991 0281                              _RBIF 0058                     settingRTC@day 0042  
                   settingRTC@min 0040                     settingRTC@sec 0047                     settingRTC@mon 0043  
               ?_Lcd_Write_String 0070  __end_of_I2C_Master_RepeatedStart 0C4E                              _main 002A  
                            _mode 0057                              btemp 007E                  ??_Decimal_to_BCD 0038  
                            start 0012                ??_Lcd_Write_String 0033                   __end_of_Lcd_Cmd 0CFA  
               ___bmul@multiplier 0032                   ?_BCD_to_Decimal 0070                             ??_isr 002A  
                ?_I2C_Master_Init 003E                  ?_I2C_Master_Read 0030                  ?_I2C_Master_Wait 0070  
                ?_I2C_Master_Stop 0070                     configOsc@frec 0030                             ?_main 0070  
                  i1___awdiv@sign 0075                   __end_of___awdiv 068B                   __end_of___awmod 1000  
                           _ANSEL 0188                   __end_of___lldiv 06F3                   ___awdiv@divisor 0030  
                 __end_of___lwdiv 0EF6                             i1l120 0C80                             i1l123 0C3B  
                           i1l132 0C69                             i1l117 0C74                             i1l129 0C44  
                           i1l236 0411                             i1l245 04A0                             i1l270 0621  
                           i1l255 04AB                   __end_of___lwmod 0EB0                             i1l276 0DC4  
                           i1l570 0FA4                             i1l557 0759                   ___awdiv@counter 0034  
                           _PORTA 0005                             _PORTB 0006                             _PORTC 0007  
                           _PORTD 0008                    settingRTC@hour 0041                             _TRISA 0085  
                           _TRISB 0086                             _TRISC 0087                             _TRISD 0088  
                           _SSPIE 0463                             _SSPIF 0063                    settingRTC@year 0044  
                           _s1ADC 0059                    i1___awmod@sign 0075                   __end_of_dpowers 0810  
                 __end_of_isdigit 0CAF                             _hours 0054                             _setup 07BE  
                           pclath 000A                             status 0003                             wtemp0 007E  
                 __end_of_sprintf 0380                  __end_of_Lcd_Init 0F4C                  __end_of_Lcd_Port 0E74  
                 __initialization 0015                      __end_of_main 022D                            ??_main 00B0  
               ?_I2C_Master_Start 0070                 ?_I2C_Master_Write 003E                ??_I2C_Master_Start 0030  
              ??_I2C_Master_Write 0040                  ___awdiv@dividend 0032                            ?_setup 0070  
                          _ANSELH 0189                            i1l2113 0C33                            i1l2121 0C60  
                          i1l2115 0C38                            i1l2123 0C65                            i1l2125 0D93  
                          i1l2117 0C3C                            i1l2127 0DB7                            i1l2119 0C41  
                          i1l2129 0DC3                            i1l2401 0472                            i1l2405 0484  
                          i1l2351 05B3                            i1l2407 04A6                            i1l2361 061C  
                          i1l2353 05C8                            i1l2345 056F                            i1l2409 04AA  
                          i1l2355 05DD                            i1l2347 0589                            i1l1901 070E  
                          i1l2357 05F2                            i1l2349 059E                            i1l2381 03D1  
                          i1l2373 0389                            i1l1911 0726                            i1l1903 0714  
                          i1l2359 0607                            i1l2391 0418                            i1l2383 03E3  
                          i1l2375 039B                            i1l2367 0380                            u210_20 0384  
                          i1l1913 0737                            i1l1905 0717                            i1l1921 074B  
                          i1l2393 042A                            i1l2377 03AD                            i1l2369 0384  
                          u210_21 0383                            i1l1923 0750                            i1l1915 073D  
                          i1l1907 071E                            i1l1931 0F4D                            i1l2395 043C  
                          i1l2379 03BF                            i1l2387 03F5                            i1l1925 0755  
                          i1l1917 073E                            i1l1909 0722                            i1l1941 0F61  
                          i1l1933 0F51                            i1l2397 044E                            i1l2733 03FD  
                          i1l1919 0745                            i1l1951 0F79                            i1l1943 0F67  
                          i1l1935 0F56                            i1l2735 048C                            i1l2399 0460  
                          u211_20 0388                            i1l1961 0F9B                            i1l1953 0F83  
                          i1l1945 0F6A                            i1l1937 0F58                            i1l1929 0F4C  
                          i1l1881 0C74                            u211_21 0387                            i1l1891 06FD  
                          i1l1963 0FA0                            i1l1955 0F89                            i1l1947 0F71  
                          i1l1939 0F5C                            i1l1883 0C7A                            i1l1893 06FF  
                          i1l1885 06F3                            i1l1957 0F90                            i1l1949 0F75  
                          i1l1895 0703                            i1l1887 06F4                            i1l1959 0F96  
                          u212_20 0417                            i1l1897 0708                            i1l1889 06F8  
                          u212_21 0416                            i1l1899 070C                            u213_20 04A6  
                          u213_21 04A5                            u150_20 0726                            u150_21 0725  
                          u151_25 0727                            u152_20 0737                            u160_20 0F79  
                          u144_20 0C7A                            u152_21 0736                            u160_21 0F78  
                          u144_21 0C79                            u152_25 0733                            u161_20 0F83  
                          u145_20 0C80                            u161_21 0F82                            u145_21 0C7F  
                          u153_25 073F                            u161_25 0F7F                            u154_20 074B  
                          u146_20 06F8                            u154_21 074A                            u146_21 06F7  
                          u162_25 0F8A                            u155_20 0750                            u147_20 0703  
                          u163_20 0F96                            u155_21 074F                            u147_21 0702  
                          u163_21 0F95                            u148_20 0714                            u164_20 0F9B  
                          u156_20 0F51                            u148_21 0713                            u164_21 0F9A  
                          u156_21 0F50                            u157_20 0F5C                            u157_21 0F5B  
                          u149_25 0718                            u158_20 0F67                            u158_21 0F66  
                          u159_25 0F6B                            u191_25 0DBA                         ??_Lcd_Cmd 0031  
                          _SSPADD 0093                            _TRISC3 043B                            _TRISC4 043C  
                          _SSPCON 0014                            _SSPBUF 0013                   i1settingRTC@day 0024  
                 i1settingRTC@min 0022                   i1settingRTC@sec 0029                   i1settingRTC@mon 0025  
        _I2C_Master_RepeatedStart 0C45                            ___bmul 0CAF                         ??___awdiv 0034  
                       ??___awmod 0034                         ??___lldiv 0038                         ??___lwdiv 0034  
                       ??___lwmod 003B          __end_ofi1_Decimal_to_BCD 0DC5                  ___awdiv@quotient 0036  
                 ___awmod@divisor 0030                   ___awmod@counter 0034                 __end_ofi1___awdiv 075A  
               __end_ofi1___awmod 0FA5                         ??_isdigit 0030                            saved_w 007E  
                       ??_sprintf 0043                   Lcd_Set_Cursor@a 0035                   Lcd_Set_Cursor@b 0034  
         __end_of__initialization 0026       BCD_to_Decimal@decimal_value 0036                      i1_settingRTC 056C  
               __end_of_Lcd_Clear 0C9B               ___bmul@multiplicand 0030                    __pcstackCOMMON 0070  
                   __end_of_setup 07FB                    _Lcd_Set_Cursor 0D19                    _OPTION_REGbits 0081  
     Decimal_to_BCD@decimal_value 003D                         ?_Lcd_Init 0070                         ?_Lcd_Port 0070  
                         ??_setup 0046                        __pbssBANK0 004D                        __pbssBANK1 00A0  
                ??_BCD_to_Decimal 0033               i1I2C_Master_Write@d 0020                        __pmaintext 002A  
                         ?___bmul 0030                        __pintentry 0004            __end_of_Lcd_Set_Cursor 0D3B  
         BCD_to_Decimal@bcd_value 0037                i1___awdiv@dividend 0072                        ??_Lcd_Init 0034  
                      ??_Lcd_Port 0030                           _SSPCON2 0091                           _SSPSTAT 0094  
                      __stringtab 0800                    _Lcd_Write_Char 0CC6                           _Lcd_Cmd 0CDE  
                i1settingRTC@hour 0023                  i1settingRTC@year 0026                i1___awdiv@quotient 0076  
               __end_of_configOsc 07BE                           ___awdiv 0622                           ___awmod 0FA5  
                         ___lldiv 068B                           ___lwdiv 0EB0                           ___lwmod 0E74  
                         _dateRTC 004D                   ?_Lcd_Set_Cursor 0034                           __ptext1 022D  
                         __ptext2 0C9B                           __ptext3 0E74                           __ptext4 0EB0  
                         __ptext5 07BE                           __ptext6 075A                           __ptext7 0EF6  
                         __ptext8 0DFE                           __ptext9 068B                 i1_I2C_Master_Wait 0C74  
               i1_I2C_Master_Stop 0C3C                           _lineLCD 00A0                           _counter 0058  
                         _dpowers 0806                           _isdigit 0C9B                ?i1_I2C_Master_Wait 0070  
                ___awmod@dividend 0032                ?i1_I2C_Master_Stop 0070                           _minutes 0055  
                         _seconds 0056                           _timeRTC 0051          Decimal_to_BCD@ones_digit 003B  
                         _sprintf 022D                           clrloop0 0C2C            __end_of_Lcd_Write_Char 0CDE  
            end_of_initialization 0026               ??i1_I2C_Master_Wait 0070               ??i1_I2C_Master_Stop 0070  
      ??_I2C_Master_RepeatedStart 0030          Decimal_to_BCD@tens_digit 003A                   ___lldiv@divisor 0030  
                 ___lldiv@counter 003D                  I2C_Master_Init@c 003E                  I2C_Master_Read@a 0030  
                       Lcd_Port@a 0030         __end_ofi1_I2C_Master_Wait 0C81         __end_ofi1_I2C_Master_Stop 0C45  
               ?i1_Decimal_to_BCD 0070        i1Decimal_to_BCD@ones_digit 007B                        _settingRTC 04B6  
              ??i1_Decimal_to_BCD 0078                         _TRISCbits 0087                         i1___awdiv 06F3  
                       i1___awmod 0F4C        i1Decimal_to_BCD@tens_digit 007A                   ?_Lcd_Write_Char 0070  
               Lcd_Write_String@a 0036                 Lcd_Write_String@i 0034                         _Lcd_Clear 0C8E  
                  __end_of___bmul 0CC6                  _Lcd_Write_String 0D3B        __end_ofi1_I2C_Master_Start 0C3C  
      __end_ofi1_I2C_Master_Write 0C6A               start_initialization 0015                       __end_of_isr 04B6  
                      ?i1___awdiv 0070                        ?i1___awmod 0070                 ??_I2C_Master_Init 0042  
               ??_I2C_Master_Read 0032                 ??_I2C_Master_Wait 0030                 ??_I2C_Master_Stop 0030  
                      ?_Lcd_Clear 0070                          ??___bmul 0031                i1___awmod@dividend 0072  
                 Lcd_Write_Char@a 0032                       ?_settingRTC 0040                         ___latbits 0002  
                   __pcstackBANK0 0020                     __pcstackBANK1 00B0           Decimal_to_BCD@bcd_value 003C  
                        ?_Lcd_Cmd 0070                       sprintf@flag 0047                       sprintf@prec 004B  
       i1Decimal_to_BCD@bcd_value 007C                  _I2C_Master_Start 0C4E                  _I2C_Master_Write 0C6A  
                ___lwdiv@dividend 0032                  ??_Lcd_Set_Cursor 0035                          ?___awdiv 0030  
                        ?___awmod 0030                          ?___lldiv 0030                          ?___lwdiv 0030  
                        ?___lwmod 0037                 i1___awdiv@divisor 0070                    _Decimal_to_BCD 0DC5  
                       _configOsc 075A                 i1___awdiv@counter 0074                         __pstrings 0800  
   i1Decimal_to_BCD@decimal_value 007D                          ?_isdigit 0070                       ??i1___awdiv 0074  
                     ??i1___awmod 0074                  ___lwdiv@quotient 0034                          ?_sprintf 003C  
               interrupt_function 0004                          _IOCBbits 0096                         clear_ram0 0C2B  
                        Lcd_Cmd@a 0033                       ??_Lcd_Clear 0034            __end_of_Decimal_to_BCD 0DFE  
                      ?_configOsc 0030                       __stringbase 0805                          _WPUBbits 0095  
                ??_Lcd_Write_Char 0031                          _Lcd_Init 0EF6                          _Lcd_Port 0E38  
             I2C_Master_Read@temp 0034          __end_of_Lcd_Write_String 0D60                     ?i1_settingRTC 0022  
                 ?_Decimal_to_BCD 0070                 i1___awmod@divisor 0070                 i1___awmod@counter 0074  
       ?_I2C_Master_RepeatedStart 0070                __end_of__stringtab 0806                       _isdigit$878 0030  
                      sprintf@val 0048                   _I2C_Master_Init 0DFE                   _I2C_Master_Read 0D60  
                 _I2C_Master_Wait 0C81                   _I2C_Master_Stop 0C57                   ___lwdiv@divisor 0030  
                 ___lwdiv@counter 0036                          __ptext10 04B6                          __ptext11 0C6A  
                        __ptext20 0C8E                          __ptext12 0C57                          __ptext21 0CDE  
                        __ptext13 0C4E                          __ptext30 0C60                          __ptext22 0E38  
                        __ptext14 0DC5                          __ptext31 0C3C                          __ptext23 0C45  
                        __ptext15 0FA5                          __ptext32 0C33                          __ptext24 0D60  
                        __ptext16 0622                          __ptext33 0C74                          __ptext25 0C81  
                        __ptext17 0D3B                          __ptext34 0D92                          __ptext26 0CFA  
                        __ptext18 0CC6                          __ptext35 0F4C                          __ptext27 0CAF  
                        __ptext19 0D19                          __ptext36 06F3                          __ptext28 0380  
                        __ptext29 056C                i1_I2C_Master_Start 0C33                i1_I2C_Master_Write 0C60  
                  ??i1_settingRTC 0027               ?i1_I2C_Master_Start 0070               ?i1_I2C_Master_Write 0020  
        BCD_to_Decimal@ones_digit 0035                       ??_configOsc 0032                      ??_settingRTC 0045  
            ??i1_I2C_Master_Start 0070              ??i1_I2C_Master_Write 007E          __end_of_I2C_Master_Start 0C57  
        __end_of_I2C_Master_Write 0C74                        _INTCONbits 000B          BCD_to_Decimal@tens_digit 0034  
                        isdigit@c 0031                          intlevel1 0000                         sprintf@ap 0046  
                       sprintf@sp 004A                  ___lwmod@dividend 0039                  ___lldiv@dividend 0034  
              __end_of_settingRTC 056C                         stringcode 0800                        _OSCCONbits 008F  
         __end_of_I2C_Master_Init 0E38           __end_of_I2C_Master_Read 0D92           __end_of_I2C_Master_Wait 0C8E  
                  _BCD_to_Decimal 0CFA           __end_of_I2C_Master_Stop 0C60                Lcd_Set_Cursor@temp 0036  
                        sprintf@c 004C                          sprintf@f 003C                  ___lldiv@quotient 0039  
               I2C_Master_Write@d 003E                   ___lwmod@divisor 0037                   ___lwmod@counter 003B  
                        stringdir 0800                          stringtab 0800                       _SSPCON2bits 0091  
                i1_Decimal_to_BCD 0D92  
