

Microchip MPLAB XC8 Assembler V2.41 build 20230208172133 
                                                                                               Wed Aug 09 19:30:09 2023

Microchip MPLAB XC8 C Compiler v2.41 (Free license) build 20230208172133 Og1 
     1                           	processor	16F887
     2                           	pagewidth 120
     3                           	opt	flic
     4                           	psect	strings,global,class=STRING,delta=2,noexec
     5                           	psect	cinit,global,class=CODE,merge=1,delta=2
     6                           	psect	bssCOMMON,global,class=COMMON,space=1,delta=1,noexec
     7                           	psect	bssBANK0,global,class=BANK0,space=1,delta=1,noexec
     8                           	psect	clrtext,global,class=CODE,delta=2
     9                           	psect	cstackCOMMON,global,class=COMMON,space=1,delta=1,noexec
    10                           	psect	cstackBANK0,global,class=BANK0,space=1,delta=1,noexec
    11                           	psect	maintext,global,class=CODE,split=1,delta=2
    12                           	psect	text1,local,class=CODE,merge=1,delta=2,group=1
    13                           	psect	text2,local,class=CODE,merge=1,delta=2,group=3
    14                           	psect	text3,local,class=CODE,merge=1,delta=2,group=2
    15                           	psect	text4,local,class=CODE,merge=1,delta=2,group=2
    16                           	psect	text5,local,class=CODE,merge=1,delta=2
    17                           	psect	text6,local,class=CODE,merge=1,delta=2
    18                           	psect	text7,local,class=CODE,merge=1,delta=2
    19                           	psect	text8,local,class=CODE,merge=1,delta=2
    20                           	psect	text9,local,class=CODE,merge=1,delta=2,group=2
    21                           	psect	text10,local,class=CODE,merge=1,delta=2
    22                           	psect	text11,local,class=CODE,merge=1,delta=2
    23                           	psect	text12,local,class=CODE,merge=1,delta=2
    24                           	psect	text13,local,class=CODE,merge=1,delta=2
    25                           	psect	text14,local,class=CODE,merge=1,delta=2
    26                           	psect	text15,local,class=CODE,merge=1,delta=2,group=2
    27                           	psect	text16,local,class=CODE,merge=1,delta=2,group=2
    28                           	psect	text17,local,class=CODE,merge=1,delta=2
    29                           	psect	text18,local,class=CODE,merge=1,delta=2
    30                           	psect	text19,local,class=CODE,merge=1,delta=2
    31                           	psect	text20,local,class=CODE,merge=1,delta=2
    32                           	psect	text21,local,class=CODE,merge=1,delta=2
    33                           	psect	text22,local,class=CODE,merge=1,delta=2
    34                           	psect	text23,local,class=CODE,merge=1,delta=2
    35                           	psect	text24,local,class=CODE,merge=1,delta=2
    36                           	psect	text25,local,class=CODE,merge=1,delta=2
    37                           	psect	text26,local,class=CODE,merge=1,delta=2
    38                           	psect	text27,local,class=CODE,merge=1,delta=2,group=2
    39                           	psect	text28,local,class=CODE,merge=1,delta=2
    40                           	psect	intentry,global,class=CODE,delta=2
    41                           	psect	idloc,global,abs,ovrld,class=IDLOC,space=5,delta=2,noexec
    42                           	psect	config,global,abs,ovrld,class=CONFIG,space=4,delta=2,noexec
    43                           	dabs	1,0x7E,2
    44     0000                     
    45                           ; Version 2.40
    46                           ; Generated 17/11/2021 GMT
    47                           ; 
    48                           ; Copyright © 2021, Microchip Technology Inc. and its subsidiaries ("Microchip")
    49                           ; All rights reserved.
    50                           ; 
    51                           ; This software is developed by Microchip Technology Inc. and its subsidiaries ("Microch
      +                          ip").
    52                           ; 
    53                           ; Redistribution and use in source and binary forms, with or without modification, are
    54                           ; permitted provided that the following conditions are met:
    55                           ; 
    56                           ;     1. Redistributions of source code must retain the above copyright notice, this lis
      +                          t of
    57                           ;        conditions and the following disclaimer.
    58                           ; 
    59                           ;     2. Redistributions in binary form must reproduce the above copyright notice, this 
      +                          list
    60                           ;        of conditions and the following disclaimer in the documentation and/or other
    61                           ;        materials provided with the distribution. Publication is not required when
    62                           ;        this file is used in an embedded application.
    63                           ; 
    64                           ;     3. Microchip's name may not be used to endorse or promote products derived from th
      +                          is
    65                           ;        software without specific prior written permission.
    66                           ; 
    67                           ; THIS SOFTWARE IS PROVIDED BY MICROCHIP "AS IS" AND ANY EXPRESS OR IMPLIED WARRANTIES,
    68                           ; INCLUDING, BUT NOT LIMITED TO, THE IMPLIED WARRANTIES OF MERCHANTABILITY AND FITNESS F
      +                          OR
    69                           ; PURPOSE ARE DISCLAIMED.  IN NO EVENT SHALL MICROCHIP BE LIABLE FOR ANY DIRECT, INDIREC
      +                          T,
    70                           ; INCIDENTAL, SPECIAL, EXEMPLARY, OR CONSEQUENTIAL DAMAGES (INCLUDING BUT NOT LIMITED TO
    71                           ; PROCUREMENT OF SUBSTITUTE GOODS OR SERVICES; LOSS OF USE, DATA OR PROFITS; OR BUSINESS
    72                           ; INTERRUPTION) HOWSOEVER CAUSED AND ON ANY THEORY OF LIABILITY, WHETHER IN CONTRACT, ST
      +                          RICT
    73                           ; LIABILITY, OR TORT (INCLUDING NEGLIGENCE OR OTHERWISE) ARISING IN ANY WAY OUT OF THE U
      +                          SE OF
    74                           ; THIS SOFTWARE, EVEN IF ADVISED OF THE POSSIBILITY OF SUCH DAMAGE.
    75                           ; 
    76                           ; 
    77                           ; Code-generator required, PIC16F887 Definitions
    78                           ; 
    79                           ; SFR Addresses
    80     0000                     	;# 
    81     0001                     	;# 
    82     0002                     	;# 
    83     0003                     	;# 
    84     0004                     	;# 
    85     0005                     	;# 
    86     0006                     	;# 
    87     0007                     	;# 
    88     0008                     	;# 
    89     0009                     	;# 
    90     000A                     	;# 
    91     000B                     	;# 
    92     000C                     	;# 
    93     000D                     	;# 
    94     000E                     	;# 
    95     000E                     	;# 
    96     000F                     	;# 
    97     0010                     	;# 
    98     0011                     	;# 
    99     0012                     	;# 
   100     0013                     	;# 
   101     0014                     	;# 
   102     0015                     	;# 
   103     0015                     	;# 
   104     0016                     	;# 
   105     0017                     	;# 
   106     0018                     	;# 
   107     0019                     	;# 
   108     001A                     	;# 
   109     001B                     	;# 
   110     001B                     	;# 
   111     001C                     	;# 
   112     001D                     	;# 
   113     001E                     	;# 
   114     001F                     	;# 
   115     0081                     	;# 
   116     0085                     	;# 
   117     0086                     	;# 
   118     0087                     	;# 
   119     0088                     	;# 
   120     0089                     	;# 
   121     008C                     	;# 
   122     008D                     	;# 
   123     008E                     	;# 
   124     008F                     	;# 
   125     0090                     	;# 
   126     0091                     	;# 
   127     0092                     	;# 
   128     0093                     	;# 
   129     0093                     	;# 
   130     0093                     	;# 
   131     0094                     	;# 
   132     0095                     	;# 
   133     0096                     	;# 
   134     0097                     	;# 
   135     0098                     	;# 
   136     0099                     	;# 
   137     009A                     	;# 
   138     009B                     	;# 
   139     009C                     	;# 
   140     009D                     	;# 
   141     009E                     	;# 
   142     009F                     	;# 
   143     0105                     	;# 
   144     0107                     	;# 
   145     0108                     	;# 
   146     0109                     	;# 
   147     010C                     	;# 
   148     010C                     	;# 
   149     010D                     	;# 
   150     010E                     	;# 
   151     010F                     	;# 
   152     0185                     	;# 
   153     0187                     	;# 
   154     0188                     	;# 
   155     0189                     	;# 
   156     018C                     	;# 
   157     018D                     	;# 
   158     0000                     	;# 
   159     0001                     	;# 
   160     0002                     	;# 
   161     0003                     	;# 
   162     0004                     	;# 
   163     0005                     	;# 
   164     0006                     	;# 
   165     0007                     	;# 
   166     0008                     	;# 
   167     0009                     	;# 
   168     000A                     	;# 
   169     000B                     	;# 
   170     000C                     	;# 
   171     000D                     	;# 
   172     000E                     	;# 
   173     000E                     	;# 
   174     000F                     	;# 
   175     0010                     	;# 
   176     0011                     	;# 
   177     0012                     	;# 
   178     0013                     	;# 
   179     0014                     	;# 
   180     0015                     	;# 
   181     0015                     	;# 
   182     0016                     	;# 
   183     0017                     	;# 
   184     0018                     	;# 
   185     0019                     	;# 
   186     001A                     	;# 
   187     001B                     	;# 
   188     001B                     	;# 
   189     001C                     	;# 
   190     001D                     	;# 
   191     001E                     	;# 
   192     001F                     	;# 
   193     0081                     	;# 
   194     0085                     	;# 
   195     0086                     	;# 
   196     0087                     	;# 
   197     0088                     	;# 
   198     0089                     	;# 
   199     008C                     	;# 
   200     008D                     	;# 
   201     008E                     	;# 
   202     008F                     	;# 
   203     0090                     	;# 
   204     0091                     	;# 
   205     0092                     	;# 
   206     0093                     	;# 
   207     0093                     	;# 
   208     0093                     	;# 
   209     0094                     	;# 
   210     0095                     	;# 
   211     0096                     	;# 
   212     0097                     	;# 
   213     0098                     	;# 
   214     0099                     	;# 
   215     009A                     	;# 
   216     009B                     	;# 
   217     009C                     	;# 
   218     009D                     	;# 
   219     009E                     	;# 
   220     009F                     	;# 
   221     0105                     	;# 
   222     0107                     	;# 
   223     0108                     	;# 
   224     0109                     	;# 
   225     010C                     	;# 
   226     010C                     	;# 
   227     010D                     	;# 
   228     010E                     	;# 
   229     010F                     	;# 
   230     0185                     	;# 
   231     0187                     	;# 
   232     0188                     	;# 
   233     0189                     	;# 
   234     018C                     	;# 
   235     018D                     	;# 
   236     0000                     	;# 
   237     0001                     	;# 
   238     0002                     	;# 
   239     0003                     	;# 
   240     0004                     	;# 
   241     0005                     	;# 
   242     0006                     	;# 
   243     0007                     	;# 
   244     0008                     	;# 
   245     0009                     	;# 
   246     000A                     	;# 
   247     000B                     	;# 
   248     000C                     	;# 
   249     000D                     	;# 
   250     000E                     	;# 
   251     000E                     	;# 
   252     000F                     	;# 
   253     0010                     	;# 
   254     0011                     	;# 
   255     0012                     	;# 
   256     0013                     	;# 
   257     0014                     	;# 
   258     0015                     	;# 
   259     0015                     	;# 
   260     0016                     	;# 
   261     0017                     	;# 
   262     0018                     	;# 
   263     0019                     	;# 
   264     001A                     	;# 
   265     001B                     	;# 
   266     001B                     	;# 
   267     001C                     	;# 
   268     001D                     	;# 
   269     001E                     	;# 
   270     001F                     	;# 
   271     0081                     	;# 
   272     0085                     	;# 
   273     0086                     	;# 
   274     0087                     	;# 
   275     0088                     	;# 
   276     0089                     	;# 
   277     008C                     	;# 
   278     008D                     	;# 
   279     008E                     	;# 
   280     008F                     	;# 
   281     0090                     	;# 
   282     0091                     	;# 
   283     0092                     	;# 
   284     0093                     	;# 
   285     0093                     	;# 
   286     0093                     	;# 
   287     0094                     	;# 
   288     0095                     	;# 
   289     0096                     	;# 
   290     0097                     	;# 
   291     0098                     	;# 
   292     0099                     	;# 
   293     009A                     	;# 
   294     009B                     	;# 
   295     009C                     	;# 
   296     009D                     	;# 
   297     009E                     	;# 
   298     009F                     	;# 
   299     0105                     	;# 
   300     0107                     	;# 
   301     0108                     	;# 
   302     0109                     	;# 
   303     010C                     	;# 
   304     010C                     	;# 
   305     010D                     	;# 
   306     010E                     	;# 
   307     010F                     	;# 
   308     0185                     	;# 
   309     0187                     	;# 
   310     0188                     	;# 
   311     0189                     	;# 
   312     018C                     	;# 
   313     018D                     	;# 
   314     0000                     	;# 
   315     0001                     	;# 
   316     0002                     	;# 
   317     0003                     	;# 
   318     0004                     	;# 
   319     0005                     	;# 
   320     0006                     	;# 
   321     0007                     	;# 
   322     0008                     	;# 
   323     0009                     	;# 
   324     000A                     	;# 
   325     000B                     	;# 
   326     000C                     	;# 
   327     000D                     	;# 
   328     000E                     	;# 
   329     000E                     	;# 
   330     000F                     	;# 
   331     0010                     	;# 
   332     0011                     	;# 
   333     0012                     	;# 
   334     0013                     	;# 
   335     0014                     	;# 
   336     0015                     	;# 
   337     0015                     	;# 
   338     0016                     	;# 
   339     0017                     	;# 
   340     0018                     	;# 
   341     0019                     	;# 
   342     001A                     	;# 
   343     001B                     	;# 
   344     001B                     	;# 
   345     001C                     	;# 
   346     001D                     	;# 
   347     001E                     	;# 
   348     001F                     	;# 
   349     0081                     	;# 
   350     0085                     	;# 
   351     0086                     	;# 
   352     0087                     	;# 
   353     0088                     	;# 
   354     0089                     	;# 
   355     008C                     	;# 
   356     008D                     	;# 
   357     008E                     	;# 
   358     008F                     	;# 
   359     0090                     	;# 
   360     0091                     	;# 
   361     0092                     	;# 
   362     0093                     	;# 
   363     0093                     	;# 
   364     0093                     	;# 
   365     0094                     	;# 
   366     0095                     	;# 
   367     0096                     	;# 
   368     0097                     	;# 
   369     0098                     	;# 
   370     0099                     	;# 
   371     009A                     	;# 
   372     009B                     	;# 
   373     009C                     	;# 
   374     009D                     	;# 
   375     009E                     	;# 
   376     009F                     	;# 
   377     0105                     	;# 
   378     0107                     	;# 
   379     0108                     	;# 
   380     0109                     	;# 
   381     010C                     	;# 
   382     010C                     	;# 
   383     010D                     	;# 
   384     010E                     	;# 
   385     010F                     	;# 
   386     0185                     	;# 
   387     0187                     	;# 
   388     0188                     	;# 
   389     0189                     	;# 
   390     018C                     	;# 
   391     018D                     	;# 
   392     0000                     	;# 
   393     0001                     	;# 
   394     0002                     	;# 
   395     0003                     	;# 
   396     0004                     	;# 
   397     0005                     	;# 
   398     0006                     	;# 
   399     0007                     	;# 
   400     0008                     	;# 
   401     0009                     	;# 
   402     000A                     	;# 
   403     000B                     	;# 
   404     000C                     	;# 
   405     000D                     	;# 
   406     000E                     	;# 
   407     000E                     	;# 
   408     000F                     	;# 
   409     0010                     	;# 
   410     0011                     	;# 
   411     0012                     	;# 
   412     0013                     	;# 
   413     0014                     	;# 
   414     0015                     	;# 
   415     0015                     	;# 
   416     0016                     	;# 
   417     0017                     	;# 
   418     0018                     	;# 
   419     0019                     	;# 
   420     001A                     	;# 
   421     001B                     	;# 
   422     001B                     	;# 
   423     001C                     	;# 
   424     001D                     	;# 
   425     001E                     	;# 
   426     001F                     	;# 
   427     0081                     	;# 
   428     0085                     	;# 
   429     0086                     	;# 
   430     0087                     	;# 
   431     0088                     	;# 
   432     0089                     	;# 
   433     008C                     	;# 
   434     008D                     	;# 
   435     008E                     	;# 
   436     008F                     	;# 
   437     0090                     	;# 
   438     0091                     	;# 
   439     0092                     	;# 
   440     0093                     	;# 
   441     0093                     	;# 
   442     0093                     	;# 
   443     0094                     	;# 
   444     0095                     	;# 
   445     0096                     	;# 
   446     0097                     	;# 
   447     0098                     	;# 
   448     0099                     	;# 
   449     009A                     	;# 
   450     009B                     	;# 
   451     009C                     	;# 
   452     009D                     	;# 
   453     009E                     	;# 
   454     009F                     	;# 
   455     0105                     	;# 
   456     0107                     	;# 
   457     0108                     	;# 
   458     0109                     	;# 
   459     010C                     	;# 
   460     010C                     	;# 
   461     010D                     	;# 
   462     010E                     	;# 
   463     010F                     	;# 
   464     0185                     	;# 
   465     0187                     	;# 
   466     0188                     	;# 
   467     0189                     	;# 
   468     018C                     	;# 
   469     018D                     	;# 
   470                           
   471                           	psect	strings
   472     071C                     __pstrings:
   473     071C                     stringtab:
   474     071C                     __stringtab:
   475     071C                     stringcode:	
   476                           ;	String table - string pointers are 1 byte each
   477                           
   478     071C                     stringdir:
   479     071C  3007               	movlw	high stringdir
   480     071D  008A               	movwf	10
   481     071E  0804               	movf	4,w
   482     071F  0A84               	incf	4,f
   483     0720  0782               	addwf	2,f
   484     0721                     __stringbase:
   485     0721  3400               	retlw	0
   486     0722                     __end_of__stringtab:
   487     0722                     _dpowers:
   488     0722  3401               	retlw	1
   489     0723  3400               	retlw	0
   490     0724  340A               	retlw	10
   491     0725  3400               	retlw	0
   492     0726  3464               	retlw	100
   493     0727  3400               	retlw	0
   494     0728  34E8               	retlw	232
   495     0729  3403               	retlw	3
   496     072A  3410               	retlw	16
   497     072B  3427               	retlw	39
   498     072C                     __end_of_dpowers:
   499     0008                     _PORTD	set	8
   500     0007                     _PORTC	set	7
   501     0006                     _PORTB	set	6
   502     0005                     _PORTA	set	5
   503     000B                     _INTCONbits	set	11
   504     0013                     _SSPBUF	set	19
   505     0014                     _SSPCON	set	20
   506     0031                     _RB1	set	49
   507     0030                     _RB0	set	48
   508     0058                     _RBIF	set	88
   509     0063                     _SSPIF	set	99
   510     005E                     _PEIE	set	94
   511     005F                     _GIE	set	95
   512     0039                     _RC1	set	57
   513     0038                     _RC0	set	56
   514     0047                     _RD7	set	71
   515     0046                     _RD6	set	70
   516     0045                     _RD5	set	69
   517     0044                     _RD4	set	68
   518     0043                     _RD3	set	67
   519     0042                     _RD2	set	66
   520     0041                     _RD1	set	65
   521     0040                     _RD0	set	64
   522     0095                     _WPUBbits	set	149
   523     0081                     _OPTION_REGbits	set	129
   524     0096                     _IOCBbits	set	150
   525     0088                     _TRISD	set	136
   526     0087                     _TRISC	set	135
   527     0086                     _TRISB	set	134
   528     0085                     _TRISA	set	133
   529     0091                     _SSPCON2bits	set	145
   530     0087                     _TRISCbits	set	135
   531     0094                     _SSPSTAT	set	148
   532     0093                     _SSPADD	set	147
   533     0091                     _SSPCON2	set	145
   534     008F                     _OSCCONbits	set	143
   535     0463                     _SSPIE	set	1123
   536     043C                     _TRISC4	set	1084
   537     043B                     _TRISC3	set	1083
   538     0189                     _ANSELH	set	393
   539     0188                     _ANSEL	set	392
   540     072C                     STR_2:
   541     072C  3425               	retlw	37	;'%'
   542     072D  342E               	retlw	46	;'.'
   543     072E  3432               	retlw	50	;'2'
   544     072F  3464               	retlw	100	;'d'
   545     0730  342F               	retlw	47	;'/'
   546     0731  3425               	retlw	37	;'%'
   547     0732  342E               	retlw	46	;'.'
   548     0733  3432               	retlw	50	;'2'
   549     0734  3464               	retlw	100	;'d'
   550     0735  342F               	retlw	47	;'/'
   551     0736  3432               	retlw	50	;'2'
   552     0737  3430               	retlw	48	;'0'
   553     0738  3425               	retlw	37	;'%'
   554     0739  342E               	retlw	46	;'.'
   555     073A  3432               	retlw	50	;'2'
   556     073B  3464               	retlw	100	;'d'
   557     073C  3400               	retlw	0
   558     073D                     STR_4:
   559     073D  3425               	retlw	37	;'%'
   560     073E  342E               	retlw	46	;'.'
   561     073F  3432               	retlw	50	;'2'
   562     0740  3464               	retlw	100	;'d'
   563     0741  343A               	retlw	58	;':'
   564     0742  3425               	retlw	37	;'%'
   565     0743  342E               	retlw	46	;'.'
   566     0744  3432               	retlw	50	;'2'
   567     0745  3464               	retlw	100	;'d'
   568     0746  343A               	retlw	58	;':'
   569     0747  3425               	retlw	37	;'%'
   570     0748  342E               	retlw	46	;'.'
   571     0749  3432               	retlw	50	;'2'
   572     074A  3464               	retlw	100	;'d'
   573     074B  3400               	retlw	0
   574     074C                     STR_1:
   575     074C  3453               	retlw	83	;'S'
   576     074D  3431               	retlw	49	;'1'
   577     074E  343A               	retlw	58	;':'
   578     074F  3400               	retlw	0
   579     0738                     
   580                           	psect	cinit
   581     0011                     start_initialization:	
   582                           ; #config settings
   583                           
   584     0011                     __initialization:
   585                           
   586                           ; Clear objects allocated to COMMON
   587     0011  01F8               	clrf	__pbssCOMMON& (0+127)
   588     0012  01F9               	clrf	(__pbssCOMMON+1)& (0+127)
   589     0013  01FA               	clrf	(__pbssCOMMON+2)& (0+127)
   590                           
   591                           ; Clear objects allocated to BANK0
   592     0014  1383               	bcf	3,7	;select IRP bank0
   593     0015  303E               	movlw	low __pbssBANK0
   594     0016  0084               	movwf	4
   595     0017  3058               	movlw	low (__pbssBANK0+26)
   596     0018  120A  158A  275E  120A  118A  	fcall	clear_ram0
   597     001D                     end_of_initialization:	
   598                           ;End of C runtime variable initialization code
   599                           
   600     001D                     __end_of__initialization:
   601     001D  0183               	clrf	3
   602     001E  120A  118A  2821   	ljmp	_main	;jump to C main() function
   603                           
   604                           	psect	bssCOMMON
   605     0078                     __pbssCOMMON:
   606     0078                     _minutes:
   607     0078                     	ds	1
   608     0079                     _seconds:
   609     0079                     	ds	1
   610     007A                     _a:
   611     007A                     	ds	1
   612                           
   613                           	psect	bssBANK0
   614     003E                     __pbssBANK0:
   615     003E                     _dateRTC:
   616     003E                     	ds	4
   617     0042                     _timeRTC:
   618     0042                     	ds	3
   619     0045                     _hours:
   620     0045                     	ds	1
   621     0046                     _counter:
   622     0046                     	ds	1
   623     0047                     _s1ADC:
   624     0047                     	ds	1
   625     0048                     _lineLCD:
   626     0048                     	ds	16
   627                           
   628                           	psect	clrtext
   629     0F5E                     clear_ram0:	
   630                           ;	Called with FSR containing the base address, and
   631                           ;	W with the last address+1
   632                           
   633     0F5E  0064               	clrwdt	;clear the watchdog before getting into this loop
   634     0F5F                     clrloop0:
   635     0F5F  0180               	clrf	0	;clear RAM location pointed to by FSR
   636     0F60  0A84               	incf	4,f	;increment pointer
   637     0F61  0604               	xorwf	4,w	;XOR with final address
   638     0F62  1903               	btfsc	3,2	;have we reached the end yet?
   639     0F63  3400               	retlw	0	;all done for this memory range, return
   640     0F64  0604               	xorwf	4,w	;XOR again to restore value
   641     0F65  2F5F               	goto	clrloop0	;do the next byte
   642                           
   643                           	psect	cstackCOMMON
   644     0070                     __pcstackCOMMON:
   645     0070                     ?_isdigit:
   646     0070                     ?_setup:	
   647                           ; 1 bit 
   648                           
   649     0070                     ?_BCD_to_Decimal:	
   650                           ; 1 bytes @ 0x0
   651                           
   652     0070                     ?_Decimal_to_BCD:	
   653                           ; 1 bytes @ 0x0
   654                           
   655     0070                     ?_Lcd_Port:	
   656                           ; 1 bytes @ 0x0
   657                           
   658     0070                     ?_Lcd_Cmd:	
   659                           ; 1 bytes @ 0x0
   660                           
   661     0070                     ?_Lcd_Clear:	
   662                           ; 1 bytes @ 0x0
   663                           
   664     0070                     ?_Lcd_Init:	
   665                           ; 1 bytes @ 0x0
   666                           
   667     0070                     ?_Lcd_Write_Char:	
   668                           ; 1 bytes @ 0x0
   669                           
   670     0070                     ?_Lcd_Write_String:	
   671                           ; 1 bytes @ 0x0
   672                           
   673     0070                     ?_I2C_Master_Wait:	
   674                           ; 1 bytes @ 0x0
   675                           
   676     0070                     ?_I2C_Master_Start:	
   677                           ; 1 bytes @ 0x0
   678                           
   679     0070                     ?_I2C_Master_RepeatedStart:	
   680                           ; 1 bytes @ 0x0
   681                           
   682     0070                     ?_I2C_Master_Stop:	
   683                           ; 1 bytes @ 0x0
   684                           
   685     0070                     ?_isr:	
   686                           ; 1 bytes @ 0x0
   687                           
   688     0070                     ??_isr:	
   689                           ; 1 bytes @ 0x0
   690                           
   691     0070                     ?_main:	
   692                           ; 1 bytes @ 0x0
   693                           
   694                           
   695                           ; 1 bytes @ 0x0
   696     0070                     	ds	3
   697     0073                     ??_isdigit:
   698     0073                     ??_Lcd_Port:	
   699                           ; 1 bytes @ 0x3
   700                           
   701     0073                     ?_configOsc:	
   702                           ; 1 bytes @ 0x3
   703                           
   704     0073                     ??_I2C_Master_Wait:	
   705                           ; 1 bytes @ 0x3
   706                           
   707     0073                     ??_I2C_Master_Start:	
   708                           ; 1 bytes @ 0x3
   709                           
   710     0073                     ??_I2C_Master_RepeatedStart:	
   711                           ; 1 bytes @ 0x3
   712                           
   713     0073                     ??_I2C_Master_Stop:	
   714                           ; 1 bytes @ 0x3
   715                           
   716     0073                     ?___bmul:	
   717                           ; 1 bytes @ 0x3
   718                           
   719     0073                     ??___lldiv:	
   720                           ; 1 bytes @ 0x3
   721                           
   722     0073                     ?_I2C_Master_Read:	
   723                           ; 1 bytes @ 0x3
   724                           
   725     0073                     ?___awdiv:	
   726                           ; 2 bytes @ 0x3
   727                           
   728     0073                     ?___awmod:	
   729                           ; 2 bytes @ 0x3
   730                           
   731     0073                     ?___lwdiv:	
   732                           ; 2 bytes @ 0x3
   733                           
   734     0073                     Lcd_Port@a:	
   735                           ; 2 bytes @ 0x3
   736                           
   737     0073                     ___bmul@multiplicand:	
   738                           ; 1 bytes @ 0x3
   739                           
   740     0073                     _isdigit$875:	
   741                           ; 1 bytes @ 0x3
   742                           
   743     0073                     configOsc@frec:	
   744                           ; 1 bytes @ 0x3
   745                           
   746     0073                     I2C_Master_Read@a:	
   747                           ; 2 bytes @ 0x3
   748                           
   749     0073                     ___awdiv@divisor:	
   750                           ; 2 bytes @ 0x3
   751                           
   752     0073                     ___awmod@divisor:	
   753                           ; 2 bytes @ 0x3
   754                           
   755     0073                     ___lwdiv@divisor:	
   756                           ; 2 bytes @ 0x3
   757                           
   758                           
   759                           ; 2 bytes @ 0x3
   760     0073                     	ds	1
   761     0074                     ??_Lcd_Cmd:
   762     0074                     ??_Lcd_Write_Char:	
   763                           ; 1 bytes @ 0x4
   764                           
   765     0074                     ??_I2C_Master_Init:	
   766                           ; 1 bytes @ 0x4
   767                           
   768     0074                     ??___bmul:	
   769                           ; 1 bytes @ 0x4
   770                           
   771     0074                     ___bmul@product:	
   772                           ; 1 bytes @ 0x4
   773                           
   774     0074                     isdigit@c:	
   775                           ; 1 bytes @ 0x4
   776                           
   777                           
   778                           ; 1 bytes @ 0x4
   779     0074                     	ds	1
   780     0075                     ??_configOsc:
   781     0075                     ??_I2C_Master_Read:	
   782                           ; 1 bytes @ 0x5
   783                           
   784     0075                     Lcd_Write_Char@a:	
   785                           ; 1 bytes @ 0x5
   786                           
   787     0075                     ___bmul@multiplier:	
   788                           ; 1 bytes @ 0x5
   789                           
   790     0075                     ___awdiv@dividend:	
   791                           ; 1 bytes @ 0x5
   792                           
   793     0075                     ___awmod@dividend:	
   794                           ; 2 bytes @ 0x5
   795                           
   796     0075                     ___lwdiv@dividend:	
   797                           ; 2 bytes @ 0x5
   798                           
   799                           
   800                           ; 2 bytes @ 0x5
   801     0075                     	ds	1
   802     0076                     ??_BCD_to_Decimal:
   803     0076                     ??_Lcd_Write_String:	
   804                           ; 1 bytes @ 0x6
   805                           
   806     0076                     Lcd_Cmd@a:	
   807                           ; 1 bytes @ 0x6
   808                           
   809                           
   810                           ; 1 bytes @ 0x6
   811     0076                     	ds	1
   812     0077                     ??_Lcd_Clear:
   813     0077                     ?_Lcd_Set_Cursor:	
   814                           ; 1 bytes @ 0x7
   815                           
   816     0077                     ??_I2C_Master_Write:	
   817                           ; 1 bytes @ 0x7
   818                           
   819     0077                     ??___awdiv:	
   820                           ; 1 bytes @ 0x7
   821                           
   822     0077                     ??___awmod:	
   823                           ; 1 bytes @ 0x7
   824                           
   825     0077                     ??___lwdiv:	
   826                           ; 1 bytes @ 0x7
   827                           
   828     0077                     ??___lwmod:	
   829                           ; 1 bytes @ 0x7
   830                           
   831     0077                     Lcd_Set_Cursor@b:	
   832                           ; 1 bytes @ 0x7
   833                           
   834     0077                     settingHourRTC@sec:	
   835                           ; 1 bytes @ 0x7
   836                           
   837     0077                     ___lwmod@counter:	
   838                           ; 1 bytes @ 0x7
   839                           
   840                           
   841                           ; 1 bytes @ 0x7
   842     0077                     	ds	1
   843     0078                     ??_setup:
   844     0078                     ??_Lcd_Set_Cursor:	
   845                           ; 1 bytes @ 0x8
   846                           
   847                           
   848                           	psect	cstackBANK0
   849     0020                     __pcstackBANK0:	
   850                           ; 1 bytes @ 0x8
   851                           
   852     0020                     ??_Lcd_Init:
   853     0020                     ?___lldiv:	
   854                           ; 1 bytes @ 0x0
   855                           
   856     0020                     Lcd_Set_Cursor@a:	
   857                           ; 4 bytes @ 0x0
   858                           
   859     0020                     BCD_to_Decimal@tens_digit:	
   860                           ; 1 bytes @ 0x0
   861                           
   862     0020                     ___awdiv@counter:	
   863                           ; 1 bytes @ 0x0
   864                           
   865     0020                     ___awmod@counter:	
   866                           ; 1 bytes @ 0x0
   867                           
   868     0020                     ___lwdiv@counter:	
   869                           ; 1 bytes @ 0x0
   870                           
   871     0020                     Lcd_Write_String@i:	
   872                           ; 1 bytes @ 0x0
   873                           
   874     0020                     I2C_Master_Read@temp:	
   875                           ; 2 bytes @ 0x0
   876                           
   877     0020                     ___lldiv@divisor:	
   878                           ; 2 bytes @ 0x0
   879                           
   880                           
   881                           ; 4 bytes @ 0x0
   882     0020                     	ds	1
   883     0021                     Lcd_Set_Cursor@temp:
   884     0021                     BCD_to_Decimal@ones_digit:	
   885                           ; 1 bytes @ 0x1
   886                           
   887     0021                     ___awdiv@sign:	
   888                           ; 1 bytes @ 0x1
   889                           
   890     0021                     ___awmod@sign:	
   891                           ; 1 bytes @ 0x1
   892                           
   893     0021                     ___lwdiv@quotient:	
   894                           ; 1 bytes @ 0x1
   895                           
   896                           
   897                           ; 2 bytes @ 0x1
   898     0021                     	ds	1
   899     0022                     Lcd_Write_String@a:
   900     0022                     BCD_to_Decimal@decimal_value:	
   901                           ; 1 bytes @ 0x2
   902                           
   903     0022                     ___awdiv@quotient:	
   904                           ; 1 bytes @ 0x2
   905                           
   906                           
   907                           ; 2 bytes @ 0x2
   908     0022                     	ds	1
   909     0023                     ?___lwmod:
   910     0023                     BCD_to_Decimal@bcd_value:	
   911                           ; 2 bytes @ 0x3
   912                           
   913     0023                     ___lwmod@divisor:	
   914                           ; 1 bytes @ 0x3
   915                           
   916                           
   917                           ; 2 bytes @ 0x3
   918     0023                     	ds	1
   919     0024                     ??_Decimal_to_BCD:
   920     0024                     ___lldiv@dividend:	
   921                           ; 1 bytes @ 0x4
   922                           
   923                           
   924                           ; 4 bytes @ 0x4
   925     0024                     	ds	1
   926     0025                     ___lwmod@dividend:
   927                           
   928                           ; 2 bytes @ 0x5
   929     0025                     	ds	1
   930     0026                     Decimal_to_BCD@tens_digit:
   931                           
   932                           ; 1 bytes @ 0x6
   933     0026                     	ds	1
   934     0027                     ?_sprintf:
   935     0027                     Decimal_to_BCD@ones_digit:	
   936                           ; 2 bytes @ 0x7
   937                           
   938     0027                     sprintf@f:	
   939                           ; 1 bytes @ 0x7
   940                           
   941                           
   942                           ; 1 bytes @ 0x7
   943     0027                     	ds	1
   944     0028                     Decimal_to_BCD@bcd_value:
   945     0028                     ___lldiv@quotient:	
   946                           ; 1 bytes @ 0x8
   947                           
   948                           
   949                           ; 4 bytes @ 0x8
   950     0028                     	ds	1
   951     0029                     Decimal_to_BCD@decimal_value:
   952                           
   953                           ; 1 bytes @ 0x9
   954     0029                     	ds	1
   955     002A                     ?_I2C_Master_Write:
   956     002A                     I2C_Master_Write@d:	
   957                           ; 1 bytes @ 0xA
   958                           
   959                           
   960                           ; 2 bytes @ 0xA
   961     002A                     	ds	2
   962     002C                     ?_settingHourRTC:
   963     002C                     settingHourRTC@min:	
   964                           ; 1 bytes @ 0xC
   965                           
   966     002C                     ___lldiv@counter:	
   967                           ; 1 bytes @ 0xC
   968                           
   969                           
   970                           ; 1 bytes @ 0xC
   971     002C                     	ds	1
   972     002D                     ?_I2C_Master_Init:
   973     002D                     settingHourRTC@hour:	
   974                           ; 1 bytes @ 0xD
   975                           
   976     002D                     I2C_Master_Init@c:	
   977                           ; 1 bytes @ 0xD
   978                           
   979                           
   980                           ; 4 bytes @ 0xD
   981     002D                     	ds	1
   982     002E                     ??_sprintf:
   983     002E                     settingHourRTC@day:	
   984                           ; 1 bytes @ 0xE
   985                           
   986                           
   987                           ; 1 bytes @ 0xE
   988     002E                     	ds	1
   989     002F                     settingHourRTC@mon:
   990                           
   991                           ; 1 bytes @ 0xF
   992     002F                     	ds	1
   993     0030                     settingHourRTC@year:
   994                           
   995                           ; 1 bytes @ 0x10
   996     0030                     	ds	1
   997     0031                     ??_settingHourRTC:
   998     0031                     sprintf@ap:	
   999                           ; 1 bytes @ 0x11
  1000                           
  1001                           
  1002                           ; 1 bytes @ 0x11
  1003     0031                     	ds	1
  1004     0032                     sprintf@flag:
  1005                           
  1006                           ; 1 bytes @ 0x12
  1007     0032                     	ds	1
  1008     0033                     sprintf@val:
  1009                           
  1010                           ; 2 bytes @ 0x13
  1011     0033                     	ds	2
  1012     0035                     sprintf@sp:
  1013                           
  1014                           ; 1 bytes @ 0x15
  1015     0035                     	ds	1
  1016     0036                     sprintf@prec:
  1017                           
  1018                           ; 1 bytes @ 0x16
  1019     0036                     	ds	1
  1020     0037                     sprintf@c:
  1021                           
  1022                           ; 1 bytes @ 0x17
  1023     0037                     	ds	1
  1024     0038                     ??_main:
  1025                           
  1026                           ; 1 bytes @ 0x18
  1027     0038                     	ds	6
  1028                           
  1029                           	psect	maintext
  1030     0021                     __pmaintext:	
  1031 ;;
  1032 ;;Main: autosize = 0, tempsize = 6, incstack = 0, save=0
  1033 ;;
  1034 ;; *************** function _main *****************
  1035 ;; Defined at:
  1036 ;;		line 107 in file "E:/Universidad/Semestre2_2023/Digital-2/Lab4/Lab4_Master.X/Lab4_Master.c"
  1037 ;; Parameters:    Size  Location     Type
  1038 ;;		None
  1039 ;; Auto vars:     Size  Location     Type
  1040 ;;		None
  1041 ;; Return value:  Size  Location     Type
  1042 ;;                  1    wreg      void 
  1043 ;; Registers used:
  1044 ;;		wreg, fsr0l, fsr0h, status,2, status,0, btemp+1, pclath, cstack
  1045 ;; Tracked objects:
  1046 ;;		On entry : B00/0
  1047 ;;		On exit  : 0/0
  1048 ;;		Unchanged: 0/0
  1049 ;; Data sizes:     COMMON   BANK0   BANK1   BANK3   BANK2
  1050 ;;      Params:         0       0       0       0       0
  1051 ;;      Locals:         0       0       0       0       0
  1052 ;;      Temps:          0       6       0       0       0
  1053 ;;      Totals:         0       6       0       0       0
  1054 ;;Total ram usage:        6 bytes
  1055 ;; Hardware stack levels required when called: 5
  1056 ;; This function calls:
  1057 ;;		_BCD_to_Decimal
  1058 ;;		_I2C_Master_Read
  1059 ;;		_I2C_Master_RepeatedStart
  1060 ;;		_I2C_Master_Start
  1061 ;;		_I2C_Master_Stop
  1062 ;;		_I2C_Master_Write
  1063 ;;		_Lcd_Clear
  1064 ;;		_Lcd_Set_Cursor
  1065 ;;		_Lcd_Write_String
  1066 ;;		_settingHourRTC
  1067 ;;		_setup
  1068 ;;		_sprintf
  1069 ;; This function is called by:
  1070 ;;		Startup code after reset
  1071 ;; This function uses a non-reentrant model
  1072 ;;
  1073                           
  1074     0021                     _main:	
  1075                           ;psect for function _main
  1076                           
  1077     0021                     l2562:	
  1078                           ;incstack = 0
  1079                           ; Regs used in _main: [wreg-fsr0h+status,2+status,0+btemp+1+pclath+cstack]
  1080                           
  1081                           
  1082                           ;E:/Universidad/Semestre2_2023/Digital-2/Lab4/Lab4_Master.X/Lab4_Master.c: 108:     setu
      +                          p();
  1083     0021  120A  118A  266E  120A  118A  	fcall	_setup
  1084                           
  1085                           ;E:/Universidad/Semestre2_2023/Digital-2/Lab4/Lab4_Master.X/Lab4_Master.c: 109:     sett
      +                          ingHourRTC(12,12,12,12,12,23);
  1086     0026  300C               	movlw	12
  1087     0027  1283               	bcf	3,5	;RP0=0, select bank0
  1088     0028  1303               	bcf	3,6	;RP1=0, select bank0
  1089     0029  00AC               	movwf	settingHourRTC@min
  1090     002A  300C               	movlw	12
  1091     002B  00AD               	movwf	settingHourRTC@hour
  1092     002C  300C               	movlw	12
  1093     002D  00AE               	movwf	settingHourRTC@day
  1094     002E  300C               	movlw	12
  1095     002F  00AF               	movwf	settingHourRTC@mon
  1096     0030  3017               	movlw	23
  1097     0031  00B0               	movwf	settingHourRTC@year
  1098     0032  300C               	movlw	12
  1099     0033  120A  118A  231E  120A  118A  	fcall	_settingHourRTC
  1100     0038                     l2564:
  1101                           
  1102                           ;E:/Universidad/Semestre2_2023/Digital-2/Lab4/Lab4_Master.X/Lab4_Master.c: 118:         
      +                          I2C_Master_Start();
  1103     0038  120A  158A  276F  120A  118A  	fcall	_I2C_Master_Start
  1104     003D                     l2566:
  1105                           
  1106                           ;E:/Universidad/Semestre2_2023/Digital-2/Lab4/Lab4_Master.X/Lab4_Master.c: 119:         
      +                          I2C_Master_Write(0b11010000);
  1107     003D  30D0               	movlw	208
  1108     003E  1283               	bcf	3,5	;RP0=0, select bank0
  1109     003F  1303               	bcf	3,6	;RP1=0, select bank0
  1110     0040  00AA               	movwf	I2C_Master_Write@d
  1111     0041  3000               	movlw	0
  1112     0042  00AB               	movwf	I2C_Master_Write@d+1
  1113     0043  120A  158A  2781  120A  118A  	fcall	_I2C_Master_Write
  1114     0048                     l2568:
  1115                           
  1116                           ;E:/Universidad/Semestre2_2023/Digital-2/Lab4/Lab4_Master.X/Lab4_Master.c: 120:         
      +                          I2C_Master_Write(0x00);
  1117     0048  3000               	movlw	0
  1118     0049  1283               	bcf	3,5	;RP0=0, select bank0
  1119     004A  1303               	bcf	3,6	;RP1=0, select bank0
  1120     004B  00AA               	movwf	I2C_Master_Write@d
  1121     004C  00AB               	movwf	I2C_Master_Write@d+1
  1122     004D  120A  158A  2781  120A  118A  	fcall	_I2C_Master_Write
  1123     0052                     l2570:
  1124                           
  1125                           ;E:/Universidad/Semestre2_2023/Digital-2/Lab4/Lab4_Master.X/Lab4_Master.c: 122:         
      +                          I2C_Master_RepeatedStart();
  1126     0052  120A  158A  2766  120A  118A  	fcall	_I2C_Master_RepeatedStart
  1127     0057                     l2572:
  1128                           
  1129                           ;E:/Universidad/Semestre2_2023/Digital-2/Lab4/Lab4_Master.X/Lab4_Master.c: 124:         
      +                          I2C_Master_Write(0b11010000 | 0x01);
  1130     0057  30D1               	movlw	209
  1131     0058  1283               	bcf	3,5	;RP0=0, select bank0
  1132     0059  1303               	bcf	3,6	;RP1=0, select bank0
  1133     005A  00AA               	movwf	I2C_Master_Write@d
  1134     005B  3000               	movlw	0
  1135     005C  00AB               	movwf	I2C_Master_Write@d+1
  1136     005D  120A  158A  2781  120A  118A  	fcall	_I2C_Master_Write
  1137     0062                     l2574:
  1138                           
  1139                           ;E:/Universidad/Semestre2_2023/Digital-2/Lab4/Lab4_Master.X/Lab4_Master.c: 126:         
      +                          timeRTC[2] = BCD_to_Decimal(I2C_Master_Read(1));
  1140     0062  3001               	movlw	1
  1141     0063  00F3               	movwf	I2C_Master_Read@a
  1142     0064  3000               	movlw	0
  1143     0065  00F4               	movwf	I2C_Master_Read@a+1
  1144     0066  120A  118A  2750  120A  118A  	fcall	_I2C_Master_Read
  1145     006B  0873               	movf	?_I2C_Master_Read,w
  1146     006C  120A  118A  27C7  120A  118A  	fcall	_BCD_to_Decimal
  1147     0071  1283               	bcf	3,5	;RP0=0, select bank0
  1148     0072  1303               	bcf	3,6	;RP1=0, select bank0
  1149     0073  00C4               	movwf	_timeRTC+2
  1150     0074                     l2576:
  1151                           
  1152                           ;E:/Universidad/Semestre2_2023/Digital-2/Lab4/Lab4_Master.X/Lab4_Master.c: 127:         
      +                          timeRTC[1] = BCD_to_Decimal(I2C_Master_Read(1));
  1153     0074  3001               	movlw	1
  1154     0075  00F3               	movwf	I2C_Master_Read@a
  1155     0076  3000               	movlw	0
  1156     0077  00F4               	movwf	I2C_Master_Read@a+1
  1157     0078  120A  118A  2750  120A  118A  	fcall	_I2C_Master_Read
  1158     007D  0873               	movf	?_I2C_Master_Read,w
  1159     007E  120A  118A  27C7  120A  118A  	fcall	_BCD_to_Decimal
  1160     0083  1283               	bcf	3,5	;RP0=0, select bank0
  1161     0084  1303               	bcf	3,6	;RP1=0, select bank0
  1162     0085  00C3               	movwf	_timeRTC+1
  1163     0086                     l2578:
  1164                           
  1165                           ;E:/Universidad/Semestre2_2023/Digital-2/Lab4/Lab4_Master.X/Lab4_Master.c: 128:         
      +                          timeRTC[0] = BCD_to_Decimal(I2C_Master_Read(1));
  1166     0086  3001               	movlw	1
  1167     0087  00F3               	movwf	I2C_Master_Read@a
  1168     0088  3000               	movlw	0
  1169     0089  00F4               	movwf	I2C_Master_Read@a+1
  1170     008A  120A  118A  2750  120A  118A  	fcall	_I2C_Master_Read
  1171     008F  0873               	movf	?_I2C_Master_Read,w
  1172     0090  120A  118A  27C7  120A  118A  	fcall	_BCD_to_Decimal
  1173     0095  1283               	bcf	3,5	;RP0=0, select bank0
  1174     0096  1303               	bcf	3,6	;RP1=0, select bank0
  1175     0097  00C2               	movwf	_timeRTC
  1176     0098                     l2580:
  1177                           
  1178                           ;E:/Universidad/Semestre2_2023/Digital-2/Lab4/Lab4_Master.X/Lab4_Master.c: 130:         
      +                          dateRTC[0] = BCD_to_Decimal(I2C_Master_Read(1));
  1179     0098  3001               	movlw	1
  1180     0099  00F3               	movwf	I2C_Master_Read@a
  1181     009A  3000               	movlw	0
  1182     009B  00F4               	movwf	I2C_Master_Read@a+1
  1183     009C  120A  118A  2750  120A  118A  	fcall	_I2C_Master_Read
  1184     00A1  0873               	movf	?_I2C_Master_Read,w
  1185     00A2  120A  118A  27C7  120A  118A  	fcall	_BCD_to_Decimal
  1186     00A7  1283               	bcf	3,5	;RP0=0, select bank0
  1187     00A8  1303               	bcf	3,6	;RP1=0, select bank0
  1188     00A9  00BE               	movwf	_dateRTC
  1189     00AA                     l2582:
  1190                           
  1191                           ;E:/Universidad/Semestre2_2023/Digital-2/Lab4/Lab4_Master.X/Lab4_Master.c: 131:         
      +                          dateRTC[1] = BCD_to_Decimal(I2C_Master_Read(1));
  1192     00AA  3001               	movlw	1
  1193     00AB  00F3               	movwf	I2C_Master_Read@a
  1194     00AC  3000               	movlw	0
  1195     00AD  00F4               	movwf	I2C_Master_Read@a+1
  1196     00AE  120A  118A  2750  120A  118A  	fcall	_I2C_Master_Read
  1197     00B3  0873               	movf	?_I2C_Master_Read,w
  1198     00B4  120A  118A  27C7  120A  118A  	fcall	_BCD_to_Decimal
  1199     00B9  1283               	bcf	3,5	;RP0=0, select bank0
  1200     00BA  1303               	bcf	3,6	;RP1=0, select bank0
  1201     00BB  00BF               	movwf	_dateRTC+1
  1202     00BC                     l2584:
  1203                           
  1204                           ;E:/Universidad/Semestre2_2023/Digital-2/Lab4/Lab4_Master.X/Lab4_Master.c: 132:         
      +                          dateRTC[2] = BCD_to_Decimal(I2C_Master_Read(1));
  1205     00BC  3001               	movlw	1
  1206     00BD  00F3               	movwf	I2C_Master_Read@a
  1207     00BE  3000               	movlw	0
  1208     00BF  00F4               	movwf	I2C_Master_Read@a+1
  1209     00C0  120A  118A  2750  120A  118A  	fcall	_I2C_Master_Read
  1210     00C5  0873               	movf	?_I2C_Master_Read,w
  1211     00C6  120A  118A  27C7  120A  118A  	fcall	_BCD_to_Decimal
  1212     00CB  1283               	bcf	3,5	;RP0=0, select bank0
  1213     00CC  1303               	bcf	3,6	;RP1=0, select bank0
  1214     00CD  00C0               	movwf	_dateRTC+2
  1215     00CE                     l2586:
  1216                           
  1217                           ;E:/Universidad/Semestre2_2023/Digital-2/Lab4/Lab4_Master.X/Lab4_Master.c: 133:         
      +                          dateRTC[3] = BCD_to_Decimal(I2C_Master_Read(0));
  1218     00CE  3000               	movlw	0
  1219     00CF  00F3               	movwf	I2C_Master_Read@a
  1220     00D0  00F4               	movwf	I2C_Master_Read@a+1
  1221     00D1  120A  118A  2750  120A  118A  	fcall	_I2C_Master_Read
  1222     00D6  0873               	movf	?_I2C_Master_Read,w
  1223     00D7  120A  118A  27C7  120A  118A  	fcall	_BCD_to_Decimal
  1224     00DC  1283               	bcf	3,5	;RP0=0, select bank0
  1225     00DD  1303               	bcf	3,6	;RP1=0, select bank0
  1226     00DE  00C1               	movwf	_dateRTC+3
  1227                           
  1228                           ;E:/Universidad/Semestre2_2023/Digital-2/Lab4/Lab4_Master.X/Lab4_Master.c: 134:         
      +                          I2C_Master_Stop();
  1229     00DF  120A  158A  2778  120A  118A  	fcall	_I2C_Master_Stop
  1230     00E4                     l2588:
  1231                           
  1232                           ;E:/Universidad/Semestre2_2023/Digital-2/Lab4/Lab4_Master.X/Lab4_Master.c: 135:         
      +                          _delay((unsigned long)((200)*(8000000/4000.0)));
  1233     00E4  3003               	movlw	3
  1234     00E5  1283               	bcf	3,5	;RP0=0, select bank0
  1235     00E6  1303               	bcf	3,6	;RP1=0, select bank0
  1236     00E7  00BA               	movwf	??_main+2
  1237     00E8  3008               	movlw	8
  1238     00E9  00B9               	movwf	??_main+1
  1239     00EA  3076               	movlw	118
  1240     00EB  00B8               	movwf	??_main
  1241     00EC                     u2327:
  1242     00EC  0BB8               	decfsz	??_main,f
  1243     00ED  28EC               	goto	u2327
  1244     00EE  0BB9               	decfsz	??_main+1,f
  1245     00EF  28EC               	goto	u2327
  1246     00F0  0BBA               	decfsz	??_main+2,f
  1247     00F1  28EC               	goto	u2327
  1248     00F2  0000               	nop
  1249     00F3                     l2590:
  1250                           
  1251                           ;E:/Universidad/Semestre2_2023/Digital-2/Lab4/Lab4_Master.X/Lab4_Master.c: 138:         
      +                          I2C_Master_Start();
  1252     00F3  120A  158A  276F  120A  118A  	fcall	_I2C_Master_Start
  1253     00F8                     l2592:
  1254                           
  1255                           ;E:/Universidad/Semestre2_2023/Digital-2/Lab4/Lab4_Master.X/Lab4_Master.c: 139:         
      +                          I2C_Master_Write(0x51);
  1256     00F8  3051               	movlw	81
  1257     00F9  1283               	bcf	3,5	;RP0=0, select bank0
  1258     00FA  1303               	bcf	3,6	;RP1=0, select bank0
  1259     00FB  00AA               	movwf	I2C_Master_Write@d
  1260     00FC  3000               	movlw	0
  1261     00FD  00AB               	movwf	I2C_Master_Write@d+1
  1262     00FE  120A  158A  2781  120A  118A  	fcall	_I2C_Master_Write
  1263     0103                     l2594:
  1264                           
  1265                           ;E:/Universidad/Semestre2_2023/Digital-2/Lab4/Lab4_Master.X/Lab4_Master.c: 140:         
      +                          s1ADC = I2C_Master_Read(0);
  1266     0103  3000               	movlw	0
  1267     0104  00F3               	movwf	I2C_Master_Read@a
  1268     0105  00F4               	movwf	I2C_Master_Read@a+1
  1269     0106  120A  118A  2750  120A  118A  	fcall	_I2C_Master_Read
  1270     010B  0873               	movf	?_I2C_Master_Read,w
  1271     010C  1283               	bcf	3,5	;RP0=0, select bank0
  1272     010D  1303               	bcf	3,6	;RP1=0, select bank0
  1273     010E  00C7               	movwf	_s1ADC
  1274     010F                     l2596:
  1275                           
  1276                           ;E:/Universidad/Semestre2_2023/Digital-2/Lab4/Lab4_Master.X/Lab4_Master.c: 141:         
      +                          I2C_Master_Stop();
  1277     010F  120A  158A  2778  120A  118A  	fcall	_I2C_Master_Stop
  1278     0114                     l2598:
  1279                           
  1280                           ;E:/Universidad/Semestre2_2023/Digital-2/Lab4/Lab4_Master.X/Lab4_Master.c: 142:         
      +                          _delay((unsigned long)((200)*(8000000/4000.0)));
  1281     0114  3003               	movlw	3
  1282     0115  1283               	bcf	3,5	;RP0=0, select bank0
  1283     0116  1303               	bcf	3,6	;RP1=0, select bank0
  1284     0117  00BA               	movwf	??_main+2
  1285     0118  3008               	movlw	8
  1286     0119  00B9               	movwf	??_main+1
  1287     011A  3076               	movlw	118
  1288     011B  00B8               	movwf	??_main
  1289     011C                     u2337:
  1290     011C  0BB8               	decfsz	??_main,f
  1291     011D  291C               	goto	u2337
  1292     011E  0BB9               	decfsz	??_main+1,f
  1293     011F  291C               	goto	u2337
  1294     0120  0BBA               	decfsz	??_main+2,f
  1295     0121  291C               	goto	u2337
  1296     0122  0000               	nop
  1297                           
  1298                           ;E:/Universidad/Semestre2_2023/Digital-2/Lab4/Lab4_Master.X/Lab4_Master.c: 147:         
      +                          Lcd_Clear();
  1299     0123  120A  158A  2798  120A  118A  	fcall	_Lcd_Clear
  1300                           
  1301                           ;E:/Universidad/Semestre2_2023/Digital-2/Lab4/Lab4_Master.X/Lab4_Master.c: 148:         
      +                          Lcd_Set_Cursor(1,1);
  1302     0128  01F7               	clrf	Lcd_Set_Cursor@b
  1303     0129  0AF7               	incf	Lcd_Set_Cursor@b,f
  1304     012A  3001               	movlw	1
  1305     012B  120A  118A  27A5  120A  118A  	fcall	_Lcd_Set_Cursor
  1306     0130                     l2600:
  1307                           
  1308                           ;E:/Universidad/Semestre2_2023/Digital-2/Lab4/Lab4_Master.X/Lab4_Master.c: 149:         
      +                          sprintf(lineLCD, "S1:");
  1309     0130  302B               	movlw	(low ((STR_1-__stringbase)| (0+32768)))& (0+255)
  1310     0131  1283               	bcf	3,5	;RP0=0, select bank0
  1311     0132  1303               	bcf	3,6	;RP1=0, select bank0
  1312     0133  00A7               	movwf	sprintf@f
  1313     0134  3048               	movlw	(low (_lineLCD| 0))& (0+255)
  1314     0135  120A  118A  21CB  120A  118A  	fcall	_sprintf
  1315     013A                     l2602:
  1316                           
  1317                           ;E:/Universidad/Semestre2_2023/Digital-2/Lab4/Lab4_Master.X/Lab4_Master.c: 150:         
      +                          Lcd_Write_String(lineLCD);
  1318     013A  3048               	movlw	(low (_lineLCD| 0))& (0+255)
  1319     013B  120A  118A  2780  120A  118A  	fcall	_Lcd_Write_String
  1320     0140                     l2604:
  1321                           
  1322                           ;E:/Universidad/Semestre2_2023/Digital-2/Lab4/Lab4_Master.X/Lab4_Master.c: 151:         
      +                          Lcd_Set_Cursor(1,6);
  1323     0140  3006               	movlw	6
  1324     0141  00F7               	movwf	Lcd_Set_Cursor@b
  1325     0142  3001               	movlw	1
  1326     0143  120A  118A  27A5  120A  118A  	fcall	_Lcd_Set_Cursor
  1327     0148                     l2606:
  1328                           
  1329                           ;E:/Universidad/Semestre2_2023/Digital-2/Lab4/Lab4_Master.X/Lab4_Master.c: 152:         
      +                          sprintf(lineLCD, "%.2d/%.2d/20%.2d", dateRTC[1], dateRTC[2], dateRTC[3]);
  1330     0148  300B               	movlw	(low ((STR_2-__stringbase)| (0+32768)))& (0+255)
  1331     0149  1283               	bcf	3,5	;RP0=0, select bank0
  1332     014A  1303               	bcf	3,6	;RP1=0, select bank0
  1333     014B  00A7               	movwf	sprintf@f
  1334     014C  083F               	movf	_dateRTC+1,w
  1335     014D  00B8               	movwf	??_main
  1336     014E  01B9               	clrf	??_main+1
  1337     014F  0838               	movf	??_main,w
  1338     0150  00A8               	movwf	?_sprintf+1
  1339     0151  0839               	movf	??_main+1,w
  1340     0152  00A9               	movwf	?_sprintf+2
  1341     0153  0840               	movf	_dateRTC+2,w
  1342     0154  00BA               	movwf	??_main+2
  1343     0155  01BB               	clrf	??_main+3
  1344     0156  083A               	movf	??_main+2,w
  1345     0157  00AA               	movwf	?_sprintf+3
  1346     0158  083B               	movf	??_main+3,w
  1347     0159  00AB               	movwf	?_sprintf+4
  1348     015A  0841               	movf	_dateRTC+3,w
  1349     015B  00BC               	movwf	??_main+4
  1350     015C  01BD               	clrf	??_main+5
  1351     015D  083C               	movf	??_main+4,w
  1352     015E  00AC               	movwf	?_sprintf+5
  1353     015F  083D               	movf	??_main+5,w
  1354     0160  00AD               	movwf	?_sprintf+6
  1355     0161  3048               	movlw	(low (_lineLCD| 0))& (0+255)
  1356     0162  120A  118A  21CB  120A  118A  	fcall	_sprintf
  1357                           
  1358                           ;E:/Universidad/Semestre2_2023/Digital-2/Lab4/Lab4_Master.X/Lab4_Master.c: 153:         
      +                          Lcd_Write_String(lineLCD);
  1359     0167  3048               	movlw	(low (_lineLCD| 0))& (0+255)
  1360     0168  120A  118A  2780  120A  118A  	fcall	_Lcd_Write_String
  1361     016D                     l2608:
  1362                           
  1363                           ;E:/Universidad/Semestre2_2023/Digital-2/Lab4/Lab4_Master.X/Lab4_Master.c: 155:         
      +                          Lcd_Set_Cursor(2,1);
  1364     016D  01F7               	clrf	Lcd_Set_Cursor@b
  1365     016E  0AF7               	incf	Lcd_Set_Cursor@b,f
  1366     016F  3002               	movlw	2
  1367     0170  120A  118A  27A5  120A  118A  	fcall	_Lcd_Set_Cursor
  1368     0175                     l2610:
  1369                           
  1370                           ;E:/Universidad/Semestre2_2023/Digital-2/Lab4/Lab4_Master.X/Lab4_Master.c: 156:         
      +                          sprintf(lineLCD,"%.2d", s1ADC);
  1371     0175  3017               	movlw	(low (((STR_2+12)-__stringbase)| (0+32768)))& (0+255)
  1372     0176  1283               	bcf	3,5	;RP0=0, select bank0
  1373     0177  1303               	bcf	3,6	;RP1=0, select bank0
  1374     0178  00A7               	movwf	sprintf@f
  1375     0179  0847               	movf	_s1ADC,w
  1376     017A  00B8               	movwf	??_main
  1377     017B  01B9               	clrf	??_main+1
  1378     017C  0838               	movf	??_main,w
  1379     017D  00A8               	movwf	?_sprintf+1
  1380     017E  0839               	movf	??_main+1,w
  1381     017F  00A9               	movwf	?_sprintf+2
  1382     0180  3048               	movlw	(low (_lineLCD| 0))& (0+255)
  1383     0181  120A  118A  21CB  120A  118A  	fcall	_sprintf
  1384     0186                     l2612:
  1385                           
  1386                           ;E:/Universidad/Semestre2_2023/Digital-2/Lab4/Lab4_Master.X/Lab4_Master.c: 157:         
      +                          Lcd_Write_String(lineLCD);
  1387     0186  3048               	movlw	(low (_lineLCD| 0))& (0+255)
  1388     0187  120A  118A  2780  120A  118A  	fcall	_Lcd_Write_String
  1389     018C                     l2614:
  1390                           
  1391                           ;E:/Universidad/Semestre2_2023/Digital-2/Lab4/Lab4_Master.X/Lab4_Master.c: 158:         
      +                          Lcd_Set_Cursor(2,7);
  1392     018C  3007               	movlw	7
  1393     018D  00F7               	movwf	Lcd_Set_Cursor@b
  1394     018E  3002               	movlw	2
  1395     018F  120A  118A  27A5  120A  118A  	fcall	_Lcd_Set_Cursor
  1396                           
  1397                           ;E:/Universidad/Semestre2_2023/Digital-2/Lab4/Lab4_Master.X/Lab4_Master.c: 159:         
      +                          sprintf(lineLCD,"%.2d:%.2d:%.2d", timeRTC[0], timeRTC[1], timeRTC[2]);
  1398     0194  301C               	movlw	(low ((STR_4-__stringbase)| (0+32768)))& (0+255)
  1399     0195  1283               	bcf	3,5	;RP0=0, select bank0
  1400     0196  1303               	bcf	3,6	;RP1=0, select bank0
  1401     0197  00A7               	movwf	sprintf@f
  1402     0198  0842               	movf	_timeRTC,w
  1403     0199  00B8               	movwf	??_main
  1404     019A  01B9               	clrf	??_main+1
  1405     019B  0838               	movf	??_main,w
  1406     019C  00A8               	movwf	?_sprintf+1
  1407     019D  0839               	movf	??_main+1,w
  1408     019E  00A9               	movwf	?_sprintf+2
  1409     019F  0843               	movf	_timeRTC+1,w
  1410     01A0  00BA               	movwf	??_main+2
  1411     01A1  01BB               	clrf	??_main+3
  1412     01A2  083A               	movf	??_main+2,w
  1413     01A3  00AA               	movwf	?_sprintf+3
  1414     01A4  083B               	movf	??_main+3,w
  1415     01A5  00AB               	movwf	?_sprintf+4
  1416     01A6  0844               	movf	_timeRTC+2,w
  1417     01A7  00BC               	movwf	??_main+4
  1418     01A8  01BD               	clrf	??_main+5
  1419     01A9  083C               	movf	??_main+4,w
  1420     01AA  00AC               	movwf	?_sprintf+5
  1421     01AB  083D               	movf	??_main+5,w
  1422     01AC  00AD               	movwf	?_sprintf+6
  1423     01AD  3048               	movlw	(low (_lineLCD| 0))& (0+255)
  1424     01AE  120A  118A  21CB  120A  118A  	fcall	_sprintf
  1425     01B3                     l2616:
  1426                           
  1427                           ;E:/Universidad/Semestre2_2023/Digital-2/Lab4/Lab4_Master.X/Lab4_Master.c: 160:         
      +                          Lcd_Write_String(lineLCD);
  1428     01B3  3048               	movlw	(low (_lineLCD| 0))& (0+255)
  1429     01B4  120A  118A  2780  120A  118A  	fcall	_Lcd_Write_String
  1430     01B9                     l2618:
  1431                           
  1432                           ;E:/Universidad/Semestre2_2023/Digital-2/Lab4/Lab4_Master.X/Lab4_Master.c: 162:         
      +                          _delay((unsigned long)((50)*(8000000/4000.0)));
  1433     01B9  3082               	movlw	130
  1434     01BA  1283               	bcf	3,5	;RP0=0, select bank0
  1435     01BB  1303               	bcf	3,6	;RP1=0, select bank0
  1436     01BC  00B9               	movwf	??_main+1
  1437     01BD  30DD               	movlw	221
  1438     01BE  00B8               	movwf	??_main
  1439     01BF                     u2347:
  1440     01BF  0BB8               	decfsz	??_main,f
  1441     01C0  29BF               	goto	u2347
  1442     01C1  0BB9               	decfsz	??_main+1,f
  1443     01C2  29BF               	goto	u2347
  1444     01C3                     l2620:
  1445                           
  1446                           ;E:/Universidad/Semestre2_2023/Digital-2/Lab4/Lab4_Master.X/Lab4_Master.c: 163:         
      +                          PORTA = counter;
  1447     01C3  1283               	bcf	3,5	;RP0=0, select bank0
  1448     01C4  1303               	bcf	3,6	;RP1=0, select bank0
  1449     01C5  0846               	movf	_counter,w
  1450     01C6  0085               	movwf	5	;volatile
  1451     01C7  2838               	goto	l2564
  1452     01C8  120A  118A  280E   	ljmp	start
  1453     01CB                     __end_of_main:
  1454                           
  1455                           	psect	text1
  1456     01CB                     __ptext1:	
  1457 ;; *************** function _sprintf *****************
  1458 ;; Defined at:
  1459 ;;		line 505 in file "C:\Program Files\Microchip\xc8\v2.41\pic\sources\c90\common\doprnt.c"
  1460 ;; Parameters:    Size  Location     Type
  1461 ;;  sp              1    wreg     PTR unsigned char 
  1462 ;;		 -> lineLCD(16), 
  1463 ;;  f               1    7[BANK0 ] PTR const unsigned char 
  1464 ;;		 -> STR_4(15), STR_3(5), STR_2(17), STR_1(4), 
  1465 ;; Auto vars:     Size  Location     Type
  1466 ;;  sp              1   21[BANK0 ] PTR unsigned char 
  1467 ;;		 -> lineLCD(16), 
  1468 ;;  tmpval          4    0        struct .
  1469 ;;  val             2   19[BANK0 ] unsigned int 
  1470 ;;  cp              2    0        PTR const unsigned char 
  1471 ;;  len             2    0        unsigned int 
  1472 ;;  c               1   23[BANK0 ] unsigned char 
  1473 ;;  prec            1   22[BANK0 ] char 
  1474 ;;  flag            1   18[BANK0 ] unsigned char 
  1475 ;;  ap              1   17[BANK0 ] PTR void [1]
  1476 ;;		 -> ?_sprintf(2), 
  1477 ;; Return value:  Size  Location     Type
  1478 ;;                  2    7[BANK0 ] int 
  1479 ;; Registers used:
  1480 ;;		wreg, fsr0l, fsr0h, status,2, status,0, btemp+1, pclath, cstack
  1481 ;; Tracked objects:
  1482 ;;		On entry : 0/0
  1483 ;;		On exit  : 0/0
  1484 ;;		Unchanged: 0/0
  1485 ;; Data sizes:     COMMON   BANK0   BANK1   BANK3   BANK2
  1486 ;;      Params:         0       7       0       0       0
  1487 ;;      Locals:         0       7       0       0       0
  1488 ;;      Temps:          0       3       0       0       0
  1489 ;;      Totals:         0      17       0       0       0
  1490 ;;Total ram usage:       17 bytes
  1491 ;; Hardware stack levels used: 1
  1492 ;; Hardware stack levels required when called: 2
  1493 ;; This function calls:
  1494 ;;		___bmul
  1495 ;;		___lwdiv
  1496 ;;		___lwmod
  1497 ;;		_isdigit
  1498 ;; This function is called by:
  1499 ;;		_main
  1500 ;; This function uses a non-reentrant model
  1501 ;;
  1502                           
  1503     01CB                     _sprintf:	
  1504                           ;psect for function _sprintf
  1505                           
  1506                           
  1507                           ;incstack = 0
  1508                           ; Regs used in _sprintf: [wreg-fsr0h+status,2+status,0+btemp+1+pclath+cstack]
  1509                           ;sprintf@sp stored from wreg
  1510     01CB  1283               	bcf	3,5	;RP0=0, select bank0
  1511     01CC  1303               	bcf	3,6	;RP1=0, select bank0
  1512     01CD  00B5               	movwf	sprintf@sp
  1513     01CE                     l2464:
  1514                           
  1515                           ;C:\Program Files\Microchip\xc8\v2.41\pic\sources\c90\common\doprnt.c: 505: sprintf(char
      +                           * sp, const char * f, ...);C:\Program Files\Microchip\xc8\v2.41\pic\sources\c90\common\
      +                          doprnt.c: 506: {;C:\Program Files\Microchip\xc8\v2.41\pic\sources\c90\common\doprnt.c: 5
      +                          07:  va_list ap;;C:\Program Files\Microchip\xc8\v2.41\pic\sources\c90\common\doprnt.c: 5
      +                          12:  char c;;C:\Program Files\Microchip\xc8\v2.41\pic\sources\c90\common\doprnt.c: 521: 
      +                           signed char prec;;C:\Program Files\Microchip\xc8\v2.41\pic\sources\c90\common\doprnt.c:
      +                           525:  unsigned char flag;
  1516     01CE  3028               	movlw	(low ((?_sprintf| 0+1)))& (0+255)
  1517     01CF  00B1               	movwf	sprintf@ap
  1518                           
  1519                           ;C:\Program Files\Microchip\xc8\v2.41\pic\sources\c90\common\doprnt.c: 553:  while((c = 
      +                          *f++)) {
  1520     01D0  2B09               	goto	l2546
  1521     01D1                     l2466:
  1522                           
  1523                           ;C:\Program Files\Microchip\xc8\v2.41\pic\sources\c90\common\doprnt.c: 555:   if(c != '%
      +                          ')
  1524     01D1  3025               	movlw	37
  1525     01D2  0637               	xorwf	sprintf@c,w
  1526     01D3  1903               	btfsc	3,2
  1527     01D4  29D6               	goto	u2191
  1528     01D5  29D7               	goto	u2190
  1529     01D6                     u2191:
  1530     01D6  29E1               	goto	l2472
  1531     01D7                     u2190:
  1532     01D7                     l2468:
  1533                           
  1534                           ;C:\Program Files\Microchip\xc8\v2.41\pic\sources\c90\common\doprnt.c: 557:   {;C:\Progr
      +                          am Files\Microchip\xc8\v2.41\pic\sources\c90\common\doprnt.c: 558:    ((*sp++ = (c)));
  1535     01D7  0835               	movf	sprintf@sp,w
  1536     01D8  0084               	movwf	4
  1537     01D9  0837               	movf	sprintf@c,w
  1538     01DA  1383               	bcf	3,7	;select IRP bank0
  1539     01DB  0080               	movwf	0
  1540     01DC                     l2470:
  1541     01DC  3001               	movlw	1
  1542     01DD  00FF               	movwf	btemp+1
  1543     01DE  087F               	movf	btemp+1,w
  1544     01DF  07B5               	addwf	sprintf@sp,f
  1545                           
  1546                           ;C:\Program Files\Microchip\xc8\v2.41\pic\sources\c90\common\doprnt.c: 559:    continue;
  1547     01E0  2B09               	goto	l2546
  1548     01E1                     l2472:
  1549                           
  1550                           ;C:\Program Files\Microchip\xc8\v2.41\pic\sources\c90\common\doprnt.c: 565:   flag = 0;
  1551     01E1  01B2               	clrf	sprintf@flag
  1552     01E2                     l2474:
  1553                           
  1554                           ;C:\Program Files\Microchip\xc8\v2.41\pic\sources\c90\common\doprnt.c: 628:   if(*f == '
      +                          .') {
  1555     01E2  0827               	movf	sprintf@f,w
  1556     01E3  0084               	movwf	4
  1557     01E4  120A  118A  271C  120A  118A  	fcall	stringdir
  1558     01E9  3A2E               	xorlw	46
  1559     01EA  1D03               	skipz
  1560     01EB  29ED               	goto	u2201
  1561     01EC  29EE               	goto	u2200
  1562     01ED                     u2201:
  1563     01ED  2A21               	goto	l2488
  1564     01EE                     u2200:
  1565     01EE                     l2476:
  1566                           
  1567                           ;C:\Program Files\Microchip\xc8\v2.41\pic\sources\c90\common\doprnt.c: 630:    f++;
  1568     01EE  3001               	movlw	1
  1569     01EF  00FF               	movwf	btemp+1
  1570     01F0  087F               	movf	btemp+1,w
  1571     01F1  07A7               	addwf	sprintf@f,f
  1572     01F2                     l2478:
  1573                           
  1574                           ;C:\Program Files\Microchip\xc8\v2.41\pic\sources\c90\common\doprnt.c: 644:    {;C:\Prog
      +                          ram Files\Microchip\xc8\v2.41\pic\sources\c90\common\doprnt.c: 645:     prec = 0;
  1575     01F2  01B6               	clrf	sprintf@prec
  1576                           
  1577                           ;C:\Program Files\Microchip\xc8\v2.41\pic\sources\c90\common\doprnt.c: 646:     while(is
      +                          digit((unsigned)*f)) {
  1578     01F3  2A10               	goto	l2486
  1579     01F4                     l2480:
  1580                           
  1581                           ;C:\Program Files\Microchip\xc8\v2.41\pic\sources\c90\common\doprnt.c: 647:      prec *=
      +                           10;
  1582     01F4  1283               	bcf	3,5	;RP0=0, select bank0
  1583     01F5  1303               	bcf	3,6	;RP1=0, select bank0
  1584     01F6  0836               	movf	sprintf@prec,w
  1585     01F7  00F3               	movwf	___bmul@multiplicand
  1586     01F8  300A               	movlw	10
  1587     01F9  120A  158A  27B7  120A  118A  	fcall	___bmul
  1588     01FE  1283               	bcf	3,5	;RP0=0, select bank0
  1589     01FF  1303               	bcf	3,6	;RP1=0, select bank0
  1590     0200  00B6               	movwf	sprintf@prec
  1591     0201                     l2482:
  1592                           
  1593                           ;C:\Program Files\Microchip\xc8\v2.41\pic\sources\c90\common\doprnt.c: 648:         prec
      +                           += *f++ - '0';
  1594     0201  0827               	movf	sprintf@f,w
  1595     0202  0084               	movwf	4
  1596     0203  120A  118A  271C  120A  118A  	fcall	stringdir
  1597     0208  3ED0               	addlw	-48
  1598     0209  00FF               	movwf	btemp+1
  1599     020A  087F               	movf	btemp+1,w
  1600     020B  07B6               	addwf	sprintf@prec,f
  1601     020C                     l2484:
  1602     020C  3001               	movlw	1
  1603     020D  00FF               	movwf	btemp+1
  1604     020E  087F               	movf	btemp+1,w
  1605     020F  07A7               	addwf	sprintf@f,f
  1606     0210                     l2486:
  1607                           
  1608                           ;C:\Program Files\Microchip\xc8\v2.41\pic\sources\c90\common\doprnt.c: 646:     while(is
      +                          digit((unsigned)*f)) {
  1609     0210  0827               	movf	sprintf@f,w
  1610     0211  0084               	movwf	4
  1611     0212  120A  118A  271C  120A  118A  	fcall	stringdir
  1612     0217  120A  158A  27A5  120A  118A  	fcall	_isdigit
  1613     021C  1803               	btfsc	3,0
  1614     021D  2A1F               	goto	u2211
  1615     021E  2A20               	goto	u2210
  1616     021F                     u2211:
  1617     021F  29F4               	goto	l2480
  1618     0220                     u2210:
  1619     0220  2A22               	goto	l2492
  1620     0221                     l2488:
  1621                           
  1622                           ;C:\Program Files\Microchip\xc8\v2.41\pic\sources\c90\common\doprnt.c: 652:    prec = 0;
  1623     0221  01B6               	clrf	sprintf@prec
  1624     0222                     l2492:
  1625     0222  3001               	movlw	1
  1626     0223  1283               	bcf	3,5	;RP0=0, select bank0
  1627     0224  1303               	bcf	3,6	;RP1=0, select bank0
  1628     0225  07A7               	addwf	sprintf@f,f
  1629     0226  30FF               	movlw	-1
  1630     0227  0727               	addwf	sprintf@f,w
  1631     0228  0084               	movwf	4
  1632     0229  120A  118A  271C  120A  118A  	fcall	stringdir
  1633     022E  00B7               	movwf	sprintf@c
  1634     022F  00AE               	movwf	??_sprintf
  1635     0230  01AF               	clrf	??_sprintf+1
  1636                           
  1637                           ; Switch on 2 bytes has been partitioned into a top level switch of size 1, and 1 sub-sw
      +                          itches
  1638                           ; Switch size 1, requested type "simple"
  1639                           ; Number of cases is 1, Range of values is 0 to 0
  1640                           ; switch strategies available:
  1641                           ; Name         Instructions Cycles
  1642                           ; simple_byte            4     3 (average)
  1643                           ; direct_byte           11     8 (fixed)
  1644                           ; jumptable            260     6 (fixed)
  1645                           ;	Chosen strategy is simple_byte
  1646     0231  082F               	movf	??_sprintf+1,w
  1647     0232  3A00               	xorlw	0	; case 0
  1648     0233  1903               	skipnz
  1649     0234  2A36               	goto	l2652
  1650     0235  2B09               	goto	l2546
  1651     0236                     l2652:
  1652                           
  1653                           ; Switch size 1, requested type "simple"
  1654                           ; Number of cases is 3, Range of values is 0 to 105
  1655                           ; switch strategies available:
  1656                           ; Name         Instructions Cycles
  1657                           ; simple_byte           10     6 (average)
  1658                           ; jumptable            260     6 (fixed)
  1659                           ;	Chosen strategy is simple_byte
  1660     0236  082E               	movf	??_sprintf,w
  1661     0237  3A00               	xorlw	0	; case 0
  1662     0238  1903               	skipnz
  1663     0239  2B19               	goto	l2548
  1664     023A  3A64               	xorlw	100	; case 100
  1665     023B  1903               	skipnz
  1666     023C  2A41               	goto	l2494
  1667     023D  3A0D               	xorlw	13	; case 105
  1668     023E  1903               	skipnz
  1669     023F  2A41               	goto	l2494
  1670     0240  2B09               	goto	l2546
  1671     0241                     l2494:
  1672                           
  1673                           ;C:\Program Files\Microchip\xc8\v2.41\pic\sources\c90\common\doprnt.c: 1279:   {;C:\Prog
      +                          ram Files\Microchip\xc8\v2.41\pic\sources\c90\common\doprnt.c: 1285:     val = (unsigned
      +                           int)(*(int *)__va_arg((*(int **)ap), (int)0));
  1674     0241  0831               	movf	sprintf@ap,w
  1675     0242  0084               	movwf	4
  1676     0243  1383               	bcf	3,7	;select IRP bank0
  1677     0244  0800               	movf	0,w
  1678     0245  00B3               	movwf	sprintf@val
  1679     0246  0A84               	incf	4,f
  1680     0247  0800               	movf	0,w
  1681     0248  00B4               	movwf	sprintf@val+1
  1682     0249                     l2496:
  1683     0249  3002               	movlw	2
  1684     024A  00FF               	movwf	btemp+1
  1685     024B  087F               	movf	btemp+1,w
  1686     024C  07B1               	addwf	sprintf@ap,f
  1687     024D                     l2498:
  1688                           
  1689                           ;C:\Program Files\Microchip\xc8\v2.41\pic\sources\c90\common\doprnt.c: 1287:    if((int)
      +                          val < 0) {
  1690     024D  1FB4               	btfss	sprintf@val+1,7
  1691     024E  2A50               	goto	u2221
  1692     024F  2A51               	goto	u2220
  1693     0250                     u2221:
  1694     0250  2A5A               	goto	l2504
  1695     0251                     u2220:
  1696     0251                     l2500:
  1697                           
  1698                           ;C:\Program Files\Microchip\xc8\v2.41\pic\sources\c90\common\doprnt.c: 1288:     flag |=
      +                           0x03;
  1699     0251  3003               	movlw	3
  1700     0252  00FF               	movwf	btemp+1
  1701     0253  087F               	movf	btemp+1,w
  1702     0254  04B2               	iorwf	sprintf@flag,f
  1703     0255                     l2502:
  1704                           
  1705                           ;C:\Program Files\Microchip\xc8\v2.41\pic\sources\c90\common\doprnt.c: 1289:     val = -
      +                          val;
  1706     0255  09B3               	comf	sprintf@val,f
  1707     0256  09B4               	comf	sprintf@val+1,f
  1708     0257  0AB3               	incf	sprintf@val,f
  1709     0258  1903               	skipnz
  1710     0259  0AB4               	incf	sprintf@val+1,f
  1711     025A                     l2504:
  1712                           
  1713                           ;C:\Program Files\Microchip\xc8\v2.41\pic\sources\c90\common\doprnt.c: 1292:   };C:\Prog
      +                          ram Files\Microchip\xc8\v2.41\pic\sources\c90\common\doprnt.c: 1316:   if(prec == 0 && v
      +                          al == 0)
  1714     025A  0836               	movf	sprintf@prec,w
  1715     025B  1D03               	btfss	3,2
  1716     025C  2A5E               	goto	u2231
  1717     025D  2A5F               	goto	u2230
  1718     025E                     u2231:
  1719     025E  2A69               	goto	l2510
  1720     025F                     u2230:
  1721     025F                     l2506:
  1722     025F  0833               	movf	sprintf@val,w
  1723     0260  0434               	iorwf	sprintf@val+1,w
  1724     0261  1D03               	btfss	3,2
  1725     0262  2A64               	goto	u2241
  1726     0263  2A65               	goto	u2240
  1727     0264                     u2241:
  1728     0264  2A69               	goto	l2510
  1729     0265                     u2240:
  1730     0265                     l2508:
  1731                           
  1732                           ;C:\Program Files\Microchip\xc8\v2.41\pic\sources\c90\common\doprnt.c: 1317:    prec++;
  1733     0265  3001               	movlw	1
  1734     0266  00FF               	movwf	btemp+1
  1735     0267  087F               	movf	btemp+1,w
  1736     0268  07B6               	addwf	sprintf@prec,f
  1737     0269                     l2510:
  1738                           
  1739                           ;C:\Program Files\Microchip\xc8\v2.41\pic\sources\c90\common\doprnt.c: 1331:    for(c = 
      +                          1 ; c != sizeof dpowers/sizeof dpowers[0] ; c++)
  1740     0269  01B7               	clrf	sprintf@c
  1741     026A  0AB7               	incf	sprintf@c,f
  1742     026B                     l2516:
  1743                           
  1744                           ;C:\Program Files\Microchip\xc8\v2.41\pic\sources\c90\common\doprnt.c: 1332:     if(val 
      +                          < dpowers[c])
  1745     026B  0837               	movf	sprintf@c,w
  1746     026C  00AE               	movwf	??_sprintf
  1747     026D  072E               	addwf	??_sprintf,w
  1748     026E  3E01               	addlw	low ((_dpowers-__stringbase)| (0+32768))
  1749     026F  0084               	movwf	4
  1750     0270  120A  118A  271C  120A  118A  	fcall	stringdir
  1751     0275  00AF               	movwf	??_sprintf+1
  1752     0276  120A  118A  271C  120A  118A  	fcall	stringdir
  1753     027B  00B0               	movwf	??_sprintf+2
  1754     027C  0830               	movf	??_sprintf+2,w
  1755     027D  0234               	subwf	sprintf@val+1,w
  1756     027E  1D03               	skipz
  1757     027F  2A82               	goto	u2255
  1758     0280  082F               	movf	??_sprintf+1,w
  1759     0281  0233               	subwf	sprintf@val,w
  1760     0282                     u2255:
  1761     0282  1803               	skipnc
  1762     0283  2A85               	goto	u2251
  1763     0284  2A86               	goto	u2250
  1764     0285                     u2251:
  1765     0285  2A87               	goto	l2520
  1766     0286                     u2250:
  1767     0286  2A91               	goto	l2524
  1768     0287                     l2520:
  1769     0287  3001               	movlw	1
  1770     0288  00FF               	movwf	btemp+1
  1771     0289  087F               	movf	btemp+1,w
  1772     028A  07B7               	addwf	sprintf@c,f
  1773     028B                     l2522:
  1774     028B  3005               	movlw	5
  1775     028C  0637               	xorwf	sprintf@c,w
  1776     028D  1D03               	btfss	3,2
  1777     028E  2A90               	goto	u2261
  1778     028F  2A91               	goto	u2260
  1779     0290                     u2261:
  1780     0290  2A6B               	goto	l2516
  1781     0291                     u2260:
  1782     0291                     l2524:
  1783                           
  1784                           ;C:\Program Files\Microchip\xc8\v2.41\pic\sources\c90\common\doprnt.c: 1365:   if(c < pr
      +                          ec)
  1785     0291  0836               	movf	sprintf@prec,w
  1786     0292  00AE               	movwf	??_sprintf
  1787     0293  01AF               	clrf	??_sprintf+1
  1788     0294  1BAE               	btfsc	??_sprintf,7
  1789     0295  03AF               	decf	??_sprintf+1,f
  1790     0296  082F               	movf	??_sprintf+1,w
  1791     0297  3A80               	xorlw	128
  1792     0298  3C80               	sublw	128
  1793     0299  1D03               	skipz
  1794     029A  2A9D               	goto	u2275
  1795     029B  082E               	movf	??_sprintf,w
  1796     029C  0237               	subwf	sprintf@c,w
  1797     029D                     u2275:
  1798     029D  1803               	skipnc
  1799     029E  2AA0               	goto	u2271
  1800     029F  2AA1               	goto	u2270
  1801     02A0                     u2271:
  1802     02A0  2AA2               	goto	l2528
  1803     02A1                     u2270:
  1804     02A1                     l2526:
  1805     02A1  2ABA               	goto	l2532
  1806     02A2                     l2528:
  1807     02A2  1283               	bcf	3,5	;RP0=0, select bank0
  1808     02A3  1303               	bcf	3,6	;RP1=0, select bank0
  1809     02A4  0836               	movf	sprintf@prec,w
  1810     02A5  00AE               	movwf	??_sprintf
  1811     02A6  01AF               	clrf	??_sprintf+1
  1812     02A7  1BAE               	btfsc	??_sprintf,7
  1813     02A8  03AF               	decf	??_sprintf+1,f
  1814     02A9  082F               	movf	??_sprintf+1,w
  1815     02AA  3A80               	xorlw	128
  1816     02AB  00B0               	movwf	??_sprintf+2
  1817     02AC  3080               	movlw	128
  1818     02AD  0230               	subwf	??_sprintf+2,w
  1819     02AE  1D03               	skipz
  1820     02AF  2AB2               	goto	u2285
  1821     02B0  0837               	movf	sprintf@c,w
  1822     02B1  022E               	subwf	??_sprintf,w
  1823     02B2                     u2285:
  1824     02B2  1803               	skipnc
  1825     02B3  2AB5               	goto	u2281
  1826     02B4  2AB6               	goto	u2280
  1827     02B5                     u2281:
  1828     02B5  2ABA               	goto	l2532
  1829     02B6                     u2280:
  1830     02B6                     l2530:
  1831                           
  1832                           ;C:\Program Files\Microchip\xc8\v2.41\pic\sources\c90\common\doprnt.c: 1368:    prec = c
      +                          ;
  1833     02B6  1283               	bcf	3,5	;RP0=0, select bank0
  1834     02B7  1303               	bcf	3,6	;RP1=0, select bank0
  1835     02B8  0837               	movf	sprintf@c,w
  1836     02B9  00B6               	movwf	sprintf@prec
  1837     02BA                     l2532:
  1838                           
  1839                           ;C:\Program Files\Microchip\xc8\v2.41\pic\sources\c90\common\doprnt.c: 1448:   {;C:\Prog
      +                          ram Files\Microchip\xc8\v2.41\pic\sources\c90\common\doprnt.c: 1464:    if(flag & 0x03)
  1840     02BA  1283               	bcf	3,5	;RP0=0, select bank0
  1841     02BB  1303               	bcf	3,6	;RP1=0, select bank0
  1842     02BC  0832               	movf	sprintf@flag,w
  1843     02BD  3903               	andlw	3
  1844     02BE  1903               	btfsc	3,2
  1845     02BF  2AC1               	goto	u2291
  1846     02C0  2AC2               	goto	u2290
  1847     02C1                     u2291:
  1848     02C1  2B00               	goto	l2544
  1849     02C2                     u2290:
  1850     02C2                     l2534:
  1851                           
  1852                           ;C:\Program Files\Microchip\xc8\v2.41\pic\sources\c90\common\doprnt.c: 1465:     ((*sp++
      +                           = ('-')));
  1853     02C2  0835               	movf	sprintf@sp,w
  1854     02C3  0084               	movwf	4
  1855     02C4  302D               	movlw	45
  1856     02C5  1383               	bcf	3,7	;select IRP bank0
  1857     02C6  0080               	movwf	0
  1858     02C7                     l2536:
  1859     02C7  3001               	movlw	1
  1860     02C8  00FF               	movwf	btemp+1
  1861     02C9  087F               	movf	btemp+1,w
  1862     02CA  07B5               	addwf	sprintf@sp,f
  1863     02CB  2B00               	goto	l2544
  1864     02CC                     l2538:
  1865                           
  1866                           ;C:\Program Files\Microchip\xc8\v2.41\pic\sources\c90\common\doprnt.c: 1504:    {;C:\Pro
      +                          gram Files\Microchip\xc8\v2.41\pic\sources\c90\common\doprnt.c: 1515:     c = (val / dpo
      +                          wers[(unsigned char)prec]) % 10 + '0';
  1867     02CC  300A               	movlw	10
  1868     02CD  00A3               	movwf	___lwmod@divisor
  1869     02CE  3000               	movlw	0
  1870     02CF  00A4               	movwf	___lwmod@divisor+1
  1871     02D0  0836               	movf	sprintf@prec,w
  1872     02D1  00AE               	movwf	??_sprintf
  1873     02D2  072E               	addwf	??_sprintf,w
  1874     02D3  3E01               	addlw	low ((_dpowers-__stringbase)| (0+32768))
  1875     02D4  0084               	movwf	4
  1876     02D5  120A  118A  271C  120A  118A  	fcall	stringdir
  1877     02DA  00F3               	movwf	___lwdiv@divisor
  1878     02DB  120A  118A  271C  120A  118A  	fcall	stringdir
  1879     02E0  00F4               	movwf	___lwdiv@divisor+1
  1880     02E1  0834               	movf	sprintf@val+1,w
  1881     02E2  00F6               	movwf	___lwdiv@dividend+1
  1882     02E3  0833               	movf	sprintf@val,w
  1883     02E4  00F5               	movwf	___lwdiv@dividend
  1884     02E5  120A  118A  25AE  120A  118A  	fcall	___lwdiv
  1885     02EA  0874               	movf	?___lwdiv+1,w
  1886     02EB  1283               	bcf	3,5	;RP0=0, select bank0
  1887     02EC  1303               	bcf	3,6	;RP1=0, select bank0
  1888     02ED  00A6               	movwf	___lwmod@dividend+1
  1889     02EE  0873               	movf	?___lwdiv,w
  1890     02EF  00A5               	movwf	___lwmod@dividend
  1891     02F0  120A  118A  2632  120A  118A  	fcall	___lwmod
  1892     02F5  1283               	bcf	3,5	;RP0=0, select bank0
  1893     02F6  1303               	bcf	3,6	;RP1=0, select bank0
  1894     02F7  0823               	movf	?___lwmod,w
  1895     02F8  3E30               	addlw	48
  1896     02F9  00B7               	movwf	sprintf@c
  1897     02FA                     l2540:
  1898                           
  1899                           ;C:\Program Files\Microchip\xc8\v2.41\pic\sources\c90\common\doprnt.c: 1549:    };C:\Pro
      +                          gram Files\Microchip\xc8\v2.41\pic\sources\c90\common\doprnt.c: 1550:    ((*sp++ = (c)))
      +                          ;
  1900     02FA  0835               	movf	sprintf@sp,w
  1901     02FB  0084               	movwf	4
  1902     02FC  0837               	movf	sprintf@c,w
  1903     02FD  1383               	bcf	3,7	;select IRP bank0
  1904     02FE  0080               	movwf	0
  1905     02FF  2AC7               	goto	l2536
  1906     0300                     l2544:
  1907                           
  1908                           ;C:\Program Files\Microchip\xc8\v2.41\pic\sources\c90\common\doprnt.c: 1500:   while(pre
      +                          c--) {
  1909     0300  30FF               	movlw	255
  1910     0301  00FF               	movwf	btemp+1
  1911     0302  087F               	movf	btemp+1,w
  1912     0303  07B6               	addwf	sprintf@prec,f
  1913     0304  0A36               	incf	sprintf@prec,w
  1914     0305  1D03               	btfss	3,2
  1915     0306  2B08               	goto	u2301
  1916     0307  2B09               	goto	u2300
  1917     0308                     u2301:
  1918     0308  2ACC               	goto	l2538
  1919     0309                     u2300:
  1920     0309                     l2546:
  1921                           
  1922                           ;C:\Program Files\Microchip\xc8\v2.41\pic\sources\c90\common\doprnt.c: 553:  while((c = 
      +                          *f++)) {
  1923     0309  3001               	movlw	1
  1924     030A  07A7               	addwf	sprintf@f,f
  1925     030B  30FF               	movlw	-1
  1926     030C  0727               	addwf	sprintf@f,w
  1927     030D  0084               	movwf	4
  1928     030E  120A  118A  271C  120A  118A  	fcall	stringdir
  1929     0313  00B7               	movwf	sprintf@c
  1930     0314  0837               	movf	sprintf@c,w
  1931     0315  1D03               	btfss	3,2
  1932     0316  2B18               	goto	u2311
  1933     0317  2B19               	goto	u2310
  1934     0318                     u2311:
  1935     0318  29D1               	goto	l2466
  1936     0319                     u2310:
  1937     0319                     l2548:
  1938                           
  1939                           ;C:\Program Files\Microchip\xc8\v2.41\pic\sources\c90\common\doprnt.c: 1564:  *sp = 0;
  1940     0319  0835               	movf	sprintf@sp,w
  1941     031A  0084               	movwf	4
  1942     031B  1383               	bcf	3,7	;select IRP bank0
  1943     031C  0180               	clrf	0
  1944     031D                     l375:
  1945     031D  0008               	return
  1946     031E                     __end_of_sprintf:
  1947                           
  1948                           	psect	text2
  1949     0FA5                     __ptext2:	
  1950 ;; *************** function _isdigit *****************
  1951 ;; Defined at:
  1952 ;;		line 8 in file "C:\Program Files\Microchip\xc8\v2.41\pic\sources\c90\common\isdigit.c"
  1953 ;; Parameters:    Size  Location     Type
  1954 ;;  c               1    wreg     unsigned char 
  1955 ;; Auto vars:     Size  Location     Type
  1956 ;;  c               1    4[COMMON] unsigned char 
  1957 ;; Return value:  Size  Location     Type
  1958 ;;		None               void
  1959 ;; Registers used:
  1960 ;;		wreg, status,2, status,0
  1961 ;; Tracked objects:
  1962 ;;		On entry : 0/0
  1963 ;;		On exit  : 0/0
  1964 ;;		Unchanged: 0/0
  1965 ;; Data sizes:     COMMON   BANK0   BANK1   BANK3   BANK2
  1966 ;;      Params:         0       0       0       0       0
  1967 ;;      Locals:         2       0       0       0       0
  1968 ;;      Temps:          0       0       0       0       0
  1969 ;;      Totals:         2       0       0       0       0
  1970 ;;Total ram usage:        2 bytes
  1971 ;; Hardware stack levels used: 1
  1972 ;; Hardware stack levels required when called: 1
  1973 ;; This function calls:
  1974 ;;		Nothing
  1975 ;; This function is called by:
  1976 ;;		_sprintf
  1977 ;; This function uses a non-reentrant model
  1978 ;;
  1979                           
  1980     0FA5                     _isdigit:	
  1981                           ;psect for function _isdigit
  1982                           
  1983                           
  1984                           ;incstack = 0
  1985                           ; Regs used in _isdigit: [wreg+status,2+status,0]
  1986                           ;isdigit@c stored from wreg
  1987     0FA5  00F4               	movwf	isdigit@c
  1988     0FA6                     l1718:
  1989     0FA6  01F3               	clrf	_isdigit$875
  1990     0FA7                     l1720:
  1991     0FA7  303A               	movlw	58
  1992     0FA8  0274               	subwf	isdigit@c,w
  1993     0FA9  1803               	skipnc
  1994     0FAA  2FAC               	goto	u1291
  1995     0FAB  2FAD               	goto	u1290
  1996     0FAC                     u1291:
  1997     0FAC  2FB5               	goto	l1726
  1998     0FAD                     u1290:
  1999     0FAD                     l1722:
  2000     0FAD  3030               	movlw	48
  2001     0FAE  0274               	subwf	isdigit@c,w
  2002     0FAF  1C03               	skipc
  2003     0FB0  2FB2               	goto	u1301
  2004     0FB1  2FB3               	goto	u1300
  2005     0FB2                     u1301:
  2006     0FB2  2FB5               	goto	l1726
  2007     0FB3                     u1300:
  2008     0FB3                     l1724:
  2009     0FB3  01F3               	clrf	_isdigit$875
  2010     0FB4  0AF3               	incf	_isdigit$875,f
  2011     0FB5                     l1726:
  2012     0FB5  0C73               	rrf	_isdigit$875,w
  2013     0FB6                     l832:
  2014     0FB6  0008               	return
  2015     0FB7                     __end_of_isdigit:
  2016                           
  2017                           	psect	text3
  2018     0632                     __ptext3:	
  2019 ;; *************** function ___lwmod *****************
  2020 ;; Defined at:
  2021 ;;		line 5 in file "C:\Program Files\Microchip\xc8\v2.41\pic\sources\c90\common\lwmod.c"
  2022 ;; Parameters:    Size  Location     Type
  2023 ;;  divisor         2    3[BANK0 ] unsigned int 
  2024 ;;  dividend        2    5[BANK0 ] unsigned int 
  2025 ;; Auto vars:     Size  Location     Type
  2026 ;;  counter         1    7[COMMON] unsigned char 
  2027 ;; Return value:  Size  Location     Type
  2028 ;;                  2    3[BANK0 ] unsigned int 
  2029 ;; Registers used:
  2030 ;;		wreg, status,2, status,0, btemp+1
  2031 ;; Tracked objects:
  2032 ;;		On entry : 0/0
  2033 ;;		On exit  : 0/0
  2034 ;;		Unchanged: 0/0
  2035 ;; Data sizes:     COMMON   BANK0   BANK1   BANK3   BANK2
  2036 ;;      Params:         0       4       0       0       0
  2037 ;;      Locals:         1       0       0       0       0
  2038 ;;      Temps:          0       0       0       0       0
  2039 ;;      Totals:         1       4       0       0       0
  2040 ;;Total ram usage:        5 bytes
  2041 ;; Hardware stack levels used: 1
  2042 ;; Hardware stack levels required when called: 1
  2043 ;; This function calls:
  2044 ;;		Nothing
  2045 ;; This function is called by:
  2046 ;;		_sprintf
  2047 ;; This function uses a non-reentrant model
  2048 ;;
  2049                           
  2050     0632                     ___lwmod:	
  2051                           ;psect for function ___lwmod
  2052                           
  2053     0632                     l1772:	
  2054                           ;incstack = 0
  2055                           ; Regs used in ___lwmod: [wreg+status,2+status,0+btemp+1]
  2056                           
  2057     0632  1283               	bcf	3,5	;RP0=0, select bank0
  2058     0633  1303               	bcf	3,6	;RP1=0, select bank0
  2059     0634  0823               	movf	___lwmod@divisor,w
  2060     0635  0424               	iorwf	___lwmod@divisor+1,w
  2061     0636  1903               	btfsc	3,2
  2062     0637  2E39               	goto	u1401
  2063     0638  2E3A               	goto	u1400
  2064     0639                     u1401:
  2065     0639  2E69               	goto	l1790
  2066     063A                     u1400:
  2067     063A                     l1774:
  2068     063A  01F7               	clrf	___lwmod@counter
  2069     063B  0AF7               	incf	___lwmod@counter,f
  2070     063C  2E48               	goto	l1780
  2071     063D                     l1776:
  2072     063D  3001               	movlw	1
  2073     063E                     u1415:
  2074     063E  1003               	clrc
  2075     063F  0DA3               	rlf	___lwmod@divisor,f
  2076     0640  0DA4               	rlf	___lwmod@divisor+1,f
  2077     0641  3EFF               	addlw	-1
  2078     0642  1D03               	skipz
  2079     0643  2E3E               	goto	u1415
  2080     0644                     l1778:
  2081     0644  3001               	movlw	1
  2082     0645  00FF               	movwf	btemp+1
  2083     0646  087F               	movf	btemp+1,w
  2084     0647  07F7               	addwf	___lwmod@counter,f
  2085     0648                     l1780:
  2086     0648  1FA4               	btfss	___lwmod@divisor+1,7
  2087     0649  2E4B               	goto	u1421
  2088     064A  2E4C               	goto	u1420
  2089     064B                     u1421:
  2090     064B  2E3D               	goto	l1776
  2091     064C                     u1420:
  2092     064C                     l1782:
  2093     064C  0824               	movf	___lwmod@divisor+1,w
  2094     064D  0226               	subwf	___lwmod@dividend+1,w
  2095     064E  1D03               	skipz
  2096     064F  2E52               	goto	u1435
  2097     0650  0823               	movf	___lwmod@divisor,w
  2098     0651  0225               	subwf	___lwmod@dividend,w
  2099     0652                     u1435:
  2100     0652  1C03               	skipc
  2101     0653  2E55               	goto	u1431
  2102     0654  2E56               	goto	u1430
  2103     0655                     u1431:
  2104     0655  2E5C               	goto	l1786
  2105     0656                     u1430:
  2106     0656                     l1784:
  2107     0656  0823               	movf	___lwmod@divisor,w
  2108     0657  02A5               	subwf	___lwmod@dividend,f
  2109     0658  0824               	movf	___lwmod@divisor+1,w
  2110     0659  1C03               	skipc
  2111     065A  03A6               	decf	___lwmod@dividend+1,f
  2112     065B  02A6               	subwf	___lwmod@dividend+1,f
  2113     065C                     l1786:
  2114     065C  3001               	movlw	1
  2115     065D                     u1445:
  2116     065D  1003               	clrc
  2117     065E  0CA4               	rrf	___lwmod@divisor+1,f
  2118     065F  0CA3               	rrf	___lwmod@divisor,f
  2119     0660  3EFF               	addlw	-1
  2120     0661  1D03               	skipz
  2121     0662  2E5D               	goto	u1445
  2122     0663                     l1788:
  2123     0663  3001               	movlw	1
  2124     0664  02F7               	subwf	___lwmod@counter,f
  2125     0665  1D03               	btfss	3,2
  2126     0666  2E68               	goto	u1451
  2127     0667  2E69               	goto	u1450
  2128     0668                     u1451:
  2129     0668  2E4C               	goto	l1782
  2130     0669                     u1450:
  2131     0669                     l1790:
  2132     0669  0826               	movf	___lwmod@dividend+1,w
  2133     066A  00A4               	movwf	?___lwmod+1
  2134     066B  0825               	movf	___lwmod@dividend,w
  2135     066C  00A3               	movwf	?___lwmod
  2136     066D                     l661:
  2137     066D  0008               	return
  2138     066E                     __end_of___lwmod:
  2139                           
  2140                           	psect	text4
  2141     05AE                     __ptext4:	
  2142 ;; *************** function ___lwdiv *****************
  2143 ;; Defined at:
  2144 ;;		line 5 in file "C:\Program Files\Microchip\xc8\v2.41\pic\sources\c90\common\lwdiv.c"
  2145 ;; Parameters:    Size  Location     Type
  2146 ;;  divisor         2    3[COMMON] unsigned int 
  2147 ;;  dividend        2    5[COMMON] unsigned int 
  2148 ;; Auto vars:     Size  Location     Type
  2149 ;;  quotient        2    1[BANK0 ] unsigned int 
  2150 ;;  counter         1    0[BANK0 ] unsigned char 
  2151 ;; Return value:  Size  Location     Type
  2152 ;;                  2    3[COMMON] unsigned int 
  2153 ;; Registers used:
  2154 ;;		wreg, status,2, status,0, btemp+1
  2155 ;; Tracked objects:
  2156 ;;		On entry : 0/0
  2157 ;;		On exit  : 0/0
  2158 ;;		Unchanged: 0/0
  2159 ;; Data sizes:     COMMON   BANK0   BANK1   BANK3   BANK2
  2160 ;;      Params:         4       0       0       0       0
  2161 ;;      Locals:         0       3       0       0       0
  2162 ;;      Temps:          0       0       0       0       0
  2163 ;;      Totals:         4       3       0       0       0
  2164 ;;Total ram usage:        7 bytes
  2165 ;; Hardware stack levels used: 1
  2166 ;; Hardware stack levels required when called: 1
  2167 ;; This function calls:
  2168 ;;		Nothing
  2169 ;; This function is called by:
  2170 ;;		_sprintf
  2171 ;; This function uses a non-reentrant model
  2172 ;;
  2173                           
  2174     05AE                     ___lwdiv:	
  2175                           ;psect for function ___lwdiv
  2176                           
  2177     05AE                     l2320:	
  2178                           ;incstack = 0
  2179                           ; Regs used in ___lwdiv: [wreg+status,2+status,0+btemp+1]
  2180                           
  2181     05AE  1283               	bcf	3,5	;RP0=0, select bank0
  2182     05AF  1303               	bcf	3,6	;RP1=0, select bank0
  2183     05B0  01A1               	clrf	___lwdiv@quotient
  2184     05B1  01A2               	clrf	___lwdiv@quotient+1
  2185     05B2                     l2322:
  2186     05B2  0873               	movf	___lwdiv@divisor,w
  2187     05B3  0474               	iorwf	___lwdiv@divisor+1,w
  2188     05B4  1903               	btfsc	3,2
  2189     05B5  2DB7               	goto	u2071
  2190     05B6  2DB8               	goto	u2070
  2191     05B7                     u2071:
  2192     05B7  2DEF               	goto	l2342
  2193     05B8                     u2070:
  2194     05B8                     l2324:
  2195     05B8  01A0               	clrf	___lwdiv@counter
  2196     05B9  0AA0               	incf	___lwdiv@counter,f
  2197     05BA  2DC6               	goto	l2330
  2198     05BB                     l2326:
  2199     05BB  3001               	movlw	1
  2200     05BC                     u2085:
  2201     05BC  1003               	clrc
  2202     05BD  0DF3               	rlf	___lwdiv@divisor,f
  2203     05BE  0DF4               	rlf	___lwdiv@divisor+1,f
  2204     05BF  3EFF               	addlw	-1
  2205     05C0  1D03               	skipz
  2206     05C1  2DBC               	goto	u2085
  2207     05C2                     l2328:
  2208     05C2  3001               	movlw	1
  2209     05C3  00FF               	movwf	btemp+1
  2210     05C4  087F               	movf	btemp+1,w
  2211     05C5  07A0               	addwf	___lwdiv@counter,f
  2212     05C6                     l2330:
  2213     05C6  1FF4               	btfss	___lwdiv@divisor+1,7
  2214     05C7  2DC9               	goto	u2091
  2215     05C8  2DCA               	goto	u2090
  2216     05C9                     u2091:
  2217     05C9  2DBB               	goto	l2326
  2218     05CA                     u2090:
  2219     05CA                     l2332:
  2220     05CA  3001               	movlw	1
  2221     05CB                     u2105:
  2222     05CB  1003               	clrc
  2223     05CC  0DA1               	rlf	___lwdiv@quotient,f
  2224     05CD  0DA2               	rlf	___lwdiv@quotient+1,f
  2225     05CE  3EFF               	addlw	-1
  2226     05CF  1D03               	skipz
  2227     05D0  2DCB               	goto	u2105
  2228     05D1  0874               	movf	___lwdiv@divisor+1,w
  2229     05D2  0276               	subwf	___lwdiv@dividend+1,w
  2230     05D3  1D03               	skipz
  2231     05D4  2DD7               	goto	u2115
  2232     05D5  0873               	movf	___lwdiv@divisor,w
  2233     05D6  0275               	subwf	___lwdiv@dividend,w
  2234     05D7                     u2115:
  2235     05D7  1C03               	skipc
  2236     05D8  2DDA               	goto	u2111
  2237     05D9  2DDB               	goto	u2110
  2238     05DA                     u2111:
  2239     05DA  2DE2               	goto	l2338
  2240     05DB                     u2110:
  2241     05DB                     l2334:
  2242     05DB  0873               	movf	___lwdiv@divisor,w
  2243     05DC  02F5               	subwf	___lwdiv@dividend,f
  2244     05DD  0874               	movf	___lwdiv@divisor+1,w
  2245     05DE  1C03               	skipc
  2246     05DF  03F6               	decf	___lwdiv@dividend+1,f
  2247     05E0  02F6               	subwf	___lwdiv@dividend+1,f
  2248     05E1                     l2336:
  2249     05E1  1421               	bsf	___lwdiv@quotient,0
  2250     05E2                     l2338:
  2251     05E2  3001               	movlw	1
  2252     05E3                     u2125:
  2253     05E3  1003               	clrc
  2254     05E4  0CF4               	rrf	___lwdiv@divisor+1,f
  2255     05E5  0CF3               	rrf	___lwdiv@divisor,f
  2256     05E6  3EFF               	addlw	-1
  2257     05E7  1D03               	skipz
  2258     05E8  2DE3               	goto	u2125
  2259     05E9                     l2340:
  2260     05E9  3001               	movlw	1
  2261     05EA  02A0               	subwf	___lwdiv@counter,f
  2262     05EB  1D03               	btfss	3,2
  2263     05EC  2DEE               	goto	u2131
  2264     05ED  2DEF               	goto	u2130
  2265     05EE                     u2131:
  2266     05EE  2DCA               	goto	l2332
  2267     05EF                     u2130:
  2268     05EF                     l2342:
  2269     05EF  0822               	movf	___lwdiv@quotient+1,w
  2270     05F0  00F4               	movwf	?___lwdiv+1
  2271     05F1  0821               	movf	___lwdiv@quotient,w
  2272     05F2  00F3               	movwf	?___lwdiv
  2273     05F3                     l651:
  2274     05F3  0008               	return
  2275     05F4                     __end_of___lwdiv:
  2276                           
  2277                           	psect	text5
  2278     066E                     __ptext5:	
  2279 ;; *************** function _setup *****************
  2280 ;; Defined at:
  2281 ;;		line 172 in file "E:/Universidad/Semestre2_2023/Digital-2/Lab4/Lab4_Master.X/Lab4_Master.c"
  2282 ;; Parameters:    Size  Location     Type
  2283 ;;		None
  2284 ;; Auto vars:     Size  Location     Type
  2285 ;;		None
  2286 ;; Return value:  Size  Location     Type
  2287 ;;                  1    wreg      void 
  2288 ;; Registers used:
  2289 ;;		wreg, status,2, status,0, btemp+1, pclath, cstack
  2290 ;; Tracked objects:
  2291 ;;		On entry : 0/0
  2292 ;;		On exit  : 0/0
  2293 ;;		Unchanged: 0/0
  2294 ;; Data sizes:     COMMON   BANK0   BANK1   BANK3   BANK2
  2295 ;;      Params:         0       0       0       0       0
  2296 ;;      Locals:         0       0       0       0       0
  2297 ;;      Temps:          0       0       0       0       0
  2298 ;;      Totals:         0       0       0       0       0
  2299 ;;Total ram usage:        0 bytes
  2300 ;; Hardware stack levels used: 1
  2301 ;; Hardware stack levels required when called: 4
  2302 ;; This function calls:
  2303 ;;		_I2C_Master_Init
  2304 ;;		_Lcd_Init
  2305 ;;		_configOsc
  2306 ;; This function is called by:
  2307 ;;		_main
  2308 ;; This function uses a non-reentrant model
  2309 ;;
  2310                           
  2311     066E                     _setup:	
  2312                           ;psect for function _setup
  2313                           
  2314     066E                     l2388:	
  2315                           ;incstack = 0
  2316                           ; Regs used in _setup: [wreg+status,2+status,0+btemp+1+pclath+cstack]
  2317                           
  2318                           
  2319                           ;E:/Universidad/Semestre2_2023/Digital-2/Lab4/Lab4_Master.X/Lab4_Master.c: 173:     conf
      +                          igOsc(8);
  2320     066E  3008               	movlw	8
  2321     066F  00F3               	movwf	configOsc@frec
  2322     0670  3000               	movlw	0
  2323     0671  00F4               	movwf	configOsc@frec+1
  2324     0672  120A  118A  24A1  120A  118A  	fcall	_configOsc
  2325     0677                     l2390:
  2326                           
  2327                           ;E:/Universidad/Semestre2_2023/Digital-2/Lab4/Lab4_Master.X/Lab4_Master.c: 174:     ANSE
      +                          L = 0;
  2328     0677  1683               	bsf	3,5	;RP0=1, select bank3
  2329     0678  1703               	bsf	3,6	;RP1=1, select bank3
  2330     0679  0188               	clrf	8	;volatile
  2331     067A                     l2392:
  2332                           
  2333                           ;E:/Universidad/Semestre2_2023/Digital-2/Lab4/Lab4_Master.X/Lab4_Master.c: 175:     ANSE
      +                          LH = 0;
  2334     067A  0189               	clrf	9	;volatile
  2335     067B                     l2394:
  2336                           
  2337                           ;E:/Universidad/Semestre2_2023/Digital-2/Lab4/Lab4_Master.X/Lab4_Master.c: 177:     TRIS
      +                          A = 0;
  2338     067B  1683               	bsf	3,5	;RP0=1, select bank1
  2339     067C  1303               	bcf	3,6	;RP1=0, select bank1
  2340     067D  0185               	clrf	5	;volatile
  2341     067E                     l2396:
  2342                           
  2343                           ;E:/Universidad/Semestre2_2023/Digital-2/Lab4/Lab4_Master.X/Lab4_Master.c: 179:     TRIS
      +                          B = 0b00000111;
  2344     067E  3007               	movlw	7
  2345     067F  0086               	movwf	6	;volatile
  2346     0680                     l2398:
  2347                           
  2348                           ;E:/Universidad/Semestre2_2023/Digital-2/Lab4/Lab4_Master.X/Lab4_Master.c: 180:     TRIS
      +                          C = 128;
  2349     0680  3080               	movlw	128
  2350     0681  0087               	movwf	7	;volatile
  2351     0682                     l2400:
  2352                           
  2353                           ;E:/Universidad/Semestre2_2023/Digital-2/Lab4/Lab4_Master.X/Lab4_Master.c: 181:     TRIS
      +                          D = 0;
  2354     0682  0188               	clrf	8	;volatile
  2355     0683                     l2402:
  2356                           
  2357                           ;E:/Universidad/Semestre2_2023/Digital-2/Lab4/Lab4_Master.X/Lab4_Master.c: 183:     PORT
      +                          A = 0;
  2358     0683  1283               	bcf	3,5	;RP0=0, select bank0
  2359     0684  1303               	bcf	3,6	;RP1=0, select bank0
  2360     0685  0185               	clrf	5	;volatile
  2361     0686                     l2404:
  2362                           
  2363                           ;E:/Universidad/Semestre2_2023/Digital-2/Lab4/Lab4_Master.X/Lab4_Master.c: 184:     PORT
      +                          B = 0;
  2364     0686  0186               	clrf	6	;volatile
  2365     0687                     l2406:
  2366                           
  2367                           ;E:/Universidad/Semestre2_2023/Digital-2/Lab4/Lab4_Master.X/Lab4_Master.c: 185:     PORT
      +                          C = 0;
  2368     0687  0187               	clrf	7	;volatile
  2369     0688                     l2408:
  2370                           
  2371                           ;E:/Universidad/Semestre2_2023/Digital-2/Lab4/Lab4_Master.X/Lab4_Master.c: 186:     PORT
      +                          D = 0;
  2372     0688  0188               	clrf	8	;volatile
  2373     0689                     l2410:
  2374                           
  2375                           ;E:/Universidad/Semestre2_2023/Digital-2/Lab4/Lab4_Master.X/Lab4_Master.c: 187:     I2C_
      +                          Master_Init(100000);
  2376     0689  3000               	movlw	0
  2377     068A  00B0               	movwf	I2C_Master_Init@c+3
  2378     068B  3001               	movlw	1
  2379     068C  00AF               	movwf	I2C_Master_Init@c+2
  2380     068D  3086               	movlw	134
  2381     068E  00AE               	movwf	I2C_Master_Init@c+1
  2382     068F  30A0               	movlw	160
  2383     0690  00AD               	movwf	I2C_Master_Init@c
  2384     0691  120A  118A  26A9  120A  118A  	fcall	_I2C_Master_Init
  2385     0696                     l2412:
  2386                           
  2387                           ;E:/Universidad/Semestre2_2023/Digital-2/Lab4/Lab4_Master.X/Lab4_Master.c: 188:     Lcd_
      +                          Init();
  2388     0696  120A  118A  2558  120A  118A  	fcall	_Lcd_Init
  2389     069B                     l2414:
  2390                           
  2391                           ;E:/Universidad/Semestre2_2023/Digital-2/Lab4/Lab4_Master.X/Lab4_Master.c: 190:     INTC
      +                          ONbits.GIE = 1;
  2392     069B  178B               	bsf	11,7	;volatile
  2393     069C                     l2416:
  2394                           
  2395                           ;E:/Universidad/Semestre2_2023/Digital-2/Lab4/Lab4_Master.X/Lab4_Master.c: 191:     INTC
      +                          ONbits.PEIE = 1;
  2396     069C  170B               	bsf	11,6	;volatile
  2397     069D                     l2418:
  2398                           
  2399                           ;E:/Universidad/Semestre2_2023/Digital-2/Lab4/Lab4_Master.X/Lab4_Master.c: 192:     INTC
      +                          ONbits.RBIF = 0;
  2400     069D  100B               	bcf	11,0	;volatile
  2401     069E                     l2420:
  2402                           
  2403                           ;E:/Universidad/Semestre2_2023/Digital-2/Lab4/Lab4_Master.X/Lab4_Master.c: 193:     INTC
      +                          ONbits.RBIE = 1;
  2404     069E  158B               	bsf	11,3	;volatile
  2405     069F                     l2422:
  2406                           
  2407                           ;E:/Universidad/Semestre2_2023/Digital-2/Lab4/Lab4_Master.X/Lab4_Master.c: 196:     IOCB
      +                          bits.IOCB0 = 1;
  2408     069F  1683               	bsf	3,5	;RP0=1, select bank1
  2409     06A0  1303               	bcf	3,6	;RP1=0, select bank1
  2410     06A1  1416               	bsf	22,0	;volatile
  2411     06A2                     l2424:
  2412                           
  2413                           ;E:/Universidad/Semestre2_2023/Digital-2/Lab4/Lab4_Master.X/Lab4_Master.c: 197:     IOCB
      +                          bits.IOCB1 = 1;
  2414     06A2  1496               	bsf	22,1	;volatile
  2415     06A3                     l2426:
  2416                           
  2417                           ;E:/Universidad/Semestre2_2023/Digital-2/Lab4/Lab4_Master.X/Lab4_Master.c: 198:     IOCB
      +                          bits.IOCB2 = 1;
  2418     06A3  1516               	bsf	22,2	;volatile
  2419     06A4                     l2428:
  2420                           
  2421                           ;E:/Universidad/Semestre2_2023/Digital-2/Lab4/Lab4_Master.X/Lab4_Master.c: 200:     OPTI
      +                          ON_REGbits.nRBPU = 0;
  2422     06A4  1381               	bcf	1,7	;volatile
  2423     06A5                     l2430:
  2424                           
  2425                           ;E:/Universidad/Semestre2_2023/Digital-2/Lab4/Lab4_Master.X/Lab4_Master.c: 202:     WPUB
      +                          bits.WPUB0 = 1;
  2426     06A5  1415               	bsf	21,0	;volatile
  2427     06A6                     l2432:
  2428                           
  2429                           ;E:/Universidad/Semestre2_2023/Digital-2/Lab4/Lab4_Master.X/Lab4_Master.c: 203:     WPUB
      +                          bits.WPUB1 = 1;
  2430     06A6  1495               	bsf	21,1	;volatile
  2431     06A7                     l2434:
  2432                           
  2433                           ;E:/Universidad/Semestre2_2023/Digital-2/Lab4/Lab4_Master.X/Lab4_Master.c: 204:     WPUB
      +                          bits.WPUB2 = 1;
  2434     06A7  1515               	bsf	21,2	;volatile
  2435     06A8                     l245:
  2436     06A8  0008               	return
  2437     06A9                     __end_of_setup:
  2438                           
  2439                           	psect	text6
  2440     04A1                     __ptext6:	
  2441 ;; *************** function _configOsc *****************
  2442 ;; Defined at:
  2443 ;;		line 4 in file "oscillator.c"
  2444 ;; Parameters:    Size  Location     Type
  2445 ;;  frec            2    3[COMMON] unsigned int 
  2446 ;; Auto vars:     Size  Location     Type
  2447 ;;		None
  2448 ;; Return value:  Size  Location     Type
  2449 ;;                  1    wreg      void 
  2450 ;; Registers used:
  2451 ;;		wreg, status,2, status,0
  2452 ;; Tracked objects:
  2453 ;;		On entry : 0/0
  2454 ;;		On exit  : 0/0
  2455 ;;		Unchanged: 0/0
  2456 ;; Data sizes:     COMMON   BANK0   BANK1   BANK3   BANK2
  2457 ;;      Params:         2       0       0       0       0
  2458 ;;      Locals:         0       0       0       0       0
  2459 ;;      Temps:          0       0       0       0       0
  2460 ;;      Totals:         2       0       0       0       0
  2461 ;;Total ram usage:        2 bytes
  2462 ;; Hardware stack levels used: 1
  2463 ;; Hardware stack levels required when called: 1
  2464 ;; This function calls:
  2465 ;;		Nothing
  2466 ;; This function is called by:
  2467 ;;		_setup
  2468 ;; This function uses a non-reentrant model
  2469 ;;
  2470                           
  2471     04A1                     _configOsc:	
  2472                           ;psect for function _configOsc
  2473                           
  2474     04A1                     l1668:	
  2475                           ;incstack = 0
  2476                           ; Regs used in _configOsc: [wreg+status,2+status,0]
  2477                           
  2478                           
  2479                           ;oscillator.c: 5:         if (frec == 8) OSCCONbits.IRCF = 0b111;
  2480     04A1  3008               	movlw	8
  2481     04A2  0673               	xorwf	configOsc@frec,w
  2482     04A3  0474               	iorwf	configOsc@frec+1,w
  2483     04A4  1D03               	btfss	3,2
  2484     04A5  2CA7               	goto	u1201
  2485     04A6  2CA8               	goto	u1200
  2486     04A7                     u1201:
  2487     04A7  2CAC               	goto	l78
  2488     04A8                     u1200:
  2489     04A8                     l1670:
  2490     04A8  3070               	movlw	112
  2491     04A9  1683               	bsf	3,5	;RP0=1, select bank1
  2492     04AA  1303               	bcf	3,6	;RP1=0, select bank1
  2493     04AB  048F               	iorwf	15,f	;volatile
  2494     04AC                     l78:
  2495                           
  2496                           ;oscillator.c: 6:         if (frec == 4) OSCCONbits.IRCF = 0b110;
  2497     04AC  3004               	movlw	4
  2498     04AD  0673               	xorwf	configOsc@frec,w
  2499     04AE  0474               	iorwf	configOsc@frec+1,w
  2500     04AF  1D03               	btfss	3,2
  2501     04B0  2CB2               	goto	u1211
  2502     04B1  2CB3               	goto	u1210
  2503     04B2                     u1211:
  2504     04B2  2CB9               	goto	l79
  2505     04B3                     u1210:
  2506     04B3                     l1672:
  2507     04B3  1683               	bsf	3,5	;RP0=1, select bank1
  2508     04B4  1303               	bcf	3,6	;RP1=0, select bank1
  2509     04B5  080F               	movf	15,w	;volatile
  2510     04B6  398F               	andlw	-113
  2511     04B7  3860               	iorlw	96
  2512     04B8  008F               	movwf	15	;volatile
  2513     04B9                     l79:
  2514                           
  2515                           ;oscillator.c: 7:         if (frec == 1) OSCCONbits.IRCF = 0b100;
  2516     04B9  0373               	decf	configOsc@frec,w
  2517     04BA  0474               	iorwf	configOsc@frec+1,w
  2518     04BB  1D03               	btfss	3,2
  2519     04BC  2CBE               	goto	u1221
  2520     04BD  2CBF               	goto	u1220
  2521     04BE                     u1221:
  2522     04BE  2CC5               	goto	l80
  2523     04BF                     u1220:
  2524     04BF                     l1674:
  2525     04BF  1683               	bsf	3,5	;RP0=1, select bank1
  2526     04C0  1303               	bcf	3,6	;RP1=0, select bank1
  2527     04C1  080F               	movf	15,w	;volatile
  2528     04C2  398F               	andlw	-113
  2529     04C3  3840               	iorlw	64
  2530     04C4  008F               	movwf	15	;volatile
  2531     04C5                     l80:
  2532                           
  2533                           ;oscillator.c: 8:         if (frec == 500) OSCCONbits.IRCF = 0b011;
  2534     04C5  30F4               	movlw	244
  2535     04C6  0673               	xorwf	configOsc@frec,w
  2536     04C7  1D03               	skipz
  2537     04C8  2CCD               	goto	u1231
  2538     04C9  0374               	decf	configOsc@frec+1,w
  2539     04CA  1D03               	btfss	3,2
  2540     04CB  2CCD               	goto	u1231
  2541     04CC  2CCE               	goto	u1230
  2542     04CD                     u1231:
  2543     04CD  2CD4               	goto	l81
  2544     04CE                     u1230:
  2545     04CE                     l1676:
  2546     04CE  1683               	bsf	3,5	;RP0=1, select bank1
  2547     04CF  1303               	bcf	3,6	;RP1=0, select bank1
  2548     04D0  080F               	movf	15,w	;volatile
  2549     04D1  398F               	andlw	-113
  2550     04D2  3830               	iorlw	48
  2551     04D3  008F               	movwf	15	;volatile
  2552     04D4                     l81:
  2553                           
  2554                           ;oscillator.c: 9:         if (frec == 250) OSCCONbits.IRCF = 0b101;
  2555     04D4  30FA               	movlw	250
  2556     04D5  0673               	xorwf	configOsc@frec,w
  2557     04D6  0474               	iorwf	configOsc@frec+1,w
  2558     04D7  1D03               	btfss	3,2
  2559     04D8  2CDA               	goto	u1241
  2560     04D9  2CDB               	goto	u1240
  2561     04DA                     u1241:
  2562     04DA  2CE1               	goto	l82
  2563     04DB                     u1240:
  2564     04DB                     l1678:
  2565     04DB  1683               	bsf	3,5	;RP0=1, select bank1
  2566     04DC  1303               	bcf	3,6	;RP1=0, select bank1
  2567     04DD  080F               	movf	15,w	;volatile
  2568     04DE  398F               	andlw	-113
  2569     04DF  3850               	iorlw	80
  2570     04E0  008F               	movwf	15	;volatile
  2571     04E1                     l82:
  2572                           
  2573                           ;oscillator.c: 10:         if (frec == 125) OSCCONbits.IRCF = 0b001;
  2574     04E1  307D               	movlw	125
  2575     04E2  0673               	xorwf	configOsc@frec,w
  2576     04E3  0474               	iorwf	configOsc@frec+1,w
  2577     04E4  1D03               	btfss	3,2
  2578     04E5  2CE7               	goto	u1251
  2579     04E6  2CE8               	goto	u1250
  2580     04E7                     u1251:
  2581     04E7  2CEE               	goto	l83
  2582     04E8                     u1250:
  2583     04E8                     l1680:
  2584     04E8  1683               	bsf	3,5	;RP0=1, select bank1
  2585     04E9  1303               	bcf	3,6	;RP1=0, select bank1
  2586     04EA  080F               	movf	15,w	;volatile
  2587     04EB  398F               	andlw	-113
  2588     04EC  3810               	iorlw	16
  2589     04ED  008F               	movwf	15	;volatile
  2590     04EE                     l83:
  2591                           
  2592                           ;oscillator.c: 11:         if (frec == 31) OSCCONbits.IRCF = 0b000;
  2593     04EE  301F               	movlw	31
  2594     04EF  0673               	xorwf	configOsc@frec,w
  2595     04F0  0474               	iorwf	configOsc@frec+1,w
  2596     04F1  1D03               	btfss	3,2
  2597     04F2  2CF4               	goto	u1261
  2598     04F3  2CF5               	goto	u1260
  2599     04F4                     u1261:
  2600     04F4  2CF9               	goto	l1684
  2601     04F5                     u1260:
  2602     04F5                     l1682:
  2603     04F5  308F               	movlw	-113
  2604     04F6  1683               	bsf	3,5	;RP0=1, select bank1
  2605     04F7  1303               	bcf	3,6	;RP1=0, select bank1
  2606     04F8  058F               	andwf	15,f	;volatile
  2607     04F9                     l1684:
  2608                           
  2609                           ;oscillator.c: 12:         OSCCONbits.SCS = 1;
  2610     04F9  1683               	bsf	3,5	;RP0=1, select bank1
  2611     04FA  1303               	bcf	3,6	;RP1=0, select bank1
  2612     04FB  140F               	bsf	15,0	;volatile
  2613     04FC                     l85:
  2614     04FC  0008               	return
  2615     04FD                     __end_of_configOsc:
  2616                           
  2617                           	psect	text7
  2618     0558                     __ptext7:	
  2619 ;; *************** function _Lcd_Init *****************
  2620 ;; Defined at:
  2621 ;;		line 80 in file "lcd.c"
  2622 ;; Parameters:    Size  Location     Type
  2623 ;;		None
  2624 ;; Auto vars:     Size  Location     Type
  2625 ;;		None
  2626 ;; Return value:  Size  Location     Type
  2627 ;;                  1    wreg      void 
  2628 ;; Registers used:
  2629 ;;		wreg, status,2, status,0, pclath, cstack
  2630 ;; Tracked objects:
  2631 ;;		On entry : 0/0
  2632 ;;		On exit  : 0/0
  2633 ;;		Unchanged: 0/0
  2634 ;; Data sizes:     COMMON   BANK0   BANK1   BANK3   BANK2
  2635 ;;      Params:         0       0       0       0       0
  2636 ;;      Locals:         0       0       0       0       0
  2637 ;;      Temps:          0       2       0       0       0
  2638 ;;      Totals:         0       2       0       0       0
  2639 ;;Total ram usage:        2 bytes
  2640 ;; Hardware stack levels used: 1
  2641 ;; Hardware stack levels required when called: 3
  2642 ;; This function calls:
  2643 ;;		_Lcd_Cmd
  2644 ;;		_Lcd_Port
  2645 ;; This function is called by:
  2646 ;;		_setup
  2647 ;; This function uses a non-reentrant model
  2648 ;;
  2649                           
  2650     0558                     _Lcd_Init:	
  2651                           ;psect for function _Lcd_Init
  2652                           
  2653     0558                     l2252:	
  2654                           ;incstack = 0
  2655                           ; Regs used in _Lcd_Init: [wreg+status,2+status,0+pclath+cstack]
  2656                           
  2657                           
  2658                           ;lcd.c: 81:     Lcd_Port(0);
  2659     0558  3000               	movlw	0
  2660     0559  120A  118A  25F4  120A  118A  	fcall	_Lcd_Port
  2661     055E                     l2254:
  2662                           
  2663                           ;lcd.c: 82:     _delay((unsigned long)((20)*(8000000/4000.0)));
  2664     055E  3034               	movlw	52
  2665     055F  1283               	bcf	3,5	;RP0=0, select bank0
  2666     0560  1303               	bcf	3,6	;RP1=0, select bank0
  2667     0561  00A1               	movwf	??_Lcd_Init+1
  2668     0562  30F1               	movlw	241
  2669     0563  00A0               	movwf	??_Lcd_Init
  2670     0564                     u2357:
  2671     0564  0BA0               	decfsz	??_Lcd_Init,f
  2672     0565  2D64               	goto	u2357
  2673     0566  0BA1               	decfsz	??_Lcd_Init+1,f
  2674     0567  2D64               	goto	u2357
  2675     0568                     l2256:
  2676                           
  2677                           ;lcd.c: 83:     Lcd_Cmd(48);
  2678     0568  3030               	movlw	48
  2679     0569  120A  118A  27E6  120A  118A  	fcall	_Lcd_Cmd
  2680                           
  2681                           ;lcd.c: 84:     _delay((unsigned long)((5)*(8000000/4000.0)));
  2682     056E  300D               	movlw	13
  2683     056F  1283               	bcf	3,5	;RP0=0, select bank0
  2684     0570  1303               	bcf	3,6	;RP1=0, select bank0
  2685     0571  00A1               	movwf	??_Lcd_Init+1
  2686     0572  30FB               	movlw	251
  2687     0573  00A0               	movwf	??_Lcd_Init
  2688     0574                     u2367:
  2689     0574  0BA0               	decfsz	??_Lcd_Init,f
  2690     0575  2D74               	goto	u2367
  2691     0576  0BA1               	decfsz	??_Lcd_Init+1,f
  2692     0577  2D74               	goto	u2367
  2693     0578                     l2258:
  2694                           
  2695                           ;lcd.c: 85:     Lcd_Cmd(48);
  2696     0578  3030               	movlw	48
  2697     0579  120A  118A  27E6  120A  118A  	fcall	_Lcd_Cmd
  2698     057E                     l2260:
  2699                           
  2700                           ;lcd.c: 86:     _delay((unsigned long)((11)*(8000000/4000.0)));
  2701     057E  301D               	movlw	29
  2702     057F  1283               	bcf	3,5	;RP0=0, select bank0
  2703     0580  1303               	bcf	3,6	;RP1=0, select bank0
  2704     0581  00A1               	movwf	??_Lcd_Init+1
  2705     0582  3090               	movlw	144
  2706     0583  00A0               	movwf	??_Lcd_Init
  2707     0584                     u2377:
  2708     0584  0BA0               	decfsz	??_Lcd_Init,f
  2709     0585  2D84               	goto	u2377
  2710     0586  0BA1               	decfsz	??_Lcd_Init+1,f
  2711     0587  2D84               	goto	u2377
  2712     0588  0000               	nop
  2713                           
  2714                           ;lcd.c: 87:     Lcd_Cmd(48);
  2715     0589  3030               	movlw	48
  2716     058A  120A  118A  27E6  120A  118A  	fcall	_Lcd_Cmd
  2717                           
  2718                           ;lcd.c: 89:     Lcd_Cmd(56);
  2719     058F  3038               	movlw	56
  2720     0590  120A  118A  27E6  120A  118A  	fcall	_Lcd_Cmd
  2721                           
  2722                           ;lcd.c: 90:     Lcd_Cmd(8);
  2723     0595  3008               	movlw	8
  2724     0596  120A  118A  27E6  120A  118A  	fcall	_Lcd_Cmd
  2725                           
  2726                           ;lcd.c: 91:     Lcd_Cmd(1);
  2727     059B  3001               	movlw	1
  2728     059C  120A  118A  27E6  120A  118A  	fcall	_Lcd_Cmd
  2729                           
  2730                           ;lcd.c: 92:     Lcd_Cmd(6);
  2731     05A1  3006               	movlw	6
  2732     05A2  120A  118A  27E6  120A  118A  	fcall	_Lcd_Cmd
  2733                           
  2734                           ;lcd.c: 93:     Lcd_Cmd(12);
  2735     05A7  300C               	movlw	12
  2736     05A8  120A  118A  27E6  120A  118A  	fcall	_Lcd_Cmd
  2737     05AD                     l58:
  2738     05AD  0008               	return
  2739     05AE                     __end_of_Lcd_Init:
  2740                           
  2741                           	psect	text8
  2742     06A9                     __ptext8:	
  2743 ;; *************** function _I2C_Master_Init *****************
  2744 ;; Defined at:
  2745 ;;		line 16 in file "I2C.c"
  2746 ;; Parameters:    Size  Location     Type
  2747 ;;  c               4   13[BANK0 ] const unsigned long 
  2748 ;; Auto vars:     Size  Location     Type
  2749 ;;		None
  2750 ;; Return value:  Size  Location     Type
  2751 ;;                  1    wreg      void 
  2752 ;; Registers used:
  2753 ;;		wreg, status,2, status,0, btemp+1, pclath, cstack
  2754 ;; Tracked objects:
  2755 ;;		On entry : 0/0
  2756 ;;		On exit  : 0/0
  2757 ;;		Unchanged: 0/0
  2758 ;; Data sizes:     COMMON   BANK0   BANK1   BANK3   BANK2
  2759 ;;      Params:         0       4       0       0       0
  2760 ;;      Locals:         0       0       0       0       0
  2761 ;;      Temps:          4       0       0       0       0
  2762 ;;      Totals:         4       4       0       0       0
  2763 ;;Total ram usage:        8 bytes
  2764 ;; Hardware stack levels used: 1
  2765 ;; Hardware stack levels required when called: 2
  2766 ;; This function calls:
  2767 ;;		___lldiv
  2768 ;; This function is called by:
  2769 ;;		_setup
  2770 ;; This function uses a non-reentrant model
  2771 ;;
  2772                           
  2773     06A9                     _I2C_Master_Init:	
  2774                           ;psect for function _I2C_Master_Init
  2775                           
  2776     06A9                     l2272:	
  2777                           ;incstack = 0
  2778                           ; Regs used in _I2C_Master_Init: [wreg+status,2+status,0+btemp+1+pclath+cstack]
  2779                           
  2780                           
  2781                           ;I2C.c: 16: void I2C_Master_Init(const unsigned long c);I2C.c: 17: {;I2C.c: 18:     SSPC
      +                          ON = 0b00101000;
  2782     06A9  3028               	movlw	40
  2783     06AA  1283               	bcf	3,5	;RP0=0, select bank0
  2784     06AB  1303               	bcf	3,6	;RP1=0, select bank0
  2785     06AC  0094               	movwf	20	;volatile
  2786     06AD                     l2274:
  2787                           
  2788                           ;I2C.c: 19:     SSPCON2 = 0;
  2789     06AD  1683               	bsf	3,5	;RP0=1, select bank1
  2790     06AE  1303               	bcf	3,6	;RP1=0, select bank1
  2791     06AF  0191               	clrf	17	;volatile
  2792     06B0                     l2276:
  2793                           
  2794                           ;I2C.c: 20:     SSPADD = (8000000/(4*c))-1;
  2795     06B0  1283               	bcf	3,5	;RP0=0, select bank0
  2796     06B1  1303               	bcf	3,6	;RP1=0, select bank0
  2797     06B2  082D               	movf	I2C_Master_Init@c,w
  2798     06B3  00F4               	movwf	??_I2C_Master_Init
  2799     06B4  082E               	movf	I2C_Master_Init@c+1,w
  2800     06B5  00F5               	movwf	??_I2C_Master_Init+1
  2801     06B6  082F               	movf	I2C_Master_Init@c+2,w
  2802     06B7  00F6               	movwf	??_I2C_Master_Init+2
  2803     06B8  0830               	movf	I2C_Master_Init@c+3,w
  2804     06B9  00F7               	movwf	??_I2C_Master_Init+3
  2805     06BA  3002               	movlw	2
  2806     06BB                     u2035:
  2807     06BB  1003               	clrc
  2808     06BC  0DF4               	rlf	??_I2C_Master_Init,f
  2809     06BD  0DF5               	rlf	??_I2C_Master_Init+1,f
  2810     06BE  0DF6               	rlf	??_I2C_Master_Init+2,f
  2811     06BF  0DF7               	rlf	??_I2C_Master_Init+3,f
  2812     06C0                     u2030:
  2813     06C0  3EFF               	addlw	-1
  2814     06C1  1D03               	skipz
  2815     06C2  2EBB               	goto	u2035
  2816     06C3  0877               	movf	??_I2C_Master_Init+3,w
  2817     06C4  00A3               	movwf	___lldiv@divisor+3
  2818     06C5  0876               	movf	??_I2C_Master_Init+2,w
  2819     06C6  00A2               	movwf	___lldiv@divisor+2
  2820     06C7  0875               	movf	??_I2C_Master_Init+1,w
  2821     06C8  00A1               	movwf	___lldiv@divisor+1
  2822     06C9  0874               	movf	??_I2C_Master_Init,w
  2823     06CA  00A0               	movwf	___lldiv@divisor
  2824     06CB  3000               	movlw	0
  2825     06CC  00A7               	movwf	___lldiv@dividend+3
  2826     06CD  307A               	movlw	122
  2827     06CE  00A6               	movwf	___lldiv@dividend+2
  2828     06CF  3012               	movlw	18
  2829     06D0  00A5               	movwf	___lldiv@dividend+1
  2830     06D1  3000               	movlw	0
  2831     06D2  00A4               	movwf	___lldiv@dividend
  2832     06D3  120A  118A  2439  120A  118A  	fcall	___lldiv
  2833     06D8  1283               	bcf	3,5	;RP0=0, select bank0
  2834     06D9  1303               	bcf	3,6	;RP1=0, select bank0
  2835     06DA  0820               	movf	?___lldiv,w
  2836     06DB  3EFF               	addlw	255
  2837     06DC  1683               	bsf	3,5	;RP0=1, select bank1
  2838     06DD  1303               	bcf	3,6	;RP1=0, select bank1
  2839     06DE  0093               	movwf	19	;volatile
  2840     06DF                     l2278:
  2841                           
  2842                           ;I2C.c: 21:     SSPSTAT = 0;
  2843     06DF  0194               	clrf	20	;volatile
  2844     06E0                     l2280:
  2845                           
  2846                           ;I2C.c: 22:     TRISCbits.TRISC3 = 1;
  2847     06E0  1587               	bsf	7,3	;volatile
  2848     06E1                     l2282:
  2849                           
  2850                           ;I2C.c: 23:     TRISCbits.TRISC4 = 1;
  2851     06E1  1607               	bsf	7,4	;volatile
  2852     06E2                     l114:
  2853     06E2  0008               	return
  2854     06E3                     __end_of_I2C_Master_Init:
  2855                           
  2856                           	psect	text9
  2857     0439                     __ptext9:	
  2858 ;; *************** function ___lldiv *****************
  2859 ;; Defined at:
  2860 ;;		line 5 in file "C:\Program Files\Microchip\xc8\v2.41\pic\sources\c90\common\__lldiv.c"
  2861 ;; Parameters:    Size  Location     Type
  2862 ;;  divisor         4    0[BANK0 ] unsigned long 
  2863 ;;  dividend        4    4[BANK0 ] unsigned long 
  2864 ;; Auto vars:     Size  Location     Type
  2865 ;;  quotient        4    8[BANK0 ] unsigned long 
  2866 ;;  counter         1   12[BANK0 ] unsigned char 
  2867 ;; Return value:  Size  Location     Type
  2868 ;;                  4    0[BANK0 ] unsigned long 
  2869 ;; Registers used:
  2870 ;;		wreg, status,2, status,0, btemp+1
  2871 ;; Tracked objects:
  2872 ;;		On entry : 0/0
  2873 ;;		On exit  : 0/0
  2874 ;;		Unchanged: 0/0
  2875 ;; Data sizes:     COMMON   BANK0   BANK1   BANK3   BANK2
  2876 ;;      Params:         0       8       0       0       0
  2877 ;;      Locals:         0       5       0       0       0
  2878 ;;      Temps:          1       0       0       0       0
  2879 ;;      Totals:         1      13       0       0       0
  2880 ;;Total ram usage:       14 bytes
  2881 ;; Hardware stack levels used: 1
  2882 ;; Hardware stack levels required when called: 1
  2883 ;; This function calls:
  2884 ;;		Nothing
  2885 ;; This function is called by:
  2886 ;;		_I2C_Master_Init
  2887 ;; This function uses a non-reentrant model
  2888 ;;
  2889                           
  2890     0439                     ___lldiv:	
  2891                           ;psect for function ___lldiv
  2892                           
  2893     0439                     l2144:	
  2894                           ;incstack = 0
  2895                           ; Regs used in ___lldiv: [wreg+status,2+status,0+btemp+1]
  2896                           
  2897     0439  3000               	movlw	0
  2898     043A  1283               	bcf	3,5	;RP0=0, select bank0
  2899     043B  1303               	bcf	3,6	;RP1=0, select bank0
  2900     043C  00AB               	movwf	___lldiv@quotient+3
  2901     043D  3000               	movlw	0
  2902     043E  00AA               	movwf	___lldiv@quotient+2
  2903     043F  3000               	movlw	0
  2904     0440  00A9               	movwf	___lldiv@quotient+1
  2905     0441  3000               	movlw	0
  2906     0442  00A8               	movwf	___lldiv@quotient
  2907     0443  0823               	movf	___lldiv@divisor+3,w
  2908     0444  0422               	iorwf	___lldiv@divisor+2,w
  2909     0445  0421               	iorwf	___lldiv@divisor+1,w
  2910     0446  0420               	iorwf	___lldiv@divisor,w
  2911     0447  1903               	skipnz
  2912     0448  2C4A               	goto	u1771
  2913     0449  2C4B               	goto	u1770
  2914     044A                     u1771:
  2915     044A  2C98               	goto	l2166
  2916     044B                     u1770:
  2917     044B                     l2146:
  2918     044B  01AC               	clrf	___lldiv@counter
  2919     044C  0AAC               	incf	___lldiv@counter,f
  2920     044D  2C5B               	goto	l2152
  2921     044E                     l2148:
  2922     044E  3001               	movlw	1
  2923     044F  00F3               	movwf	??___lldiv
  2924     0450                     u1785:
  2925     0450  1003               	clrc
  2926     0451  0DA0               	rlf	___lldiv@divisor,f
  2927     0452  0DA1               	rlf	___lldiv@divisor+1,f
  2928     0453  0DA2               	rlf	___lldiv@divisor+2,f
  2929     0454  0DA3               	rlf	___lldiv@divisor+3,f
  2930     0455  0BF3               	decfsz	??___lldiv,f
  2931     0456  2C50               	goto	u1785
  2932     0457                     l2150:
  2933     0457  3001               	movlw	1
  2934     0458  00FF               	movwf	btemp+1
  2935     0459  087F               	movf	btemp+1,w
  2936     045A  07AC               	addwf	___lldiv@counter,f
  2937     045B                     l2152:
  2938     045B  1FA3               	btfss	___lldiv@divisor+3,7
  2939     045C  2C5E               	goto	u1791
  2940     045D  2C5F               	goto	u1790
  2941     045E                     u1791:
  2942     045E  2C4E               	goto	l2148
  2943     045F                     u1790:
  2944     045F                     l2154:
  2945     045F  3001               	movlw	1
  2946     0460  00F3               	movwf	??___lldiv
  2947     0461                     u1805:
  2948     0461  1003               	clrc
  2949     0462  0DA8               	rlf	___lldiv@quotient,f
  2950     0463  0DA9               	rlf	___lldiv@quotient+1,f
  2951     0464  0DAA               	rlf	___lldiv@quotient+2,f
  2952     0465  0DAB               	rlf	___lldiv@quotient+3,f
  2953     0466  0BF3               	decfsz	??___lldiv,f
  2954     0467  2C61               	goto	u1805
  2955     0468                     l2156:
  2956     0468  0823               	movf	___lldiv@divisor+3,w
  2957     0469  0227               	subwf	___lldiv@dividend+3,w
  2958     046A  1D03               	skipz
  2959     046B  2C76               	goto	u1815
  2960     046C  0822               	movf	___lldiv@divisor+2,w
  2961     046D  0226               	subwf	___lldiv@dividend+2,w
  2962     046E  1D03               	skipz
  2963     046F  2C76               	goto	u1815
  2964     0470  0821               	movf	___lldiv@divisor+1,w
  2965     0471  0225               	subwf	___lldiv@dividend+1,w
  2966     0472  1D03               	skipz
  2967     0473  2C76               	goto	u1815
  2968     0474  0820               	movf	___lldiv@divisor,w
  2969     0475  0224               	subwf	___lldiv@dividend,w
  2970     0476                     u1815:
  2971     0476  1C03               	skipc
  2972     0477  2C79               	goto	u1811
  2973     0478  2C7A               	goto	u1810
  2974     0479                     u1811:
  2975     0479  2C89               	goto	l2162
  2976     047A                     u1810:
  2977     047A                     l2158:
  2978     047A  0820               	movf	___lldiv@divisor,w
  2979     047B  02A4               	subwf	___lldiv@dividend,f
  2980     047C  0821               	movf	___lldiv@divisor+1,w
  2981     047D  1C03               	skipc
  2982     047E  0F21               	incfsz	___lldiv@divisor+1,w
  2983     047F  02A5               	subwf	___lldiv@dividend+1,f
  2984     0480  0822               	movf	___lldiv@divisor+2,w
  2985     0481  1C03               	skipc
  2986     0482  0F22               	incfsz	___lldiv@divisor+2,w
  2987     0483  02A6               	subwf	___lldiv@dividend+2,f
  2988     0484  0823               	movf	___lldiv@divisor+3,w
  2989     0485  1C03               	skipc
  2990     0486  0F23               	incfsz	___lldiv@divisor+3,w
  2991     0487  02A7               	subwf	___lldiv@dividend+3,f
  2992     0488                     l2160:
  2993     0488  1428               	bsf	___lldiv@quotient,0
  2994     0489                     l2162:
  2995     0489  3001               	movlw	1
  2996     048A                     u1825:
  2997     048A  1003               	clrc
  2998     048B  0CA3               	rrf	___lldiv@divisor+3,f
  2999     048C  0CA2               	rrf	___lldiv@divisor+2,f
  3000     048D  0CA1               	rrf	___lldiv@divisor+1,f
  3001     048E  0CA0               	rrf	___lldiv@divisor,f
  3002     048F  3EFF               	addlw	-1
  3003     0490  1D03               	skipz
  3004     0491  2C8A               	goto	u1825
  3005     0492                     l2164:
  3006     0492  3001               	movlw	1
  3007     0493  02AC               	subwf	___lldiv@counter,f
  3008     0494  1D03               	btfss	3,2
  3009     0495  2C97               	goto	u1831
  3010     0496  2C98               	goto	u1830
  3011     0497                     u1831:
  3012     0497  2C5F               	goto	l2154
  3013     0498                     u1830:
  3014     0498                     l2166:
  3015     0498  082B               	movf	___lldiv@quotient+3,w
  3016     0499  00A3               	movwf	?___lldiv+3
  3017     049A  082A               	movf	___lldiv@quotient+2,w
  3018     049B  00A2               	movwf	?___lldiv+2
  3019     049C  0829               	movf	___lldiv@quotient+1,w
  3020     049D  00A1               	movwf	?___lldiv+1
  3021     049E  0828               	movf	___lldiv@quotient,w
  3022     049F  00A0               	movwf	?___lldiv
  3023     04A0                     l415:
  3024     04A0  0008               	return
  3025     04A1                     __end_of___lldiv:
  3026                           
  3027                           	psect	text10
  3028     031E                     __ptext10:	
  3029 ;; *************** function _settingHourRTC *****************
  3030 ;; Defined at:
  3031 ;;		line 207 in file "E:/Universidad/Semestre2_2023/Digital-2/Lab4/Lab4_Master.X/Lab4_Master.c"
  3032 ;; Parameters:    Size  Location     Type
  3033 ;;  sec             1    wreg     unsigned char 
  3034 ;;  min             1   12[BANK0 ] unsigned char 
  3035 ;;  hour            1   13[BANK0 ] unsigned char 
  3036 ;;  day             1   14[BANK0 ] unsigned char 
  3037 ;;  mon             1   15[BANK0 ] unsigned char 
  3038 ;;  year            1   16[BANK0 ] unsigned char 
  3039 ;; Auto vars:     Size  Location     Type
  3040 ;;  sec             1    7[COMMON] unsigned char 
  3041 ;; Return value:  Size  Location     Type
  3042 ;;                  1    wreg      void 
  3043 ;; Registers used:
  3044 ;;		wreg, status,2, status,0, btemp+1, pclath, cstack
  3045 ;; Tracked objects:
  3046 ;;		On entry : 0/0
  3047 ;;		On exit  : 0/0
  3048 ;;		Unchanged: 0/0
  3049 ;; Data sizes:     COMMON   BANK0   BANK1   BANK3   BANK2
  3050 ;;      Params:         0       5       0       0       0
  3051 ;;      Locals:         1       0       0       0       0
  3052 ;;      Temps:          0       2       0       0       0
  3053 ;;      Totals:         1       7       0       0       0
  3054 ;;Total ram usage:        8 bytes
  3055 ;; Hardware stack levels used: 1
  3056 ;; Hardware stack levels required when called: 3
  3057 ;; This function calls:
  3058 ;;		_Decimal_to_BCD
  3059 ;;		_I2C_Master_Start
  3060 ;;		_I2C_Master_Stop
  3061 ;;		_I2C_Master_Write
  3062 ;; This function is called by:
  3063 ;;		_main
  3064 ;; This function uses a non-reentrant model
  3065 ;;
  3066                           
  3067     031E                     _settingHourRTC:	
  3068                           ;psect for function _settingHourRTC
  3069                           
  3070                           
  3071                           ;incstack = 0
  3072                           ; Regs used in _settingHourRTC: [wreg+status,2+status,0+btemp+1+pclath+cstack]
  3073                           ;settingHourRTC@sec stored from wreg
  3074     031E  00F7               	movwf	settingHourRTC@sec
  3075     031F                     l2436:
  3076                           
  3077                           ;E:/Universidad/Semestre2_2023/Digital-2/Lab4/Lab4_Master.X/Lab4_Master.c: 209:         
      +                          I2C_Master_Start();
  3078     031F  120A  158A  276F  120A  118A  	fcall	_I2C_Master_Start
  3079                           
  3080                           ;E:/Universidad/Semestre2_2023/Digital-2/Lab4/Lab4_Master.X/Lab4_Master.c: 210:         
      +                          I2C_Master_Write(0b11010000);
  3081     0324  30D0               	movlw	208
  3082     0325  1283               	bcf	3,5	;RP0=0, select bank0
  3083     0326  1303               	bcf	3,6	;RP1=0, select bank0
  3084     0327  00AA               	movwf	I2C_Master_Write@d
  3085     0328  3000               	movlw	0
  3086     0329  00AB               	movwf	I2C_Master_Write@d+1
  3087     032A  120A  158A  2781  120A  118A  	fcall	_I2C_Master_Write
  3088                           
  3089                           ;E:/Universidad/Semestre2_2023/Digital-2/Lab4/Lab4_Master.X/Lab4_Master.c: 211:         
      +                          I2C_Master_Write(0x00);
  3090     032F  3000               	movlw	0
  3091     0330  1283               	bcf	3,5	;RP0=0, select bank0
  3092     0331  1303               	bcf	3,6	;RP1=0, select bank0
  3093     0332  00AA               	movwf	I2C_Master_Write@d
  3094     0333  00AB               	movwf	I2C_Master_Write@d+1
  3095     0334  120A  158A  2781  120A  118A  	fcall	_I2C_Master_Write
  3096     0339                     l2438:
  3097                           
  3098                           ;E:/Universidad/Semestre2_2023/Digital-2/Lab4/Lab4_Master.X/Lab4_Master.c: 214:         
      +                          I2C_Master_Write(Decimal_to_BCD(sec));
  3099     0339  0877               	movf	settingHourRTC@sec,w
  3100     033A  120A  118A  26E3  120A  118A  	fcall	_Decimal_to_BCD
  3101     033F  1283               	bcf	3,5	;RP0=0, select bank0
  3102     0340  1303               	bcf	3,6	;RP1=0, select bank0
  3103     0341  00B1               	movwf	??_settingHourRTC
  3104     0342  01B2               	clrf	??_settingHourRTC+1
  3105     0343  0831               	movf	??_settingHourRTC,w
  3106     0344  00AA               	movwf	I2C_Master_Write@d
  3107     0345  0832               	movf	??_settingHourRTC+1,w
  3108     0346  00AB               	movwf	I2C_Master_Write@d+1
  3109     0347  120A  158A  2781  120A  118A  	fcall	_I2C_Master_Write
  3110     034C                     l2440:
  3111                           
  3112                           ;E:/Universidad/Semestre2_2023/Digital-2/Lab4/Lab4_Master.X/Lab4_Master.c: 217:         
      +                          I2C_Master_Write(Decimal_to_BCD(min));
  3113     034C  1283               	bcf	3,5	;RP0=0, select bank0
  3114     034D  1303               	bcf	3,6	;RP1=0, select bank0
  3115     034E  082C               	movf	settingHourRTC@min,w
  3116     034F  120A  118A  26E3  120A  118A  	fcall	_Decimal_to_BCD
  3117     0354  1283               	bcf	3,5	;RP0=0, select bank0
  3118     0355  1303               	bcf	3,6	;RP1=0, select bank0
  3119     0356  00B1               	movwf	??_settingHourRTC
  3120     0357  01B2               	clrf	??_settingHourRTC+1
  3121     0358  0831               	movf	??_settingHourRTC,w
  3122     0359  00AA               	movwf	I2C_Master_Write@d
  3123     035A  0832               	movf	??_settingHourRTC+1,w
  3124     035B  00AB               	movwf	I2C_Master_Write@d+1
  3125     035C  120A  158A  2781  120A  118A  	fcall	_I2C_Master_Write
  3126     0361                     l2442:
  3127                           
  3128                           ;E:/Universidad/Semestre2_2023/Digital-2/Lab4/Lab4_Master.X/Lab4_Master.c: 220:         
      +                          I2C_Master_Write(Decimal_to_BCD(hour));
  3129     0361  1283               	bcf	3,5	;RP0=0, select bank0
  3130     0362  1303               	bcf	3,6	;RP1=0, select bank0
  3131     0363  082D               	movf	settingHourRTC@hour,w
  3132     0364  120A  118A  26E3  120A  118A  	fcall	_Decimal_to_BCD
  3133     0369  1283               	bcf	3,5	;RP0=0, select bank0
  3134     036A  1303               	bcf	3,6	;RP1=0, select bank0
  3135     036B  00B1               	movwf	??_settingHourRTC
  3136     036C  01B2               	clrf	??_settingHourRTC+1
  3137     036D  0831               	movf	??_settingHourRTC,w
  3138     036E  00AA               	movwf	I2C_Master_Write@d
  3139     036F  0832               	movf	??_settingHourRTC+1,w
  3140     0370  00AB               	movwf	I2C_Master_Write@d+1
  3141     0371  120A  158A  2781  120A  118A  	fcall	_I2C_Master_Write
  3142     0376                     l2444:
  3143                           
  3144                           ;E:/Universidad/Semestre2_2023/Digital-2/Lab4/Lab4_Master.X/Lab4_Master.c: 222:         
      +                          I2C_Master_Write(Decimal_to_BCD(day));
  3145     0376  1283               	bcf	3,5	;RP0=0, select bank0
  3146     0377  1303               	bcf	3,6	;RP1=0, select bank0
  3147     0378  082E               	movf	settingHourRTC@day,w
  3148     0379  120A  118A  26E3  120A  118A  	fcall	_Decimal_to_BCD
  3149     037E  1283               	bcf	3,5	;RP0=0, select bank0
  3150     037F  1303               	bcf	3,6	;RP1=0, select bank0
  3151     0380  00B1               	movwf	??_settingHourRTC
  3152     0381  01B2               	clrf	??_settingHourRTC+1
  3153     0382  0831               	movf	??_settingHourRTC,w
  3154     0383  00AA               	movwf	I2C_Master_Write@d
  3155     0384  0832               	movf	??_settingHourRTC+1,w
  3156     0385  00AB               	movwf	I2C_Master_Write@d+1
  3157     0386  120A  158A  2781  120A  118A  	fcall	_I2C_Master_Write
  3158     038B                     l2446:
  3159                           
  3160                           ;E:/Universidad/Semestre2_2023/Digital-2/Lab4/Lab4_Master.X/Lab4_Master.c: 223:         
      +                          I2C_Master_Write(Decimal_to_BCD(day));
  3161     038B  1283               	bcf	3,5	;RP0=0, select bank0
  3162     038C  1303               	bcf	3,6	;RP1=0, select bank0
  3163     038D  082E               	movf	settingHourRTC@day,w
  3164     038E  120A  118A  26E3  120A  118A  	fcall	_Decimal_to_BCD
  3165     0393  1283               	bcf	3,5	;RP0=0, select bank0
  3166     0394  1303               	bcf	3,6	;RP1=0, select bank0
  3167     0395  00B1               	movwf	??_settingHourRTC
  3168     0396  01B2               	clrf	??_settingHourRTC+1
  3169     0397  0831               	movf	??_settingHourRTC,w
  3170     0398  00AA               	movwf	I2C_Master_Write@d
  3171     0399  0832               	movf	??_settingHourRTC+1,w
  3172     039A  00AB               	movwf	I2C_Master_Write@d+1
  3173     039B  120A  158A  2781  120A  118A  	fcall	_I2C_Master_Write
  3174     03A0                     l2448:
  3175                           
  3176                           ;E:/Universidad/Semestre2_2023/Digital-2/Lab4/Lab4_Master.X/Lab4_Master.c: 226:         
      +                          I2C_Master_Write(Decimal_to_BCD(mon));
  3177     03A0  1283               	bcf	3,5	;RP0=0, select bank0
  3178     03A1  1303               	bcf	3,6	;RP1=0, select bank0
  3179     03A2  082F               	movf	settingHourRTC@mon,w
  3180     03A3  120A  118A  26E3  120A  118A  	fcall	_Decimal_to_BCD
  3181     03A8  1283               	bcf	3,5	;RP0=0, select bank0
  3182     03A9  1303               	bcf	3,6	;RP1=0, select bank0
  3183     03AA  00B1               	movwf	??_settingHourRTC
  3184     03AB  01B2               	clrf	??_settingHourRTC+1
  3185     03AC  0831               	movf	??_settingHourRTC,w
  3186     03AD  00AA               	movwf	I2C_Master_Write@d
  3187     03AE  0832               	movf	??_settingHourRTC+1,w
  3188     03AF  00AB               	movwf	I2C_Master_Write@d+1
  3189     03B0  120A  158A  2781  120A  118A  	fcall	_I2C_Master_Write
  3190     03B5                     l2450:
  3191                           
  3192                           ;E:/Universidad/Semestre2_2023/Digital-2/Lab4/Lab4_Master.X/Lab4_Master.c: 229:         
      +                          I2C_Master_Write(Decimal_to_BCD(year));
  3193     03B5  1283               	bcf	3,5	;RP0=0, select bank0
  3194     03B6  1303               	bcf	3,6	;RP1=0, select bank0
  3195     03B7  0830               	movf	settingHourRTC@year,w
  3196     03B8  120A  118A  26E3  120A  118A  	fcall	_Decimal_to_BCD
  3197     03BD  1283               	bcf	3,5	;RP0=0, select bank0
  3198     03BE  1303               	bcf	3,6	;RP1=0, select bank0
  3199     03BF  00B1               	movwf	??_settingHourRTC
  3200     03C0  01B2               	clrf	??_settingHourRTC+1
  3201     03C1  0831               	movf	??_settingHourRTC,w
  3202     03C2  00AA               	movwf	I2C_Master_Write@d
  3203     03C3  0832               	movf	??_settingHourRTC+1,w
  3204     03C4  00AB               	movwf	I2C_Master_Write@d+1
  3205     03C5  120A  158A  2781  120A  118A  	fcall	_I2C_Master_Write
  3206     03CA                     l2452:
  3207                           
  3208                           ;E:/Universidad/Semestre2_2023/Digital-2/Lab4/Lab4_Master.X/Lab4_Master.c: 232:         
      +                          I2C_Master_Stop();
  3209     03CA  120A  158A  2778  120A  118A  	fcall	_I2C_Master_Stop
  3210     03CF                     l248:
  3211     03CF  0008               	return
  3212     03D0                     __end_of_settingHourRTC:
  3213                           
  3214                           	psect	text11
  3215     0F81                     __ptext11:	
  3216 ;; *************** function _I2C_Master_Write *****************
  3217 ;; Defined at:
  3218 ;;		line 65 in file "I2C.c"
  3219 ;; Parameters:    Size  Location     Type
  3220 ;;  d               2   10[BANK0 ] unsigned int 
  3221 ;; Auto vars:     Size  Location     Type
  3222 ;;		None
  3223 ;; Return value:  Size  Location     Type
  3224 ;;                  1    wreg      void 
  3225 ;; Registers used:
  3226 ;;		wreg, status,2, status,0, pclath, cstack
  3227 ;; Tracked objects:
  3228 ;;		On entry : 0/0
  3229 ;;		On exit  : 0/0
  3230 ;;		Unchanged: 0/0
  3231 ;; Data sizes:     COMMON   BANK0   BANK1   BANK3   BANK2
  3232 ;;      Params:         0       2       0       0       0
  3233 ;;      Locals:         0       0       0       0       0
  3234 ;;      Temps:          0       0       0       0       0
  3235 ;;      Totals:         0       2       0       0       0
  3236 ;;Total ram usage:        2 bytes
  3237 ;; Hardware stack levels used: 1
  3238 ;; Hardware stack levels required when called: 2
  3239 ;; This function calls:
  3240 ;;		_I2C_Master_Wait
  3241 ;; This function is called by:
  3242 ;;		_main
  3243 ;;		_settingHourRTC
  3244 ;; This function uses a non-reentrant model
  3245 ;;
  3246                           
  3247     0F81                     _I2C_Master_Write:	
  3248                           ;psect for function _I2C_Master_Write
  3249                           
  3250     0F81                     l2292:	
  3251                           ;incstack = 0
  3252                           ; Regs used in _I2C_Master_Write: [wreg+status,2+status,0+pclath+cstack]
  3253                           
  3254                           
  3255                           ;I2C.c: 65: void I2C_Master_Write(unsigned d);I2C.c: 66: {;I2C.c: 67:     I2C_Master_Wai
      +                          t();
  3256     0F81  120A  158A  278B  120A  158A  	fcall	_I2C_Master_Wait
  3257     0F86                     l2294:
  3258                           
  3259                           ;I2C.c: 68:     SSPBUF = d;
  3260     0F86  1283               	bcf	3,5	;RP0=0, select bank0
  3261     0F87  1303               	bcf	3,6	;RP1=0, select bank0
  3262     0F88  082A               	movf	I2C_Master_Write@d,w
  3263     0F89  0093               	movwf	19	;volatile
  3264     0F8A                     l132:
  3265     0F8A  0008               	return
  3266     0F8B                     __end_of_I2C_Master_Write:
  3267                           
  3268                           	psect	text12
  3269     0F78                     __ptext12:	
  3270 ;; *************** function _I2C_Master_Stop *****************
  3271 ;; Defined at:
  3272 ;;		line 55 in file "I2C.c"
  3273 ;; Parameters:    Size  Location     Type
  3274 ;;		None
  3275 ;; Auto vars:     Size  Location     Type
  3276 ;;		None
  3277 ;; Return value:  Size  Location     Type
  3278 ;;                  1    wreg      void 
  3279 ;; Registers used:
  3280 ;;		wreg, status,2, status,0, pclath, cstack
  3281 ;; Tracked objects:
  3282 ;;		On entry : 0/0
  3283 ;;		On exit  : 0/0
  3284 ;;		Unchanged: 0/0
  3285 ;; Data sizes:     COMMON   BANK0   BANK1   BANK3   BANK2
  3286 ;;      Params:         0       0       0       0       0
  3287 ;;      Locals:         0       0       0       0       0
  3288 ;;      Temps:          0       0       0       0       0
  3289 ;;      Totals:         0       0       0       0       0
  3290 ;;Total ram usage:        0 bytes
  3291 ;; Hardware stack levels used: 1
  3292 ;; Hardware stack levels required when called: 2
  3293 ;; This function calls:
  3294 ;;		_I2C_Master_Wait
  3295 ;; This function is called by:
  3296 ;;		_main
  3297 ;;		_settingHourRTC
  3298 ;; This function uses a non-reentrant model
  3299 ;;
  3300                           
  3301     0F78                     _I2C_Master_Stop:	
  3302                           ;psect for function _I2C_Master_Stop
  3303                           
  3304     0F78                     l2288:	
  3305                           ;incstack = 0
  3306                           ; Regs used in _I2C_Master_Stop: [wreg+status,2+status,0+pclath+cstack]
  3307                           
  3308                           
  3309                           ;I2C.c: 57:     I2C_Master_Wait();
  3310     0F78  120A  158A  278B  120A  158A  	fcall	_I2C_Master_Wait
  3311     0F7D                     l2290:
  3312                           
  3313                           ;I2C.c: 58:     SSPCON2bits.PEN = 1;
  3314     0F7D  1683               	bsf	3,5	;RP0=1, select bank1
  3315     0F7E  1303               	bcf	3,6	;RP1=0, select bank1
  3316     0F7F  1511               	bsf	17,2	;volatile
  3317     0F80                     l129:
  3318     0F80  0008               	return
  3319     0F81                     __end_of_I2C_Master_Stop:
  3320                           
  3321                           	psect	text13
  3322     0F6F                     __ptext13:	
  3323 ;; *************** function _I2C_Master_Start *****************
  3324 ;; Defined at:
  3325 ;;		line 39 in file "I2C.c"
  3326 ;; Parameters:    Size  Location     Type
  3327 ;;		None
  3328 ;; Auto vars:     Size  Location     Type
  3329 ;;		None
  3330 ;; Return value:  Size  Location     Type
  3331 ;;                  1    wreg      void 
  3332 ;; Registers used:
  3333 ;;		wreg, status,2, status,0, pclath, cstack
  3334 ;; Tracked objects:
  3335 ;;		On entry : 0/0
  3336 ;;		On exit  : 0/0
  3337 ;;		Unchanged: 0/0
  3338 ;; Data sizes:     COMMON   BANK0   BANK1   BANK3   BANK2
  3339 ;;      Params:         0       0       0       0       0
  3340 ;;      Locals:         0       0       0       0       0
  3341 ;;      Temps:          0       0       0       0       0
  3342 ;;      Totals:         0       0       0       0       0
  3343 ;;Total ram usage:        0 bytes
  3344 ;; Hardware stack levels used: 1
  3345 ;; Hardware stack levels required when called: 2
  3346 ;; This function calls:
  3347 ;;		_I2C_Master_Wait
  3348 ;; This function is called by:
  3349 ;;		_main
  3350 ;;		_settingHourRTC
  3351 ;; This function uses a non-reentrant model
  3352 ;;
  3353                           
  3354     0F6F                     _I2C_Master_Start:	
  3355                           ;psect for function _I2C_Master_Start
  3356                           
  3357     0F6F                     l2284:	
  3358                           ;incstack = 0
  3359                           ; Regs used in _I2C_Master_Start: [wreg+status,2+status,0+pclath+cstack]
  3360                           
  3361                           
  3362                           ;I2C.c: 41:     I2C_Master_Wait();
  3363     0F6F  120A  158A  278B  120A  158A  	fcall	_I2C_Master_Wait
  3364     0F74                     l2286:
  3365                           
  3366                           ;I2C.c: 42:     SSPCON2bits.SEN = 1;
  3367     0F74  1683               	bsf	3,5	;RP0=1, select bank1
  3368     0F75  1303               	bcf	3,6	;RP1=0, select bank1
  3369     0F76  1411               	bsf	17,0	;volatile
  3370     0F77                     l123:
  3371     0F77  0008               	return
  3372     0F78                     __end_of_I2C_Master_Start:
  3373                           
  3374                           	psect	text14
  3375     06E3                     __ptext14:	
  3376 ;; *************** function _Decimal_to_BCD *****************
  3377 ;; Defined at:
  3378 ;;		line 248 in file "E:/Universidad/Semestre2_2023/Digital-2/Lab4/Lab4_Master.X/Lab4_Master.c"
  3379 ;; Parameters:    Size  Location     Type
  3380 ;;  decimal_valu    1    wreg     unsigned char 
  3381 ;; Auto vars:     Size  Location     Type
  3382 ;;  decimal_valu    1    9[BANK0 ] unsigned char 
  3383 ;;  bcd_value       1    8[BANK0 ] unsigned char 
  3384 ;;  ones_digit      1    7[BANK0 ] unsigned char 
  3385 ;;  tens_digit      1    6[BANK0 ] unsigned char 
  3386 ;; Return value:  Size  Location     Type
  3387 ;;                  1    wreg      unsigned char 
  3388 ;; Registers used:
  3389 ;;		wreg, status,2, status,0, btemp+1, pclath, cstack
  3390 ;; Tracked objects:
  3391 ;;		On entry : 0/0
  3392 ;;		On exit  : 0/0
  3393 ;;		Unchanged: 0/0
  3394 ;; Data sizes:     COMMON   BANK0   BANK1   BANK3   BANK2
  3395 ;;      Params:         0       0       0       0       0
  3396 ;;      Locals:         0       4       0       0       0
  3397 ;;      Temps:          0       2       0       0       0
  3398 ;;      Totals:         0       6       0       0       0
  3399 ;;Total ram usage:        6 bytes
  3400 ;; Hardware stack levels used: 1
  3401 ;; Hardware stack levels required when called: 2
  3402 ;; This function calls:
  3403 ;;		___awdiv
  3404 ;;		___awmod
  3405 ;; This function is called by:
  3406 ;;		_settingHourRTC
  3407 ;; This function uses a non-reentrant model
  3408 ;;
  3409                           
  3410     06E3                     _Decimal_to_BCD:	
  3411                           ;psect for function _Decimal_to_BCD
  3412                           
  3413                           
  3414                           ;incstack = 0
  3415                           ; Regs used in _Decimal_to_BCD: [wreg+status,2+status,0+btemp+1+pclath+cstack]
  3416                           ;Decimal_to_BCD@decimal_value stored from wreg
  3417     06E3  1283               	bcf	3,5	;RP0=0, select bank0
  3418     06E4  1303               	bcf	3,6	;RP1=0, select bank0
  3419     06E5  00A9               	movwf	Decimal_to_BCD@decimal_value
  3420     06E6                     l2296:
  3421                           
  3422                           ;E:/Universidad/Semestre2_2023/Digital-2/Lab4/Lab4_Master.X/Lab4_Master.c: 250:     uint
      +                          8_t tens_digit = decimal_value / 10;
  3423     06E6  300A               	movlw	10
  3424     06E7  00F3               	movwf	___awdiv@divisor
  3425     06E8  3000               	movlw	0
  3426     06E9  00F4               	movwf	___awdiv@divisor+1
  3427     06EA  0829               	movf	Decimal_to_BCD@decimal_value,w
  3428     06EB  00A4               	movwf	??_Decimal_to_BCD
  3429     06EC  01A5               	clrf	??_Decimal_to_BCD+1
  3430     06ED  0824               	movf	??_Decimal_to_BCD,w
  3431     06EE  00F5               	movwf	___awdiv@dividend
  3432     06EF  0825               	movf	??_Decimal_to_BCD+1,w
  3433     06F0  00F6               	movwf	___awdiv@dividend+1
  3434     06F1  120A  118A  23D0  120A  118A  	fcall	___awdiv
  3435     06F6  0873               	movf	?___awdiv,w
  3436     06F7  1283               	bcf	3,5	;RP0=0, select bank0
  3437     06F8  1303               	bcf	3,6	;RP1=0, select bank0
  3438     06F9  00A6               	movwf	Decimal_to_BCD@tens_digit
  3439                           
  3440                           ;E:/Universidad/Semestre2_2023/Digital-2/Lab4/Lab4_Master.X/Lab4_Master.c: 251:     uint
      +                          8_t ones_digit = decimal_value % 10;
  3441     06FA  300A               	movlw	10
  3442     06FB  00F3               	movwf	___awmod@divisor
  3443     06FC  3000               	movlw	0
  3444     06FD  00F4               	movwf	___awmod@divisor+1
  3445     06FE  0829               	movf	Decimal_to_BCD@decimal_value,w
  3446     06FF  00A4               	movwf	??_Decimal_to_BCD
  3447     0700  01A5               	clrf	??_Decimal_to_BCD+1
  3448     0701  0824               	movf	??_Decimal_to_BCD,w
  3449     0702  00F5               	movwf	___awmod@dividend
  3450     0703  0825               	movf	??_Decimal_to_BCD+1,w
  3451     0704  00F6               	movwf	___awmod@dividend+1
  3452     0705  120A  118A  24FD  120A  118A  	fcall	___awmod
  3453     070A  0873               	movf	?___awmod,w
  3454     070B  1283               	bcf	3,5	;RP0=0, select bank0
  3455     070C  1303               	bcf	3,6	;RP1=0, select bank0
  3456     070D  00A7               	movwf	Decimal_to_BCD@ones_digit
  3457     070E                     l2298:
  3458                           
  3459                           ;E:/Universidad/Semestre2_2023/Digital-2/Lab4/Lab4_Master.X/Lab4_Master.c: 254:     uint
      +                          8_t bcd_value = (tens_digit << 4) | ones_digit;
  3460     070E  0826               	movf	Decimal_to_BCD@tens_digit,w
  3461     070F  00A4               	movwf	??_Decimal_to_BCD
  3462     0710  3003               	movlw	3
  3463     0711                     u2045:
  3464     0711  1003               	clrc
  3465     0712  0DA4               	rlf	??_Decimal_to_BCD,f
  3466     0713  3EFF               	addlw	-1
  3467     0714  1D03               	skipz
  3468     0715  2F11               	goto	u2045
  3469     0716  1003               	clrc
  3470     0717  0D24               	rlf	??_Decimal_to_BCD,w
  3471     0718  0427               	iorwf	Decimal_to_BCD@ones_digit,w
  3472     0719  00A8               	movwf	Decimal_to_BCD@bcd_value
  3473     071A                     l2300:
  3474                           
  3475                           ;E:/Universidad/Semestre2_2023/Digital-2/Lab4/Lab4_Master.X/Lab4_Master.c: 256:     retu
      +                          rn bcd_value;
  3476     071A  0828               	movf	Decimal_to_BCD@bcd_value,w
  3477     071B                     l254:
  3478     071B  0008               	return
  3479     071C                     __end_of_Decimal_to_BCD:
  3480                           
  3481                           	psect	text15
  3482     04FD                     __ptext15:	
  3483 ;; *************** function ___awmod *****************
  3484 ;; Defined at:
  3485 ;;		line 5 in file "C:\Program Files\Microchip\xc8\v2.41\pic\sources\c90\common\awmod.c"
  3486 ;; Parameters:    Size  Location     Type
  3487 ;;  divisor         2    3[COMMON] int 
  3488 ;;  dividend        2    5[COMMON] int 
  3489 ;; Auto vars:     Size  Location     Type
  3490 ;;  sign            1    1[BANK0 ] unsigned char 
  3491 ;;  counter         1    0[BANK0 ] unsigned char 
  3492 ;; Return value:  Size  Location     Type
  3493 ;;                  2    3[COMMON] int 
  3494 ;; Registers used:
  3495 ;;		wreg, status,2, status,0, btemp+1
  3496 ;; Tracked objects:
  3497 ;;		On entry : 0/0
  3498 ;;		On exit  : 0/0
  3499 ;;		Unchanged: 0/0
  3500 ;; Data sizes:     COMMON   BANK0   BANK1   BANK3   BANK2
  3501 ;;      Params:         4       0       0       0       0
  3502 ;;      Locals:         0       2       0       0       0
  3503 ;;      Temps:          0       0       0       0       0
  3504 ;;      Totals:         4       2       0       0       0
  3505 ;;Total ram usage:        6 bytes
  3506 ;; Hardware stack levels used: 1
  3507 ;; Hardware stack levels required when called: 1
  3508 ;; This function calls:
  3509 ;;		Nothing
  3510 ;; This function is called by:
  3511 ;;		_Decimal_to_BCD
  3512 ;; This function uses a non-reentrant model
  3513 ;;
  3514                           
  3515     04FD                     ___awmod:	
  3516                           ;psect for function ___awmod
  3517                           
  3518     04FD                     l2214:	
  3519                           ;incstack = 0
  3520                           ; Regs used in ___awmod: [wreg+status,2+status,0+btemp+1]
  3521                           
  3522     04FD  1283               	bcf	3,5	;RP0=0, select bank0
  3523     04FE  1303               	bcf	3,6	;RP1=0, select bank0
  3524     04FF  01A1               	clrf	___awmod@sign
  3525     0500                     l2216:
  3526     0500  1FF6               	btfss	___awmod@dividend+1,7
  3527     0501  2D03               	goto	u1941
  3528     0502  2D04               	goto	u1940
  3529     0503                     u1941:
  3530     0503  2D0B               	goto	l2222
  3531     0504                     u1940:
  3532     0504                     l2218:
  3533     0504  09F5               	comf	___awmod@dividend,f
  3534     0505  09F6               	comf	___awmod@dividend+1,f
  3535     0506  0AF5               	incf	___awmod@dividend,f
  3536     0507  1903               	skipnz
  3537     0508  0AF6               	incf	___awmod@dividend+1,f
  3538     0509                     l2220:
  3539     0509  01A1               	clrf	___awmod@sign
  3540     050A  0AA1               	incf	___awmod@sign,f
  3541     050B                     l2222:
  3542     050B  1FF4               	btfss	___awmod@divisor+1,7
  3543     050C  2D0E               	goto	u1951
  3544     050D  2D0F               	goto	u1950
  3545     050E                     u1951:
  3546     050E  2D14               	goto	l2226
  3547     050F                     u1950:
  3548     050F                     l2224:
  3549     050F  09F3               	comf	___awmod@divisor,f
  3550     0510  09F4               	comf	___awmod@divisor+1,f
  3551     0511  0AF3               	incf	___awmod@divisor,f
  3552     0512  1903               	skipnz
  3553     0513  0AF4               	incf	___awmod@divisor+1,f
  3554     0514                     l2226:
  3555     0514  0873               	movf	___awmod@divisor,w
  3556     0515  0474               	iorwf	___awmod@divisor+1,w
  3557     0516  1903               	btfsc	3,2
  3558     0517  2D19               	goto	u1961
  3559     0518  2D1A               	goto	u1960
  3560     0519                     u1961:
  3561     0519  2D49               	goto	l2244
  3562     051A                     u1960:
  3563     051A                     l2228:
  3564     051A  01A0               	clrf	___awmod@counter
  3565     051B  0AA0               	incf	___awmod@counter,f
  3566     051C  2D28               	goto	l2234
  3567     051D                     l2230:
  3568     051D  3001               	movlw	1
  3569     051E                     u1975:
  3570     051E  1003               	clrc
  3571     051F  0DF3               	rlf	___awmod@divisor,f
  3572     0520  0DF4               	rlf	___awmod@divisor+1,f
  3573     0521  3EFF               	addlw	-1
  3574     0522  1D03               	skipz
  3575     0523  2D1E               	goto	u1975
  3576     0524                     l2232:
  3577     0524  3001               	movlw	1
  3578     0525  00FF               	movwf	btemp+1
  3579     0526  087F               	movf	btemp+1,w
  3580     0527  07A0               	addwf	___awmod@counter,f
  3581     0528                     l2234:
  3582     0528  1FF4               	btfss	___awmod@divisor+1,7
  3583     0529  2D2B               	goto	u1981
  3584     052A  2D2C               	goto	u1980
  3585     052B                     u1981:
  3586     052B  2D1D               	goto	l2230
  3587     052C                     u1980:
  3588     052C                     l2236:
  3589     052C  0874               	movf	___awmod@divisor+1,w
  3590     052D  0276               	subwf	___awmod@dividend+1,w
  3591     052E  1D03               	skipz
  3592     052F  2D32               	goto	u1995
  3593     0530  0873               	movf	___awmod@divisor,w
  3594     0531  0275               	subwf	___awmod@dividend,w
  3595     0532                     u1995:
  3596     0532  1C03               	skipc
  3597     0533  2D35               	goto	u1991
  3598     0534  2D36               	goto	u1990
  3599     0535                     u1991:
  3600     0535  2D3C               	goto	l2240
  3601     0536                     u1990:
  3602     0536                     l2238:
  3603     0536  0873               	movf	___awmod@divisor,w
  3604     0537  02F5               	subwf	___awmod@dividend,f
  3605     0538  0874               	movf	___awmod@divisor+1,w
  3606     0539  1C03               	skipc
  3607     053A  03F6               	decf	___awmod@dividend+1,f
  3608     053B  02F6               	subwf	___awmod@dividend+1,f
  3609     053C                     l2240:
  3610     053C  3001               	movlw	1
  3611     053D                     u2005:
  3612     053D  1003               	clrc
  3613     053E  0CF4               	rrf	___awmod@divisor+1,f
  3614     053F  0CF3               	rrf	___awmod@divisor,f
  3615     0540  3EFF               	addlw	-1
  3616     0541  1D03               	skipz
  3617     0542  2D3D               	goto	u2005
  3618     0543                     l2242:
  3619     0543  3001               	movlw	1
  3620     0544  02A0               	subwf	___awmod@counter,f
  3621     0545  1D03               	btfss	3,2
  3622     0546  2D48               	goto	u2011
  3623     0547  2D49               	goto	u2010
  3624     0548                     u2011:
  3625     0548  2D2C               	goto	l2236
  3626     0549                     u2010:
  3627     0549                     l2244:
  3628     0549  0821               	movf	___awmod@sign,w
  3629     054A  1903               	btfsc	3,2
  3630     054B  2D4D               	goto	u2021
  3631     054C  2D4E               	goto	u2020
  3632     054D                     u2021:
  3633     054D  2D53               	goto	l2248
  3634     054E                     u2020:
  3635     054E                     l2246:
  3636     054E  09F5               	comf	___awmod@dividend,f
  3637     054F  09F6               	comf	___awmod@dividend+1,f
  3638     0550  0AF5               	incf	___awmod@dividend,f
  3639     0551  1903               	skipnz
  3640     0552  0AF6               	incf	___awmod@dividend+1,f
  3641     0553                     l2248:
  3642     0553  0876               	movf	___awmod@dividend+1,w
  3643     0554  00F4               	movwf	?___awmod+1
  3644     0555  0875               	movf	___awmod@dividend,w
  3645     0556  00F3               	movwf	?___awmod
  3646     0557                     l545:
  3647     0557  0008               	return
  3648     0558                     __end_of___awmod:
  3649                           
  3650                           	psect	text16
  3651     03D0                     __ptext16:	
  3652 ;; *************** function ___awdiv *****************
  3653 ;; Defined at:
  3654 ;;		line 5 in file "C:\Program Files\Microchip\xc8\v2.41\pic\sources\c90\common\awdiv.c"
  3655 ;; Parameters:    Size  Location     Type
  3656 ;;  divisor         2    3[COMMON] int 
  3657 ;;  dividend        2    5[COMMON] int 
  3658 ;; Auto vars:     Size  Location     Type
  3659 ;;  quotient        2    2[BANK0 ] int 
  3660 ;;  sign            1    1[BANK0 ] unsigned char 
  3661 ;;  counter         1    0[BANK0 ] unsigned char 
  3662 ;; Return value:  Size  Location     Type
  3663 ;;                  2    3[COMMON] int 
  3664 ;; Registers used:
  3665 ;;		wreg, status,2, status,0, btemp+1
  3666 ;; Tracked objects:
  3667 ;;		On entry : 0/0
  3668 ;;		On exit  : 0/0
  3669 ;;		Unchanged: 0/0
  3670 ;; Data sizes:     COMMON   BANK0   BANK1   BANK3   BANK2
  3671 ;;      Params:         4       0       0       0       0
  3672 ;;      Locals:         0       4       0       0       0
  3673 ;;      Temps:          0       0       0       0       0
  3674 ;;      Totals:         4       4       0       0       0
  3675 ;;Total ram usage:        8 bytes
  3676 ;; Hardware stack levels used: 1
  3677 ;; Hardware stack levels required when called: 1
  3678 ;; This function calls:
  3679 ;;		Nothing
  3680 ;; This function is called by:
  3681 ;;		_Decimal_to_BCD
  3682 ;; This function uses a non-reentrant model
  3683 ;;
  3684                           
  3685     03D0                     ___awdiv:	
  3686                           ;psect for function ___awdiv
  3687                           
  3688     03D0                     l2170:	
  3689                           ;incstack = 0
  3690                           ; Regs used in ___awdiv: [wreg+status,2+status,0+btemp+1]
  3691                           
  3692     03D0  1283               	bcf	3,5	;RP0=0, select bank0
  3693     03D1  1303               	bcf	3,6	;RP1=0, select bank0
  3694     03D2  01A1               	clrf	___awdiv@sign
  3695     03D3                     l2172:
  3696     03D3  1FF4               	btfss	___awdiv@divisor+1,7
  3697     03D4  2BD6               	goto	u1841
  3698     03D5  2BD7               	goto	u1840
  3699     03D6                     u1841:
  3700     03D6  2BDE               	goto	l2178
  3701     03D7                     u1840:
  3702     03D7                     l2174:
  3703     03D7  09F3               	comf	___awdiv@divisor,f
  3704     03D8  09F4               	comf	___awdiv@divisor+1,f
  3705     03D9  0AF3               	incf	___awdiv@divisor,f
  3706     03DA  1903               	skipnz
  3707     03DB  0AF4               	incf	___awdiv@divisor+1,f
  3708     03DC                     l2176:
  3709     03DC  01A1               	clrf	___awdiv@sign
  3710     03DD  0AA1               	incf	___awdiv@sign,f
  3711     03DE                     l2178:
  3712     03DE  1FF6               	btfss	___awdiv@dividend+1,7
  3713     03DF  2BE1               	goto	u1851
  3714     03E0  2BE2               	goto	u1850
  3715     03E1                     u1851:
  3716     03E1  2BEB               	goto	l2184
  3717     03E2                     u1850:
  3718     03E2                     l2180:
  3719     03E2  09F5               	comf	___awdiv@dividend,f
  3720     03E3  09F6               	comf	___awdiv@dividend+1,f
  3721     03E4  0AF5               	incf	___awdiv@dividend,f
  3722     03E5  1903               	skipnz
  3723     03E6  0AF6               	incf	___awdiv@dividend+1,f
  3724     03E7                     l2182:
  3725     03E7  3001               	movlw	1
  3726     03E8  00FF               	movwf	btemp+1
  3727     03E9  087F               	movf	btemp+1,w
  3728     03EA  06A1               	xorwf	___awdiv@sign,f
  3729     03EB                     l2184:
  3730     03EB  01A2               	clrf	___awdiv@quotient
  3731     03EC  01A3               	clrf	___awdiv@quotient+1
  3732     03ED                     l2186:
  3733     03ED  0873               	movf	___awdiv@divisor,w
  3734     03EE  0474               	iorwf	___awdiv@divisor+1,w
  3735     03EF  1903               	btfsc	3,2
  3736     03F0  2BF2               	goto	u1861
  3737     03F1  2BF3               	goto	u1860
  3738     03F2                     u1861:
  3739     03F2  2C2A               	goto	l2206
  3740     03F3                     u1860:
  3741     03F3                     l2188:
  3742     03F3  01A0               	clrf	___awdiv@counter
  3743     03F4  0AA0               	incf	___awdiv@counter,f
  3744     03F5  2C01               	goto	l2194
  3745     03F6                     l2190:
  3746     03F6  3001               	movlw	1
  3747     03F7                     u1875:
  3748     03F7  1003               	clrc
  3749     03F8  0DF3               	rlf	___awdiv@divisor,f
  3750     03F9  0DF4               	rlf	___awdiv@divisor+1,f
  3751     03FA  3EFF               	addlw	-1
  3752     03FB  1D03               	skipz
  3753     03FC  2BF7               	goto	u1875
  3754     03FD                     l2192:
  3755     03FD  3001               	movlw	1
  3756     03FE  00FF               	movwf	btemp+1
  3757     03FF  087F               	movf	btemp+1,w
  3758     0400  07A0               	addwf	___awdiv@counter,f
  3759     0401                     l2194:
  3760     0401  1FF4               	btfss	___awdiv@divisor+1,7
  3761     0402  2C04               	goto	u1881
  3762     0403  2C05               	goto	u1880
  3763     0404                     u1881:
  3764     0404  2BF6               	goto	l2190
  3765     0405                     u1880:
  3766     0405                     l2196:
  3767     0405  3001               	movlw	1
  3768     0406                     u1895:
  3769     0406  1003               	clrc
  3770     0407  0DA2               	rlf	___awdiv@quotient,f
  3771     0408  0DA3               	rlf	___awdiv@quotient+1,f
  3772     0409  3EFF               	addlw	-1
  3773     040A  1D03               	skipz
  3774     040B  2C06               	goto	u1895
  3775     040C  0874               	movf	___awdiv@divisor+1,w
  3776     040D  0276               	subwf	___awdiv@dividend+1,w
  3777     040E  1D03               	skipz
  3778     040F  2C12               	goto	u1905
  3779     0410  0873               	movf	___awdiv@divisor,w
  3780     0411  0275               	subwf	___awdiv@dividend,w
  3781     0412                     u1905:
  3782     0412  1C03               	skipc
  3783     0413  2C15               	goto	u1901
  3784     0414  2C16               	goto	u1900
  3785     0415                     u1901:
  3786     0415  2C1D               	goto	l2202
  3787     0416                     u1900:
  3788     0416                     l2198:
  3789     0416  0873               	movf	___awdiv@divisor,w
  3790     0417  02F5               	subwf	___awdiv@dividend,f
  3791     0418  0874               	movf	___awdiv@divisor+1,w
  3792     0419  1C03               	skipc
  3793     041A  03F6               	decf	___awdiv@dividend+1,f
  3794     041B  02F6               	subwf	___awdiv@dividend+1,f
  3795     041C                     l2200:
  3796     041C  1422               	bsf	___awdiv@quotient,0
  3797     041D                     l2202:
  3798     041D  3001               	movlw	1
  3799     041E                     u1915:
  3800     041E  1003               	clrc
  3801     041F  0CF4               	rrf	___awdiv@divisor+1,f
  3802     0420  0CF3               	rrf	___awdiv@divisor,f
  3803     0421  3EFF               	addlw	-1
  3804     0422  1D03               	skipz
  3805     0423  2C1E               	goto	u1915
  3806     0424                     l2204:
  3807     0424  3001               	movlw	1
  3808     0425  02A0               	subwf	___awdiv@counter,f
  3809     0426  1D03               	btfss	3,2
  3810     0427  2C29               	goto	u1921
  3811     0428  2C2A               	goto	u1920
  3812     0429                     u1921:
  3813     0429  2C05               	goto	l2196
  3814     042A                     u1920:
  3815     042A                     l2206:
  3816     042A  0821               	movf	___awdiv@sign,w
  3817     042B  1903               	btfsc	3,2
  3818     042C  2C2E               	goto	u1931
  3819     042D  2C2F               	goto	u1930
  3820     042E                     u1931:
  3821     042E  2C34               	goto	l2210
  3822     042F                     u1930:
  3823     042F                     l2208:
  3824     042F  09A2               	comf	___awdiv@quotient,f
  3825     0430  09A3               	comf	___awdiv@quotient+1,f
  3826     0431  0AA2               	incf	___awdiv@quotient,f
  3827     0432  1903               	skipnz
  3828     0433  0AA3               	incf	___awdiv@quotient+1,f
  3829     0434                     l2210:
  3830     0434  0823               	movf	___awdiv@quotient+1,w
  3831     0435  00F4               	movwf	?___awdiv+1
  3832     0436  0822               	movf	___awdiv@quotient,w
  3833     0437  00F3               	movwf	?___awdiv
  3834     0438                     l532:
  3835     0438  0008               	return
  3836     0439                     __end_of___awdiv:
  3837                           
  3838                           	psect	text17
  3839     0780                     __ptext17:	
  3840 ;; *************** function _Lcd_Write_String *****************
  3841 ;; Defined at:
  3842 ;;		line 104 in file "lcd.c"
  3843 ;; Parameters:    Size  Location     Type
  3844 ;;  a               1    wreg     PTR unsigned char 
  3845 ;;		 -> lineLCD(16), 
  3846 ;; Auto vars:     Size  Location     Type
  3847 ;;  a               1    2[BANK0 ] PTR unsigned char 
  3848 ;;		 -> lineLCD(16), 
  3849 ;;  i               2    0[BANK0 ] int 
  3850 ;; Return value:  Size  Location     Type
  3851 ;;                  1    wreg      void 
  3852 ;; Registers used:
  3853 ;;		wreg, fsr0l, fsr0h, status,2, status,0, pclath, cstack
  3854 ;; Tracked objects:
  3855 ;;		On entry : 0/0
  3856 ;;		On exit  : 0/0
  3857 ;;		Unchanged: 0/0
  3858 ;; Data sizes:     COMMON   BANK0   BANK1   BANK3   BANK2
  3859 ;;      Params:         0       0       0       0       0
  3860 ;;      Locals:         0       3       0       0       0
  3861 ;;      Temps:          1       0       0       0       0
  3862 ;;      Totals:         1       3       0       0       0
  3863 ;;Total ram usage:        4 bytes
  3864 ;; Hardware stack levels used: 1
  3865 ;; Hardware stack levels required when called: 3
  3866 ;; This function calls:
  3867 ;;		_Lcd_Write_Char
  3868 ;; This function is called by:
  3869 ;;		_main
  3870 ;; This function uses a non-reentrant model
  3871 ;;
  3872                           
  3873     0780                     _Lcd_Write_String:	
  3874                           ;psect for function _Lcd_Write_String
  3875                           
  3876                           
  3877                           ;incstack = 0
  3878                           ; Regs used in _Lcd_Write_String: [wreg-fsr0h+status,2+status,0+pclath+cstack]
  3879                           ;Lcd_Write_String@a stored from wreg
  3880     0780  1283               	bcf	3,5	;RP0=0, select bank0
  3881     0781  1303               	bcf	3,6	;RP1=0, select bank0
  3882     0782  00A2               	movwf	Lcd_Write_String@a
  3883     0783                     l2360:
  3884                           
  3885                           ;lcd.c: 105:     int i;;lcd.c: 106:     for (i = 0; a[i] != '\0'; i++)
  3886     0783  01A0               	clrf	Lcd_Write_String@i
  3887     0784  01A1               	clrf	Lcd_Write_String@i+1
  3888     0785  2F99               	goto	l2366
  3889     0786                     l2362:
  3890                           
  3891                           ;lcd.c: 107:         Lcd_Write_Char(a[i]);
  3892     0786  0820               	movf	Lcd_Write_String@i,w
  3893     0787  0722               	addwf	Lcd_Write_String@a,w
  3894     0788  00F6               	movwf	??_Lcd_Write_String
  3895     0789  0876               	movf	??_Lcd_Write_String,w
  3896     078A  0084               	movwf	4
  3897     078B  0800               	movf	0,w
  3898     078C  120A  158A  27CC  120A  118A  	fcall	_Lcd_Write_Char
  3899     0791                     l2364:
  3900     0791  3001               	movlw	1
  3901     0792  1283               	bcf	3,5	;RP0=0, select bank0
  3902     0793  1303               	bcf	3,6	;RP1=0, select bank0
  3903     0794  07A0               	addwf	Lcd_Write_String@i,f
  3904     0795  1803               	skipnc
  3905     0796  0AA1               	incf	Lcd_Write_String@i+1,f
  3906     0797  3000               	movlw	0
  3907     0798  07A1               	addwf	Lcd_Write_String@i+1,f
  3908     0799                     l2366:
  3909     0799  0820               	movf	Lcd_Write_String@i,w
  3910     079A  0722               	addwf	Lcd_Write_String@a,w
  3911     079B  00F6               	movwf	??_Lcd_Write_String
  3912     079C  0876               	movf	??_Lcd_Write_String,w
  3913     079D  0084               	movwf	4
  3914     079E  1383               	bcf	3,7	;select IRP bank0
  3915     079F  0800               	movf	0,w
  3916     07A0  1D03               	btfss	3,2
  3917     07A1  2FA3               	goto	u2161
  3918     07A2  2FA4               	goto	u2160
  3919     07A3                     u2161:
  3920     07A3  2F86               	goto	l2362
  3921     07A4                     u2160:
  3922     07A4                     l67:
  3923     07A4  0008               	return
  3924     07A5                     __end_of_Lcd_Write_String:
  3925                           
  3926                           	psect	text18
  3927     0FCC                     __ptext18:	
  3928 ;; *************** function _Lcd_Write_Char *****************
  3929 ;; Defined at:
  3930 ;;		line 96 in file "lcd.c"
  3931 ;; Parameters:    Size  Location     Type
  3932 ;;  a               1    wreg     unsigned char 
  3933 ;; Auto vars:     Size  Location     Type
  3934 ;;  a               1    5[COMMON] unsigned char 
  3935 ;; Return value:  Size  Location     Type
  3936 ;;                  1    wreg      void 
  3937 ;; Registers used:
  3938 ;;		wreg, status,2, status,0, pclath, cstack
  3939 ;; Tracked objects:
  3940 ;;		On entry : 0/0
  3941 ;;		On exit  : 0/0
  3942 ;;		Unchanged: 0/0
  3943 ;; Data sizes:     COMMON   BANK0   BANK1   BANK3   BANK2
  3944 ;;      Params:         0       0       0       0       0
  3945 ;;      Locals:         1       0       0       0       0
  3946 ;;      Temps:          1       0       0       0       0
  3947 ;;      Totals:         2       0       0       0       0
  3948 ;;Total ram usage:        2 bytes
  3949 ;; Hardware stack levels used: 1
  3950 ;; Hardware stack levels required when called: 2
  3951 ;; This function calls:
  3952 ;;		_Lcd_Port
  3953 ;; This function is called by:
  3954 ;;		_Lcd_Write_String
  3955 ;; This function uses a non-reentrant model
  3956 ;;
  3957                           
  3958     0FCC                     _Lcd_Write_Char:	
  3959                           ;psect for function _Lcd_Write_Char
  3960                           
  3961                           
  3962                           ;incstack = 0
  3963                           ; Regs used in _Lcd_Write_Char: [wreg+status,2+status,0+pclath+cstack]
  3964                           ;Lcd_Write_Char@a stored from wreg
  3965     0FCC  00F5               	movwf	Lcd_Write_Char@a
  3966     0FCD                     l2262:
  3967                           
  3968                           ;lcd.c: 97:     RC0 = 1;
  3969     0FCD  1283               	bcf	3,5	;RP0=0, select bank0
  3970     0FCE  1303               	bcf	3,6	;RP1=0, select bank0
  3971     0FCF  1407               	bsf	7,0	;volatile
  3972     0FD0                     l2264:
  3973                           
  3974                           ;lcd.c: 98:     Lcd_Port(a);
  3975     0FD0  0875               	movf	Lcd_Write_Char@a,w
  3976     0FD1  120A  118A  25F4  120A  158A  	fcall	_Lcd_Port
  3977     0FD6                     l2266:
  3978                           
  3979                           ;lcd.c: 99:     RC1 = 1;
  3980     0FD6  1283               	bcf	3,5	;RP0=0, select bank0
  3981     0FD7  1303               	bcf	3,6	;RP1=0, select bank0
  3982     0FD8  1487               	bsf	7,1	;volatile
  3983     0FD9                     l2268:
  3984                           
  3985                           ;lcd.c: 100:     _delay((unsigned long)((40)*(8000000/4000000.0)));
  3986     0FD9  301A               	movlw	26
  3987     0FDA  00F4               	movwf	??_Lcd_Write_Char
  3988     0FDB                     u2387:
  3989     0FDB  0BF4               	decfsz	??_Lcd_Write_Char,f
  3990     0FDC  2FDB               	goto	u2387
  3991     0FDD  0000               	nop
  3992     0FDE                     l2270:
  3993                           
  3994                           ;lcd.c: 101:     RC1 = 0;
  3995     0FDE  1283               	bcf	3,5	;RP0=0, select bank0
  3996     0FDF  1303               	bcf	3,6	;RP1=0, select bank0
  3997     0FE0  1087               	bcf	7,1	;volatile
  3998     0FE1                     l61:
  3999     0FE1  0008               	return
  4000     0FE2                     __end_of_Lcd_Write_Char:
  4001                           
  4002                           	psect	text19
  4003     07A5                     __ptext19:	
  4004 ;; *************** function _Lcd_Set_Cursor *****************
  4005 ;; Defined at:
  4006 ;;		line 68 in file "lcd.c"
  4007 ;; Parameters:    Size  Location     Type
  4008 ;;  a               1    wreg     unsigned char 
  4009 ;;  b               1    7[COMMON] unsigned char 
  4010 ;; Auto vars:     Size  Location     Type
  4011 ;;  a               1    0[BANK0 ] unsigned char 
  4012 ;;  temp            1    1[BANK0 ] unsigned char 
  4013 ;; Return value:  Size  Location     Type
  4014 ;;                  1    wreg      void 
  4015 ;; Registers used:
  4016 ;;		wreg, status,2, status,0, pclath, cstack
  4017 ;; Tracked objects:
  4018 ;;		On entry : 0/0
  4019 ;;		On exit  : 0/0
  4020 ;;		Unchanged: 0/0
  4021 ;; Data sizes:     COMMON   BANK0   BANK1   BANK3   BANK2
  4022 ;;      Params:         1       0       0       0       0
  4023 ;;      Locals:         0       2       0       0       0
  4024 ;;      Temps:          0       0       0       0       0
  4025 ;;      Totals:         1       2       0       0       0
  4026 ;;Total ram usage:        3 bytes
  4027 ;; Hardware stack levels used: 1
  4028 ;; Hardware stack levels required when called: 3
  4029 ;; This function calls:
  4030 ;;		_Lcd_Cmd
  4031 ;; This function is called by:
  4032 ;;		_main
  4033 ;; This function uses a non-reentrant model
  4034 ;;
  4035                           
  4036     07A5                     _Lcd_Set_Cursor:	
  4037                           ;psect for function _Lcd_Set_Cursor
  4038                           
  4039                           
  4040                           ;incstack = 0
  4041                           ; Regs used in _Lcd_Set_Cursor: [wreg+status,2+status,0+pclath+cstack]
  4042                           ;Lcd_Set_Cursor@a stored from wreg
  4043     07A5  1283               	bcf	3,5	;RP0=0, select bank0
  4044     07A6  1303               	bcf	3,6	;RP1=0, select bank0
  4045     07A7  00A0               	movwf	Lcd_Set_Cursor@a
  4046     07A8                     l2348:
  4047                           
  4048                           ;lcd.c: 69:     unsigned char temp;;lcd.c: 70:     if (a == 1) {
  4049     07A8  0320               	decf	Lcd_Set_Cursor@a,w
  4050     07A9  1D03               	btfss	3,2
  4051     07AA  2FAC               	goto	u2141
  4052     07AB  2FAD               	goto	u2140
  4053     07AC                     u2141:
  4054     07AC  2FB7               	goto	l2354
  4055     07AD                     u2140:
  4056     07AD                     l2350:
  4057                           
  4058                           ;lcd.c: 71:         temp = 0x80 + b - 1;
  4059     07AD  0877               	movf	Lcd_Set_Cursor@b,w
  4060     07AE  3E7F               	addlw	127
  4061     07AF  00A1               	movwf	Lcd_Set_Cursor@temp
  4062     07B0                     l2352:
  4063                           
  4064                           ;lcd.c: 72:         Lcd_Cmd(temp);
  4065     07B0  0821               	movf	Lcd_Set_Cursor@temp,w
  4066     07B1  120A  118A  27E6  120A  118A  	fcall	_Lcd_Cmd
  4067                           
  4068                           ;lcd.c: 74:     } else if (a == 2) {
  4069     07B6  2FC6               	goto	l55
  4070     07B7                     l2354:
  4071     07B7  3002               	movlw	2
  4072     07B8  0620               	xorwf	Lcd_Set_Cursor@a,w
  4073     07B9  1D03               	btfss	3,2
  4074     07BA  2FBC               	goto	u2151
  4075     07BB  2FBD               	goto	u2150
  4076     07BC                     u2151:
  4077     07BC  2FC6               	goto	l55
  4078     07BD                     u2150:
  4079     07BD                     l2356:
  4080                           
  4081                           ;lcd.c: 75:         temp = 0xC0 + b - 1;
  4082     07BD  0877               	movf	Lcd_Set_Cursor@b,w
  4083     07BE  3EBF               	addlw	191
  4084     07BF  00A1               	movwf	Lcd_Set_Cursor@temp
  4085     07C0                     l2358:
  4086                           
  4087                           ;lcd.c: 76:         Lcd_Cmd(temp);
  4088     07C0  0821               	movf	Lcd_Set_Cursor@temp,w
  4089     07C1  120A  118A  27E6  120A  118A  	fcall	_Lcd_Cmd
  4090     07C6                     l55:
  4091     07C6  0008               	return
  4092     07C7                     __end_of_Lcd_Set_Cursor:
  4093                           
  4094                           	psect	text20
  4095     0F98                     __ptext20:	
  4096 ;; *************** function _Lcd_Clear *****************
  4097 ;; Defined at:
  4098 ;;		line 63 in file "lcd.c"
  4099 ;; Parameters:    Size  Location     Type
  4100 ;;		None
  4101 ;; Auto vars:     Size  Location     Type
  4102 ;;		None
  4103 ;; Return value:  Size  Location     Type
  4104 ;;                  1    wreg      void 
  4105 ;; Registers used:
  4106 ;;		wreg, status,2, status,0, pclath, cstack
  4107 ;; Tracked objects:
  4108 ;;		On entry : 0/0
  4109 ;;		On exit  : 0/0
  4110 ;;		Unchanged: 0/0
  4111 ;; Data sizes:     COMMON   BANK0   BANK1   BANK3   BANK2
  4112 ;;      Params:         0       0       0       0       0
  4113 ;;      Locals:         0       0       0       0       0
  4114 ;;      Temps:          0       0       0       0       0
  4115 ;;      Totals:         0       0       0       0       0
  4116 ;;Total ram usage:        0 bytes
  4117 ;; Hardware stack levels used: 1
  4118 ;; Hardware stack levels required when called: 3
  4119 ;; This function calls:
  4120 ;;		_Lcd_Cmd
  4121 ;; This function is called by:
  4122 ;;		_main
  4123 ;; This function uses a non-reentrant model
  4124 ;;
  4125                           
  4126     0F98                     _Lcd_Clear:	
  4127                           ;psect for function _Lcd_Clear
  4128                           
  4129     0F98                     l2346:	
  4130                           ;incstack = 0
  4131                           ; Regs used in _Lcd_Clear: [wreg+status,2+status,0+pclath+cstack]
  4132                           
  4133                           
  4134                           ;lcd.c: 64:     Lcd_Cmd(0);
  4135     0F98  3000               	movlw	0
  4136     0F99  120A  118A  27E6  120A  158A  	fcall	_Lcd_Cmd
  4137                           
  4138                           ;lcd.c: 65:     Lcd_Cmd(1);
  4139     0F9E  3001               	movlw	1
  4140     0F9F  120A  118A  27E6  120A  158A  	fcall	_Lcd_Cmd
  4141     0FA4                     l49:
  4142     0FA4  0008               	return
  4143     0FA5                     __end_of_Lcd_Clear:
  4144                           
  4145                           	psect	text21
  4146     07E6                     __ptext21:	
  4147 ;; *************** function _Lcd_Cmd *****************
  4148 ;; Defined at:
  4149 ;;		line 55 in file "lcd.c"
  4150 ;; Parameters:    Size  Location     Type
  4151 ;;  a               1    wreg     unsigned char 
  4152 ;; Auto vars:     Size  Location     Type
  4153 ;;  a               1    6[COMMON] unsigned char 
  4154 ;; Return value:  Size  Location     Type
  4155 ;;                  1    wreg      void 
  4156 ;; Registers used:
  4157 ;;		wreg, status,2, status,0, pclath, cstack
  4158 ;; Tracked objects:
  4159 ;;		On entry : 0/0
  4160 ;;		On exit  : 0/0
  4161 ;;		Unchanged: 0/0
  4162 ;; Data sizes:     COMMON   BANK0   BANK1   BANK3   BANK2
  4163 ;;      Params:         0       0       0       0       0
  4164 ;;      Locals:         1       0       0       0       0
  4165 ;;      Temps:          2       0       0       0       0
  4166 ;;      Totals:         3       0       0       0       0
  4167 ;;Total ram usage:        3 bytes
  4168 ;; Hardware stack levels used: 1
  4169 ;; Hardware stack levels required when called: 2
  4170 ;; This function calls:
  4171 ;;		_Lcd_Port
  4172 ;; This function is called by:
  4173 ;;		_Lcd_Clear
  4174 ;;		_Lcd_Set_Cursor
  4175 ;;		_Lcd_Init
  4176 ;;		_Lcd_Shift_Right
  4177 ;;		_Lcd_Shift_Left
  4178 ;; This function uses a non-reentrant model
  4179 ;;
  4180                           
  4181     07E6                     _Lcd_Cmd:	
  4182                           ;psect for function _Lcd_Cmd
  4183                           
  4184                           
  4185                           ;incstack = 0
  4186                           ; Regs used in _Lcd_Cmd: [wreg+status,2+status,0+pclath+cstack]
  4187                           ;Lcd_Cmd@a stored from wreg
  4188     07E6  00F6               	movwf	Lcd_Cmd@a
  4189     07E7                     l2130:
  4190                           
  4191                           ;lcd.c: 56:     RC0 = 0;
  4192     07E7  1283               	bcf	3,5	;RP0=0, select bank0
  4193     07E8  1303               	bcf	3,6	;RP1=0, select bank0
  4194     07E9  1007               	bcf	7,0	;volatile
  4195     07EA                     l2132:
  4196                           
  4197                           ;lcd.c: 57:     Lcd_Port(a);
  4198     07EA  0876               	movf	Lcd_Cmd@a,w
  4199     07EB  120A  118A  25F4  120A  118A  	fcall	_Lcd_Port
  4200     07F0                     l2134:
  4201                           
  4202                           ;lcd.c: 58:     RC1 = 1;
  4203     07F0  1283               	bcf	3,5	;RP0=0, select bank0
  4204     07F1  1303               	bcf	3,6	;RP1=0, select bank0
  4205     07F2  1487               	bsf	7,1	;volatile
  4206     07F3                     l2136:
  4207                           
  4208                           ;lcd.c: 59:     _delay((unsigned long)((4)*(8000000/4000.0)));
  4209     07F3  300B               	movlw	11
  4210     07F4  00F5               	movwf	??_Lcd_Cmd+1
  4211     07F5  3062               	movlw	98
  4212     07F6  00F4               	movwf	??_Lcd_Cmd
  4213     07F7                     u2397:
  4214     07F7  0BF4               	decfsz	??_Lcd_Cmd,f
  4215     07F8  2FF7               	goto	u2397
  4216     07F9  0BF5               	decfsz	??_Lcd_Cmd+1,f
  4217     07FA  2FF7               	goto	u2397
  4218     07FB  0000               	nop
  4219     07FC                     l2138:
  4220                           
  4221                           ;lcd.c: 60:     RC1 = 0;
  4222     07FC  1283               	bcf	3,5	;RP0=0, select bank0
  4223     07FD  1303               	bcf	3,6	;RP1=0, select bank0
  4224     07FE  1087               	bcf	7,1	;volatile
  4225     07FF                     l46:
  4226     07FF  0008               	return
  4227     0800                     __end_of_Lcd_Cmd:
  4228                           
  4229                           	psect	text22
  4230     05F4                     __ptext22:	
  4231 ;; *************** function _Lcd_Port *****************
  4232 ;; Defined at:
  4233 ;;		line 13 in file "lcd.c"
  4234 ;; Parameters:    Size  Location     Type
  4235 ;;  a               1    wreg     unsigned char 
  4236 ;; Auto vars:     Size  Location     Type
  4237 ;;  a               1    3[COMMON] unsigned char 
  4238 ;; Return value:  Size  Location     Type
  4239 ;;                  1    wreg      void 
  4240 ;; Registers used:
  4241 ;;		wreg
  4242 ;; Tracked objects:
  4243 ;;		On entry : 0/0
  4244 ;;		On exit  : 0/0
  4245 ;;		Unchanged: 0/0
  4246 ;; Data sizes:     COMMON   BANK0   BANK1   BANK3   BANK2
  4247 ;;      Params:         0       0       0       0       0
  4248 ;;      Locals:         1       0       0       0       0
  4249 ;;      Temps:          0       0       0       0       0
  4250 ;;      Totals:         1       0       0       0       0
  4251 ;;Total ram usage:        1 bytes
  4252 ;; Hardware stack levels used: 1
  4253 ;; Hardware stack levels required when called: 1
  4254 ;; This function calls:
  4255 ;;		Nothing
  4256 ;; This function is called by:
  4257 ;;		_Lcd_Cmd
  4258 ;;		_Lcd_Init
  4259 ;;		_Lcd_Write_Char
  4260 ;; This function uses a non-reentrant model
  4261 ;;
  4262                           
  4263     05F4                     _Lcd_Port:	
  4264                           ;psect for function _Lcd_Port
  4265                           
  4266                           
  4267                           ;incstack = 0
  4268                           ; Regs used in _Lcd_Port: [wreg]
  4269                           ;Lcd_Port@a stored from wreg
  4270     05F4  00F3               	movwf	Lcd_Port@a
  4271     05F5                     l2112:
  4272                           
  4273                           ;lcd.c: 14:     if (a & 1)
  4274     05F5  1C73               	btfss	Lcd_Port@a,0
  4275     05F6  2DF8               	goto	u1671
  4276     05F7  2DF9               	goto	u1670
  4277     05F8                     u1671:
  4278     05F8  2DFD               	goto	l27
  4279     05F9                     u1670:
  4280     05F9                     l2114:
  4281                           
  4282                           ;lcd.c: 15:         RD0 = 1;
  4283     05F9  1283               	bcf	3,5	;RP0=0, select bank0
  4284     05FA  1303               	bcf	3,6	;RP1=0, select bank0
  4285     05FB  1408               	bsf	8,0	;volatile
  4286     05FC  2E00               	goto	l28
  4287     05FD                     l27:	
  4288                           ;lcd.c: 16:     else
  4289                           
  4290                           
  4291                           ;lcd.c: 17:         RD0 = 0;
  4292     05FD  1283               	bcf	3,5	;RP0=0, select bank0
  4293     05FE  1303               	bcf	3,6	;RP1=0, select bank0
  4294     05FF  1008               	bcf	8,0	;volatile
  4295     0600                     l28:
  4296                           
  4297                           ;lcd.c: 19:     if (a & 2)
  4298     0600  1CF3               	btfss	Lcd_Port@a,1
  4299     0601  2E03               	goto	u1681
  4300     0602  2E04               	goto	u1680
  4301     0603                     u1681:
  4302     0603  2E06               	goto	l29
  4303     0604                     u1680:
  4304     0604                     l2116:
  4305                           
  4306                           ;lcd.c: 20:         RD1 = 1;
  4307     0604  1488               	bsf	8,1	;volatile
  4308     0605  2E07               	goto	l30
  4309     0606                     l29:	
  4310                           ;lcd.c: 21:     else
  4311                           
  4312                           
  4313                           ;lcd.c: 22:         RD1 = 0;
  4314     0606  1088               	bcf	8,1	;volatile
  4315     0607                     l30:
  4316                           
  4317                           ;lcd.c: 24:     if (a & 4)
  4318     0607  1D73               	btfss	Lcd_Port@a,2
  4319     0608  2E0A               	goto	u1691
  4320     0609  2E0B               	goto	u1690
  4321     060A                     u1691:
  4322     060A  2E0D               	goto	l31
  4323     060B                     u1690:
  4324     060B                     l2118:
  4325                           
  4326                           ;lcd.c: 25:         RD2 = 1;
  4327     060B  1508               	bsf	8,2	;volatile
  4328     060C  2E0E               	goto	l32
  4329     060D                     l31:	
  4330                           ;lcd.c: 26:     else
  4331                           
  4332                           
  4333                           ;lcd.c: 27:         RD2 = 0;
  4334     060D  1108               	bcf	8,2	;volatile
  4335     060E                     l32:
  4336                           
  4337                           ;lcd.c: 29:     if (a & 8)
  4338     060E  1DF3               	btfss	Lcd_Port@a,3
  4339     060F  2E11               	goto	u1701
  4340     0610  2E12               	goto	u1700
  4341     0611                     u1701:
  4342     0611  2E14               	goto	l33
  4343     0612                     u1700:
  4344     0612                     l2120:
  4345                           
  4346                           ;lcd.c: 30:         RD3 = 1;
  4347     0612  1588               	bsf	8,3	;volatile
  4348     0613  2E15               	goto	l34
  4349     0614                     l33:	
  4350                           ;lcd.c: 31:     else
  4351                           
  4352                           
  4353                           ;lcd.c: 32:         RD3 = 0;
  4354     0614  1188               	bcf	8,3	;volatile
  4355     0615                     l34:
  4356                           
  4357                           ;lcd.c: 34:     if (a & 16)
  4358     0615  1E73               	btfss	Lcd_Port@a,4
  4359     0616  2E18               	goto	u1711
  4360     0617  2E19               	goto	u1710
  4361     0618                     u1711:
  4362     0618  2E1B               	goto	l35
  4363     0619                     u1710:
  4364     0619                     l2122:
  4365                           
  4366                           ;lcd.c: 35:         RD4 = 1;
  4367     0619  1608               	bsf	8,4	;volatile
  4368     061A  2E1C               	goto	l36
  4369     061B                     l35:	
  4370                           ;lcd.c: 36:     else
  4371                           
  4372                           
  4373                           ;lcd.c: 37:         RD4 = 0;
  4374     061B  1208               	bcf	8,4	;volatile
  4375     061C                     l36:
  4376                           
  4377                           ;lcd.c: 39:     if (a & 32)
  4378     061C  1EF3               	btfss	Lcd_Port@a,5
  4379     061D  2E1F               	goto	u1721
  4380     061E  2E20               	goto	u1720
  4381     061F                     u1721:
  4382     061F  2E22               	goto	l37
  4383     0620                     u1720:
  4384     0620                     l2124:
  4385                           
  4386                           ;lcd.c: 40:         RD5 = 1;
  4387     0620  1688               	bsf	8,5	;volatile
  4388     0621  2E23               	goto	l38
  4389     0622                     l37:	
  4390                           ;lcd.c: 41:     else
  4391                           
  4392                           
  4393                           ;lcd.c: 42:         RD5 = 0;
  4394     0622  1288               	bcf	8,5	;volatile
  4395     0623                     l38:
  4396                           
  4397                           ;lcd.c: 44:     if (a & 64)
  4398     0623  1F73               	btfss	Lcd_Port@a,6
  4399     0624  2E26               	goto	u1731
  4400     0625  2E27               	goto	u1730
  4401     0626                     u1731:
  4402     0626  2E29               	goto	l39
  4403     0627                     u1730:
  4404     0627                     l2126:
  4405                           
  4406                           ;lcd.c: 45:         RD6 = 1;
  4407     0627  1708               	bsf	8,6	;volatile
  4408     0628  2E2A               	goto	l40
  4409     0629                     l39:	
  4410                           ;lcd.c: 46:     else
  4411                           
  4412                           
  4413                           ;lcd.c: 47:         RD6 = 0;
  4414     0629  1308               	bcf	8,6	;volatile
  4415     062A                     l40:
  4416                           
  4417                           ;lcd.c: 49:     if (a & 128)
  4418     062A  1FF3               	btfss	Lcd_Port@a,7
  4419     062B  2E2D               	goto	u1741
  4420     062C  2E2E               	goto	u1740
  4421     062D                     u1741:
  4422     062D  2E30               	goto	l41
  4423     062E                     u1740:
  4424     062E                     l2128:
  4425                           
  4426                           ;lcd.c: 50:         RD7 = 1;
  4427     062E  1788               	bsf	8,7	;volatile
  4428     062F  2E31               	goto	l43
  4429     0630                     l41:	
  4430                           ;lcd.c: 51:     else
  4431                           
  4432                           
  4433                           ;lcd.c: 52:         RD7 = 0;
  4434     0630  1388               	bcf	8,7	;volatile
  4435     0631                     l43:
  4436     0631  0008               	return
  4437     0632                     __end_of_Lcd_Port:
  4438                           
  4439                           	psect	text23
  4440     0F66                     __ptext23:	
  4441 ;; *************** function _I2C_Master_RepeatedStart *****************
  4442 ;; Defined at:
  4443 ;;		line 47 in file "I2C.c"
  4444 ;; Parameters:    Size  Location     Type
  4445 ;;		None
  4446 ;; Auto vars:     Size  Location     Type
  4447 ;;		None
  4448 ;; Return value:  Size  Location     Type
  4449 ;;                  1    wreg      void 
  4450 ;; Registers used:
  4451 ;;		wreg, status,2, status,0, pclath, cstack
  4452 ;; Tracked objects:
  4453 ;;		On entry : 0/0
  4454 ;;		On exit  : 0/0
  4455 ;;		Unchanged: 0/0
  4456 ;; Data sizes:     COMMON   BANK0   BANK1   BANK3   BANK2
  4457 ;;      Params:         0       0       0       0       0
  4458 ;;      Locals:         0       0       0       0       0
  4459 ;;      Temps:          0       0       0       0       0
  4460 ;;      Totals:         0       0       0       0       0
  4461 ;;Total ram usage:        0 bytes
  4462 ;; Hardware stack levels used: 1
  4463 ;; Hardware stack levels required when called: 2
  4464 ;; This function calls:
  4465 ;;		_I2C_Master_Wait
  4466 ;; This function is called by:
  4467 ;;		_main
  4468 ;; This function uses a non-reentrant model
  4469 ;;
  4470                           
  4471     0F66                     _I2C_Master_RepeatedStart:	
  4472                           ;psect for function _I2C_Master_RepeatedStart
  4473                           
  4474     0F66                     l2368:	
  4475                           ;incstack = 0
  4476                           ; Regs used in _I2C_Master_RepeatedStart: [wreg+status,2+status,0+pclath+cstack]
  4477                           
  4478                           
  4479                           ;I2C.c: 49:     I2C_Master_Wait();
  4480     0F66  120A  158A  278B  120A  158A  	fcall	_I2C_Master_Wait
  4481     0F6B                     l2370:
  4482                           
  4483                           ;I2C.c: 50:     SSPCON2bits.RSEN = 1;
  4484     0F6B  1683               	bsf	3,5	;RP0=1, select bank1
  4485     0F6C  1303               	bcf	3,6	;RP1=0, select bank1
  4486     0F6D  1491               	bsf	17,1	;volatile
  4487     0F6E                     l126:
  4488     0F6E  0008               	return
  4489     0F6F                     __end_of_I2C_Master_RepeatedStart:
  4490                           
  4491                           	psect	text24
  4492     0750                     __ptext24:	
  4493 ;; *************** function _I2C_Master_Read *****************
  4494 ;; Defined at:
  4495 ;;		line 74 in file "I2C.c"
  4496 ;; Parameters:    Size  Location     Type
  4497 ;;  a               2    3[COMMON] unsigned short 
  4498 ;; Auto vars:     Size  Location     Type
  4499 ;;  temp            2    0[BANK0 ] unsigned short 
  4500 ;; Return value:  Size  Location     Type
  4501 ;;                  2    3[COMMON] unsigned short 
  4502 ;; Registers used:
  4503 ;;		wreg, status,2, status,0, pclath, cstack
  4504 ;; Tracked objects:
  4505 ;;		On entry : 0/0
  4506 ;;		On exit  : 0/0
  4507 ;;		Unchanged: 0/0
  4508 ;; Data sizes:     COMMON   BANK0   BANK1   BANK3   BANK2
  4509 ;;      Params:         2       0       0       0       0
  4510 ;;      Locals:         0       2       0       0       0
  4511 ;;      Temps:          2       0       0       0       0
  4512 ;;      Totals:         4       2       0       0       0
  4513 ;;Total ram usage:        6 bytes
  4514 ;; Hardware stack levels used: 1
  4515 ;; Hardware stack levels required when called: 2
  4516 ;; This function calls:
  4517 ;;		_I2C_Master_Wait
  4518 ;; This function is called by:
  4519 ;;		_main
  4520 ;; This function uses a non-reentrant model
  4521 ;;
  4522                           
  4523     0750                     _I2C_Master_Read:	
  4524                           ;psect for function _I2C_Master_Read
  4525                           
  4526     0750                     l2372:	
  4527                           ;incstack = 0
  4528                           ; Regs used in _I2C_Master_Read: [wreg+status,2+status,0+pclath+cstack]
  4529                           
  4530                           
  4531                           ;I2C.c: 74: unsigned short I2C_Master_Read(unsigned short a);I2C.c: 75: {;I2C.c: 76:    
      +                           unsigned short temp;;I2C.c: 77:     I2C_Master_Wait();
  4532     0750  120A  158A  278B  120A  118A  	fcall	_I2C_Master_Wait
  4533     0755                     l2374:
  4534                           
  4535                           ;I2C.c: 78:     SSPCON2bits.RCEN = 1;
  4536     0755  1683               	bsf	3,5	;RP0=1, select bank1
  4537     0756  1303               	bcf	3,6	;RP1=0, select bank1
  4538     0757  1591               	bsf	17,3	;volatile
  4539                           
  4540                           ;I2C.c: 79:     I2C_Master_Wait();
  4541     0758  120A  158A  278B  120A  118A  	fcall	_I2C_Master_Wait
  4542     075D                     l2376:
  4543                           
  4544                           ;I2C.c: 80:     temp = SSPBUF;
  4545     075D  1283               	bcf	3,5	;RP0=0, select bank0
  4546     075E  1303               	bcf	3,6	;RP1=0, select bank0
  4547     075F  0813               	movf	19,w	;volatile
  4548     0760  00F5               	movwf	??_I2C_Master_Read
  4549     0761  01F6               	clrf	??_I2C_Master_Read+1
  4550     0762  0875               	movf	??_I2C_Master_Read,w
  4551     0763  00A0               	movwf	I2C_Master_Read@temp
  4552     0764  0876               	movf	??_I2C_Master_Read+1,w
  4553     0765  00A1               	movwf	I2C_Master_Read@temp+1
  4554     0766                     l2378:
  4555                           
  4556                           ;I2C.c: 81:     I2C_Master_Wait();
  4557     0766  120A  158A  278B  120A  118A  	fcall	_I2C_Master_Wait
  4558     076B                     l2380:
  4559                           
  4560                           ;I2C.c: 82:     if(a == 1){
  4561     076B  0373               	decf	I2C_Master_Read@a,w
  4562     076C  0474               	iorwf	I2C_Master_Read@a+1,w
  4563     076D  1D03               	btfss	3,2
  4564     076E  2F70               	goto	u2171
  4565     076F  2F71               	goto	u2170
  4566     0770                     u2171:
  4567     0770  2F75               	goto	l135
  4568     0771                     u2170:
  4569     0771                     l2382:
  4570                           
  4571                           ;I2C.c: 83:         SSPCON2bits.ACKDT = 0;
  4572     0771  1683               	bsf	3,5	;RP0=1, select bank1
  4573     0772  1303               	bcf	3,6	;RP1=0, select bank1
  4574     0773  1291               	bcf	17,5	;volatile
  4575                           
  4576                           ;I2C.c: 84:     }else{
  4577     0774  2F78               	goto	l136
  4578     0775                     l135:
  4579                           
  4580                           ;I2C.c: 85:         SSPCON2bits.ACKDT = 1;
  4581     0775  1683               	bsf	3,5	;RP0=1, select bank1
  4582     0776  1303               	bcf	3,6	;RP1=0, select bank1
  4583     0777  1691               	bsf	17,5	;volatile
  4584     0778                     l136:	
  4585                           ;I2C.c: 86:     }
  4586                           
  4587                           
  4588                           ;I2C.c: 87:     SSPCON2bits.ACKEN = 1;
  4589     0778  1611               	bsf	17,4	;volatile
  4590     0779                     l2384:
  4591                           
  4592                           ;I2C.c: 88:     return temp;
  4593     0779  1283               	bcf	3,5	;RP0=0, select bank0
  4594     077A  1303               	bcf	3,6	;RP1=0, select bank0
  4595     077B  0821               	movf	I2C_Master_Read@temp+1,w
  4596     077C  00F4               	movwf	?_I2C_Master_Read+1
  4597     077D  0820               	movf	I2C_Master_Read@temp,w
  4598     077E  00F3               	movwf	?_I2C_Master_Read
  4599     077F                     l137:
  4600     077F  0008               	return
  4601     0780                     __end_of_I2C_Master_Read:
  4602                           
  4603                           	psect	text25
  4604     0F8B                     __ptext25:	
  4605 ;; *************** function _I2C_Master_Wait *****************
  4606 ;; Defined at:
  4607 ;;		line 32 in file "I2C.c"
  4608 ;; Parameters:    Size  Location     Type
  4609 ;;		None
  4610 ;; Auto vars:     Size  Location     Type
  4611 ;;		None
  4612 ;; Return value:  Size  Location     Type
  4613 ;;                  1    wreg      void 
  4614 ;; Registers used:
  4615 ;;		wreg, status,2
  4616 ;; Tracked objects:
  4617 ;;		On entry : 0/0
  4618 ;;		On exit  : 0/0
  4619 ;;		Unchanged: 0/0
  4620 ;; Data sizes:     COMMON   BANK0   BANK1   BANK3   BANK2
  4621 ;;      Params:         0       0       0       0       0
  4622 ;;      Locals:         0       0       0       0       0
  4623 ;;      Temps:          0       0       0       0       0
  4624 ;;      Totals:         0       0       0       0       0
  4625 ;;Total ram usage:        0 bytes
  4626 ;; Hardware stack levels used: 1
  4627 ;; Hardware stack levels required when called: 1
  4628 ;; This function calls:
  4629 ;;		Nothing
  4630 ;; This function is called by:
  4631 ;;		_I2C_Master_Start
  4632 ;;		_I2C_Master_RepeatedStart
  4633 ;;		_I2C_Master_Stop
  4634 ;;		_I2C_Master_Write
  4635 ;;		_I2C_Master_Read
  4636 ;; This function uses a non-reentrant model
  4637 ;;
  4638                           
  4639     0F8B                     _I2C_Master_Wait:	
  4640                           ;psect for function _I2C_Master_Wait
  4641                           
  4642     0F8B                     l2140:	
  4643                           ;incstack = 0
  4644                           ; Regs used in _I2C_Master_Wait: [wreg+status,2]
  4645                           
  4646     0F8B                     l117:	
  4647                           ;I2C.c: 34:     while ((SSPSTAT & 0x04) || (SSPCON2 & 0x1F));
  4648                           
  4649     0F8B  1683               	bsf	3,5	;RP0=1, select bank1
  4650     0F8C  1303               	bcf	3,6	;RP1=0, select bank1
  4651     0F8D  1914               	btfsc	20,2	;volatile
  4652     0F8E  2F90               	goto	u1751
  4653     0F8F  2F91               	goto	u1750
  4654     0F90                     u1751:
  4655     0F90  2F8B               	goto	l117
  4656     0F91                     u1750:
  4657     0F91                     l2142:
  4658     0F91  0811               	movf	17,w	;volatile
  4659     0F92  391F               	andlw	31
  4660     0F93  1D03               	btfss	3,2
  4661     0F94  2F96               	goto	u1761
  4662     0F95  2F97               	goto	u1760
  4663     0F96                     u1761:
  4664     0F96  2F8B               	goto	l117
  4665     0F97                     u1760:
  4666     0F97                     l120:
  4667     0F97  0008               	return
  4668     0F98                     __end_of_I2C_Master_Wait:
  4669                           
  4670                           	psect	text26
  4671     07C7                     __ptext26:	
  4672 ;; *************** function _BCD_to_Decimal *****************
  4673 ;; Defined at:
  4674 ;;		line 235 in file "E:/Universidad/Semestre2_2023/Digital-2/Lab4/Lab4_Master.X/Lab4_Master.c"
  4675 ;; Parameters:    Size  Location     Type
  4676 ;;  bcd_value       1    wreg     unsigned char 
  4677 ;; Auto vars:     Size  Location     Type
  4678 ;;  bcd_value       1    3[BANK0 ] unsigned char 
  4679 ;;  decimal_valu    1    2[BANK0 ] unsigned char 
  4680 ;;  ones_digit      1    1[BANK0 ] unsigned char 
  4681 ;;  tens_digit      1    0[BANK0 ] unsigned char 
  4682 ;; Return value:  Size  Location     Type
  4683 ;;                  1    wreg      unsigned char 
  4684 ;; Registers used:
  4685 ;;		wreg, status,2, status,0, btemp+1, pclath, cstack
  4686 ;; Tracked objects:
  4687 ;;		On entry : 0/0
  4688 ;;		On exit  : 0/0
  4689 ;;		Unchanged: 0/0
  4690 ;; Data sizes:     COMMON   BANK0   BANK1   BANK3   BANK2
  4691 ;;      Params:         0       0       0       0       0
  4692 ;;      Locals:         0       4       0       0       0
  4693 ;;      Temps:          1       0       0       0       0
  4694 ;;      Totals:         1       4       0       0       0
  4695 ;;Total ram usage:        5 bytes
  4696 ;; Hardware stack levels used: 1
  4697 ;; Hardware stack levels required when called: 2
  4698 ;; This function calls:
  4699 ;;		___bmul
  4700 ;; This function is called by:
  4701 ;;		_main
  4702 ;; This function uses a non-reentrant model
  4703 ;;
  4704                           
  4705     07C7                     _BCD_to_Decimal:	
  4706                           ;psect for function _BCD_to_Decimal
  4707                           
  4708                           
  4709                           ;incstack = 0
  4710                           ; Regs used in _BCD_to_Decimal: [wreg+status,2+status,0+btemp+1+pclath+cstack]
  4711                           ;BCD_to_Decimal@bcd_value stored from wreg
  4712     07C7  1283               	bcf	3,5	;RP0=0, select bank0
  4713     07C8  1303               	bcf	3,6	;RP1=0, select bank0
  4714     07C9  00A3               	movwf	BCD_to_Decimal@bcd_value
  4715     07CA                     l2454:
  4716                           
  4717                           ;E:/Universidad/Semestre2_2023/Digital-2/Lab4/Lab4_Master.X/Lab4_Master.c: 237:     uint
      +                          8_t tens_digit = (bcd_value >> 4) & 0x0F;
  4718     07CA  0823               	movf	BCD_to_Decimal@bcd_value,w
  4719     07CB  00F6               	movwf	??_BCD_to_Decimal
  4720     07CC  3004               	movlw	4
  4721     07CD                     u2185:
  4722     07CD  1003               	clrc
  4723     07CE  0CF6               	rrf	??_BCD_to_Decimal,f
  4724     07CF  3EFF               	addlw	-1
  4725     07D0  1D03               	skipz
  4726     07D1  2FCD               	goto	u2185
  4727     07D2  0876               	movf	??_BCD_to_Decimal,w
  4728     07D3  390F               	andlw	15
  4729     07D4  00A0               	movwf	BCD_to_Decimal@tens_digit
  4730     07D5                     l2456:
  4731                           
  4732                           ;E:/Universidad/Semestre2_2023/Digital-2/Lab4/Lab4_Master.X/Lab4_Master.c: 240:     uint
      +                          8_t ones_digit = bcd_value & 0x0F;
  4733     07D5  0823               	movf	BCD_to_Decimal@bcd_value,w
  4734     07D6  390F               	andlw	15
  4735     07D7  00A1               	movwf	BCD_to_Decimal@ones_digit
  4736     07D8                     l2458:
  4737                           
  4738                           ;E:/Universidad/Semestre2_2023/Digital-2/Lab4/Lab4_Master.X/Lab4_Master.c: 243:     uint
      +                          8_t decimal_value = (tens_digit * 10) + ones_digit;
  4739     07D8  300A               	movlw	10
  4740     07D9  00F3               	movwf	___bmul@multiplicand
  4741     07DA  0820               	movf	BCD_to_Decimal@tens_digit,w
  4742     07DB  120A  158A  27B7  120A  118A  	fcall	___bmul
  4743     07E0  1283               	bcf	3,5	;RP0=0, select bank0
  4744     07E1  1303               	bcf	3,6	;RP1=0, select bank0
  4745     07E2  0721               	addwf	BCD_to_Decimal@ones_digit,w
  4746     07E3  00A2               	movwf	BCD_to_Decimal@decimal_value
  4747     07E4                     l2460:
  4748                           
  4749                           ;E:/Universidad/Semestre2_2023/Digital-2/Lab4/Lab4_Master.X/Lab4_Master.c: 245:     retu
      +                          rn decimal_value;
  4750     07E4  0822               	movf	BCD_to_Decimal@decimal_value,w
  4751     07E5                     l251:
  4752     07E5  0008               	return
  4753     07E6                     __end_of_BCD_to_Decimal:
  4754                           
  4755                           	psect	text27
  4756     0FB7                     __ptext27:	
  4757 ;; *************** function ___bmul *****************
  4758 ;; Defined at:
  4759 ;;		line 4 in file "C:\Program Files\Microchip\xc8\v2.41\pic\sources\c90\common\Umul8.c"
  4760 ;; Parameters:    Size  Location     Type
  4761 ;;  multiplier      1    wreg     unsigned char 
  4762 ;;  multiplicand    1    3[COMMON] unsigned char 
  4763 ;; Auto vars:     Size  Location     Type
  4764 ;;  multiplier      1    5[COMMON] unsigned char 
  4765 ;;  product         1    4[COMMON] unsigned char 
  4766 ;; Return value:  Size  Location     Type
  4767 ;;                  1    wreg      unsigned char 
  4768 ;; Registers used:
  4769 ;;		wreg, status,2, status,0, btemp+1
  4770 ;; Tracked objects:
  4771 ;;		On entry : 0/0
  4772 ;;		On exit  : 0/0
  4773 ;;		Unchanged: 0/0
  4774 ;; Data sizes:     COMMON   BANK0   BANK1   BANK3   BANK2
  4775 ;;      Params:         1       0       0       0       0
  4776 ;;      Locals:         2       0       0       0       0
  4777 ;;      Temps:          0       0       0       0       0
  4778 ;;      Totals:         3       0       0       0       0
  4779 ;;Total ram usage:        3 bytes
  4780 ;; Hardware stack levels used: 1
  4781 ;; Hardware stack levels required when called: 1
  4782 ;; This function calls:
  4783 ;;		Nothing
  4784 ;; This function is called by:
  4785 ;;		_BCD_to_Decimal
  4786 ;;		_sprintf
  4787 ;; This function uses a non-reentrant model
  4788 ;;
  4789                           
  4790     0FB7                     ___bmul:	
  4791                           ;psect for function ___bmul
  4792                           
  4793                           
  4794                           ;incstack = 0
  4795                           ; Regs used in ___bmul: [wreg+status,2+status,0+btemp+1]
  4796                           ;___bmul@multiplier stored from wreg
  4797     0FB7  00F5               	movwf	___bmul@multiplier
  4798     0FB8                     l2304:
  4799     0FB8  01F4               	clrf	___bmul@product
  4800     0FB9                     l2306:
  4801     0FB9  1C75               	btfss	___bmul@multiplier,0
  4802     0FBA  2FBC               	goto	u2051
  4803     0FBB  2FBD               	goto	u2050
  4804     0FBC                     u2051:
  4805     0FBC  2FC1               	goto	l2310
  4806     0FBD                     u2050:
  4807     0FBD                     l2308:
  4808     0FBD  0873               	movf	___bmul@multiplicand,w
  4809     0FBE  00FF               	movwf	btemp+1
  4810     0FBF  087F               	movf	btemp+1,w
  4811     0FC0  07F4               	addwf	___bmul@product,f
  4812     0FC1                     l2310:
  4813     0FC1  1003               	clrc
  4814     0FC2  0DF3               	rlf	___bmul@multiplicand,f
  4815     0FC3                     l2312:
  4816     0FC3  1003               	clrc
  4817     0FC4  0CF5               	rrf	___bmul@multiplier,f
  4818     0FC5                     l2314:
  4819     0FC5  0875               	movf	___bmul@multiplier,w
  4820     0FC6  1D03               	btfss	3,2
  4821     0FC7  2FC9               	goto	u2061
  4822     0FC8  2FCA               	goto	u2060
  4823     0FC9                     u2061:
  4824     0FC9  2FB9               	goto	l2306
  4825     0FCA                     u2060:
  4826     0FCA                     l2316:
  4827     0FCA  0874               	movf	___bmul@product,w
  4828     0FCB                     l405:
  4829     0FCB  0008               	return
  4830     0FCC                     __end_of___bmul:
  4831                           
  4832                           	psect	text28
  4833     0FE2                     __ptext28:	
  4834 ;; *************** function _isr *****************
  4835 ;; Defined at:
  4836 ;;		line 89 in file "E:/Universidad/Semestre2_2023/Digital-2/Lab4/Lab4_Master.X/Lab4_Master.c"
  4837 ;; Parameters:    Size  Location     Type
  4838 ;;		None
  4839 ;; Auto vars:     Size  Location     Type
  4840 ;;		None
  4841 ;; Return value:  Size  Location     Type
  4842 ;;                  1    wreg      void 
  4843 ;; Registers used:
  4844 ;;		wreg, status,2, status,0, btemp+1
  4845 ;; Tracked objects:
  4846 ;;		On entry : 0/0
  4847 ;;		On exit  : 0/0
  4848 ;;		Unchanged: 0/0
  4849 ;; Data sizes:     COMMON   BANK0   BANK1   BANK3   BANK2
  4850 ;;      Params:         0       0       0       0       0
  4851 ;;      Locals:         0       0       0       0       0
  4852 ;;      Temps:          3       0       0       0       0
  4853 ;;      Totals:         3       0       0       0       0
  4854 ;;Total ram usage:        3 bytes
  4855 ;; Hardware stack levels used: 1
  4856 ;; This function calls:
  4857 ;;		Nothing
  4858 ;; This function is called by:
  4859 ;;		Interrupt level 1
  4860 ;; This function uses a non-reentrant model
  4861 ;;
  4862                           
  4863     0FE2                     _isr:	
  4864                           ;psect for function _isr
  4865                           
  4866     0FE2                     i1l2010:
  4867                           
  4868                           ;E:/Universidad/Semestre2_2023/Digital-2/Lab4/Lab4_Master.X/Lab4_Master.c: 91:     if(RB
      +                          IF == 1) {
  4869     0FE2  1C0B               	btfss	11,0	;volatile
  4870     0FE3  2FE5               	goto	u164_21
  4871     0FE4  2FE6               	goto	u164_20
  4872     0FE5                     u164_21:
  4873     0FE5  2FF7               	goto	i1l234
  4874     0FE6                     u164_20:
  4875     0FE6                     i1l2012:
  4876                           
  4877                           ;E:/Universidad/Semestre2_2023/Digital-2/Lab4/Lab4_Master.X/Lab4_Master.c: 92:     if (!
      +                          RB0){
  4878     0FE6  1283               	bcf	3,5	;RP0=0, select bank0
  4879     0FE7  1303               	bcf	3,6	;RP1=0, select bank0
  4880     0FE8  1806               	btfsc	6,0	;volatile
  4881     0FE9  2FEB               	goto	u165_21
  4882     0FEA  2FEC               	goto	u165_20
  4883     0FEB                     u165_21:
  4884     0FEB  2FF0               	goto	i1l2016
  4885     0FEC                     u165_20:
  4886     0FEC                     i1l2014:
  4887                           
  4888                           ;E:/Universidad/Semestre2_2023/Digital-2/Lab4/Lab4_Master.X/Lab4_Master.c: 93:         c
      +                          ounter++;
  4889     0FEC  3001               	movlw	1
  4890     0FED  00FF               	movwf	btemp+1
  4891     0FEE  087F               	movf	btemp+1,w
  4892     0FEF  07C6               	addwf	_counter,f
  4893     0FF0                     i1l2016:
  4894                           
  4895                           ;E:/Universidad/Semestre2_2023/Digital-2/Lab4/Lab4_Master.X/Lab4_Master.c: 96:     if (!
      +                          RB1){
  4896     0FF0  1886               	btfsc	6,1	;volatile
  4897     0FF1  2FF3               	goto	u166_21
  4898     0FF2  2FF4               	goto	u166_20
  4899     0FF3                     u166_21:
  4900     0FF3  2FF6               	goto	i1l2020
  4901     0FF4                     u166_20:
  4902     0FF4                     i1l2018:
  4903                           
  4904                           ;E:/Universidad/Semestre2_2023/Digital-2/Lab4/Lab4_Master.X/Lab4_Master.c: 97:         c
      +                          ounter--;
  4905     0FF4  3001               	movlw	1
  4906     0FF5  02C6               	subwf	_counter,f
  4907     0FF6                     i1l2020:
  4908                           
  4909                           ;E:/Universidad/Semestre2_2023/Digital-2/Lab4/Lab4_Master.X/Lab4_Master.c: 99:         I
      +                          NTCONbits.RBIF = 0;
  4910     0FF6  100B               	bcf	11,0	;volatile
  4911     0FF7                     i1l234:
  4912     0FF7  0872               	movf	??_isr+2,w
  4913     0FF8  00FF               	movwf	btemp+1
  4914     0FF9  0871               	movf	??_isr+1,w
  4915     0FFA  008A               	movwf	10
  4916     0FFB  0E70               	swapf	??_isr,w
  4917     0FFC  0083               	movwf	3
  4918     0FFD  0EFE               	swapf	btemp,f
  4919     0FFE  0E7E               	swapf	btemp,w
  4920     0FFF  0009               	retfie
  4921     1000                     __end_of_isr:
  4922     007E                     btemp	set	126	;btemp
  4923     007E                     wtemp0	set	126
  4924                           
  4925                           	psect	intentry
  4926     0004                     __pintentry:	
  4927                           ;incstack = 0
  4928                           ; Regs used in _isr: [wreg+status,2+status,0+btemp+1]
  4929                           
  4930     0004                     interrupt_function:
  4931     007E                     saved_w	set	btemp
  4932     0004  00FE               	movwf	btemp
  4933     0005  0E03               	swapf	3,w
  4934     0006  00F0               	movwf	??_isr
  4935     0007  080A               	movf	10,w
  4936     0008  00F1               	movwf	??_isr+1
  4937     0009  087F               	movf	btemp+1,w
  4938     000A  00F2               	movwf	??_isr+2
  4939     000B  120A  158A  2FE2   	ljmp	_isr
  4940                           
  4941                           	psect	idloc
  4942                           
  4943                           ;Config register IDLOC0 @ 0x2000
  4944                           ;	unspecified, using default values
  4945     2000                     	org	8192
  4946     2000  3FFF               	dw	16383
  4947                           
  4948                           ;Config register IDLOC1 @ 0x2001
  4949                           ;	unspecified, using default values
  4950     2001                     	org	8193
  4951     2001  3FFF               	dw	16383
  4952                           
  4953                           ;Config register IDLOC2 @ 0x2002
  4954                           ;	unspecified, using default values
  4955     2002                     	org	8194
  4956     2002  3FFF               	dw	16383
  4957                           
  4958                           ;Config register IDLOC3 @ 0x2003
  4959                           ;	unspecified, using default values
  4960     2003                     	org	8195
  4961     2003  3FFF               	dw	16383
  4962                           
  4963                           	psect	config
  4964                           
  4965                           ;Config register CONFIG1 @ 0x2007
  4966                           ;	Oscillator Selection bits
  4967                           ;	FOSC = INTRC_NOCLKOUT, INTOSCIO oscillator: I/O function on RA6/OSC2/CLKOUT pin, I/O f
      +                          unction on RA7/OSC1/CLKIN
  4968                           ;	Watchdog Timer Enable bit
  4969                           ;	WDTE = OFF, WDT disabled and can be enabled by SWDTEN bit of the WDTCON register
  4970                           ;	Power-up Timer Enable bit
  4971                           ;	PWRTE = OFF, PWRT disabled
  4972                           ;	RE3/MCLR pin function select bit
  4973                           ;	MCLRE = OFF, RE3/MCLR pin function is digital input, MCLR internally tied to VDD
  4974                           ;	Code Protection bit
  4975                           ;	CP = OFF, Program memory code protection is disabled
  4976                           ;	Data Code Protection bit
  4977                           ;	CPD = OFF, Data memory code protection is disabled
  4978                           ;	Brown Out Reset Selection bits
  4979                           ;	BOREN = OFF, BOR disabled
  4980                           ;	Internal External Switchover bit
  4981                           ;	IESO = OFF, Internal/External Switchover mode is disabled
  4982                           ;	Fail-Safe Clock Monitor Enabled bit
  4983                           ;	FCMEN = OFF, Fail-Safe Clock Monitor is disabled
  4984                           ;	Low Voltage Programming Enable bit
  4985                           ;	LVP = OFF, RB3 pin has digital I/O, HV on MCLR must be used for programming
  4986                           ;	In-Circuit Debugger Mode bit
  4987                           ;	DEBUG = 0x1, unprogramme  4988     2007                     	org	8199
  4989     2007  20D4               	dw	8404
  4990                           
  4991                           ;Config register CONFIG2 @ 0x2008
  4992                           ;	Brown-out Reset Selection bit
  4993                           ;	BOR4V = BOR40V, Brown-out Reset set to 4.0V
  4994                           ;	Flash Program Memory Self Write Enable bits
  4995                           ;	WRT = OFF, Write protection off
  4996     2008                     	org	8200
  4997     2008  3FFF               	dw	16383

Data Sizes:
    Strings     36
    Constant    10
    Data        0
    BSS         29
    Persistent  0
    Stack       0

Auto Spaces:
    Space          Size  Autos    Used
    COMMON           14      8      11
    BANK0            80     30      56
    BANK1            80      0       0
    BANK3            96      0       0
    BANK2            96      0       0

Pointer List with Targets:

    sprintf@f	PTR const unsigned char  size(1) Largest target is 17
		 -> STR_4(CODE[15]), STR_3(CODE[5]), STR_2(CODE[17]), STR_1(CODE[4]), 

    sprintf@sp	PTR unsigned char  size(1) Largest target is 16
		 -> lineLCD(BANK0[16]), 

    sprintf@ap	PTR void [1] size(1) Largest target is 2
		 -> ?_sprintf(BANK0[2]), 

    Lcd_Write_String@a	PTR unsigned char  size(1) Largest target is 16
		 -> lineLCD(BANK0[16]), 


Critical Paths under _main in COMMON

    _main->_Lcd_Set_Cursor
    _main->_settingHourRTC
    _sprintf->___lwmod
    ___lwmod->___lwdiv
    _setup->_I2C_Master_Init
    _Lcd_Init->_Lcd_Cmd
    _I2C_Master_Init->___lldiv
    _Decimal_to_BCD->___awdiv
    _Decimal_to_BCD->___awmod
    _Lcd_Write_String->_Lcd_Write_Char
    _Lcd_Write_Char->_Lcd_Port
    _Lcd_Set_Cursor->_Lcd_Cmd
    _Lcd_Clear->_Lcd_Cmd
    _Lcd_Cmd->_Lcd_Port
    _BCD_to_Decimal->___bmul

Critical Paths under _isr in COMMON

    None.

Critical Paths under _main in BANK0

    _main->_sprintf
    _sprintf->___lwmod
    ___lwmod->___lwdiv
    _setup->_I2C_Master_Init
    _I2C_Master_Init->___lldiv
    _settingHourRTC->_I2C_Master_Write
    _I2C_Master_Write->_Decimal_to_BCD
    _Decimal_to_BCD->___awdiv

Critical Paths under _isr in BANK0

    None.

Critical Paths under _main in BANK1

    None.

Critical Paths under _isr in BANK1

    None.

Critical Paths under _main in BANK3

    None.

Critical Paths under _isr in BANK3

    None.

Critical Paths under _main in BANK2

    None.

Critical Paths under _isr in BANK2

    None.

Call Graph Tables:

 ---------------------------------------------------------------------------------
 (Depth) Function   	        Calls       Base Space   Used Autos Params    Refs
 ---------------------------------------------------------------------------------
 (0) _main                                                 6     6      0   11379
                                             24 BANK0      6     6      0
                     _BCD_to_Decimal
                    _I2C_Master_Read
           _I2C_Master_RepeatedStart
                   _I2C_Master_Start
                    _I2C_Master_Stop
                   _I2C_Master_Write
                          _Lcd_Clear
                     _Lcd_Set_Cursor
                   _Lcd_Write_String
                     _settingHourRTC
                              _setup
                            _sprintf
 ---------------------------------------------------------------------------------
 (1) _sprintf                                             25    18      7    2681
                                              7 BANK0     17    10      7
                             ___bmul
                            ___lwdiv
                            ___lwmod
                            _isdigit
 ---------------------------------------------------------------------------------
 (2) _isdigit                                              2     2      0      68
                                              3 COMMON     2     2      0
 ---------------------------------------------------------------------------------
 (2) ___lwmod                                              5     1      4     311
                                              7 COMMON     1     1      0
                                              3 BANK0      4     0      4
                            ___lwdiv (ARG)
 ---------------------------------------------------------------------------------
 (2) ___lwdiv                                              7     3      4     421
                                              3 COMMON     4     0      4
                                              0 BANK0      3     3      0
 ---------------------------------------------------------------------------------
 (1) _setup                                                0     0      0    1299
                    _I2C_Master_Init
                           _Lcd_Init
                          _configOsc
 ---------------------------------------------------------------------------------
 (2) _configOsc                                            2     0      2     230
                                              3 COMMON     2     0      2
 ---------------------------------------------------------------------------------
 (2) _Lcd_Init                                             2     2      0     527
                                              0 BANK0      2     2      0
                            _Lcd_Cmd
                           _Lcd_Port
 ---------------------------------------------------------------------------------
 (2) _I2C_Master_Init                                      8     4      4     542
                                              4 COMMON     4     4      0
                                             13 BANK0      4     0      4
                            ___lldiv
 ---------------------------------------------------------------------------------
 (3) ___lldiv                                             14     6      8     421
                                              3 COMMON     1     1      0
                                              0 BANK0     13     5      8
 ---------------------------------------------------------------------------------
 (1) _settingHourRTC                                       8     3      5    3270
                                              7 COMMON     1     1      0
                                             12 BANK0      7     2      5
                     _Decimal_to_BCD
                   _I2C_Master_Start
                    _I2C_Master_Stop
                   _I2C_Master_Write
 ---------------------------------------------------------------------------------
 (2) _I2C_Master_Write                                     2     0      2    1201
                                             10 BANK0      2     0      2
                     _Decimal_to_BCD (ARG)
                    _I2C_Master_Wait
 ---------------------------------------------------------------------------------
 (2) _I2C_Master_Stop                                      0     0      0       0
                    _I2C_Master_Wait
 ---------------------------------------------------------------------------------
 (2) _I2C_Master_Start                                     0     0      0       0
                    _I2C_Master_Wait
 ---------------------------------------------------------------------------------
 (2) _Decimal_to_BCD                                       6     6      0    1402
                                              4 BANK0      6     6      0
                            ___awdiv
                            ___awmod
 ---------------------------------------------------------------------------------
 (3) ___awmod                                              6     2      4     613
                                              3 COMMON     4     0      4
                                              0 BANK0      2     2      0
 ---------------------------------------------------------------------------------
 (3) ___awdiv                                              8     4      4     625
                                              3 COMMON     4     0      4
                                              0 BANK0      4     4      0
 ---------------------------------------------------------------------------------
 (1) _Lcd_Write_String                                     4     4      0     553
                                              6 COMMON     1     1      0
                                              0 BANK0      3     3      0
                     _Lcd_Write_Char
 ---------------------------------------------------------------------------------
 (2) _Lcd_Write_Char                                       2     2      0     279
                                              4 COMMON     2     2      0
                           _Lcd_Port
 ---------------------------------------------------------------------------------
 (1) _Lcd_Set_Cursor                                       3     2      1     831
                                              7 COMMON     1     0      1
                                              0 BANK0      2     2      0
                            _Lcd_Cmd
 ---------------------------------------------------------------------------------
 (1) _Lcd_Clear                                            0     0      0     279
                            _Lcd_Cmd
 ---------------------------------------------------------------------------------
 (3) _Lcd_Cmd                                              3     3      0     279
                                              4 COMMON     3     3      0
                           _Lcd_Port
 ---------------------------------------------------------------------------------
 (3) _Lcd_Port                                             1     1      0     248
                                              3 COMMON     1     1      0
 ---------------------------------------------------------------------------------
 (1) _I2C_Master_RepeatedStart                             0     0      0       0
                    _I2C_Master_Wait
 ---------------------------------------------------------------------------------
 (1) _I2C_Master_Read                                      6     4      2     785
                                              3 COMMON     4     2      2
                                              0 BANK0      2     2      0
                    _I2C_Master_Wait
 ---------------------------------------------------------------------------------
 (3) _I2C_Master_Wait                                      0     0      0       0
 ---------------------------------------------------------------------------------
 (1) _BCD_to_Decimal                                       5     5      0     480
                                              6 COMMON     1     1      0
                                              0 BANK0      4     4      0
                             ___bmul
 ---------------------------------------------------------------------------------
 (2) ___bmul                                               3     2      1     316
                                              3 COMMON     3     2      1
 ---------------------------------------------------------------------------------
 Estimated maximum stack depth 3
 ---------------------------------------------------------------------------------
 (Depth) Function   	        Calls       Base Space   Used Autos Params    Refs
 ---------------------------------------------------------------------------------
 (5) _isr                                                  3     3      0       0
                                              0 COMMON     3     3      0
 ---------------------------------------------------------------------------------
 Estimated maximum stack depth 5
 ---------------------------------------------------------------------------------

 Call Graph Graphs:

 _main (ROOT)
   _BCD_to_Decimal
     ___bmul
   _I2C_Master_Read
     _I2C_Master_Wait
   _I2C_Master_RepeatedStart
     _I2C_Master_Wait
   _I2C_Master_Start
     _I2C_Master_Wait
   _I2C_Master_Stop
     _I2C_Master_Wait
   _I2C_Master_Write
     _Decimal_to_BCD (ARG)
       ___awdiv
       ___awmod
     _I2C_Master_Wait (ARG)
   _Lcd_Clear
     _Lcd_Cmd
       _Lcd_Port
   _Lcd_Set_Cursor
     _Lcd_Cmd
   _Lcd_Write_String
     _Lcd_Write_Char
       _Lcd_Port
   _settingHourRTC
     _Decimal_to_BCD
     _I2C_Master_Start
     _I2C_Master_Stop
     _I2C_Master_Write
   _setup
     _I2C_Master_Init
       ___lldiv
     _Lcd_Init
       _Lcd_Cmd
       _Lcd_Port
     _configOsc
   _sprintf
     ___bmul
     ___lwdiv
     ___lwmod
       ___lwdiv (ARG)
     _isdigit

 _isr (ROOT)

 Address spaces:
Name               Size   Autos  Total    Cost      Usage
BITCOMMON            E      0       0       0        0.0%
EEDATA             100      0       0       0        0.0%
NULL                 0      0       0       0        0.0%
CODE                 0      0       0       0        0.0%
COMMON               E      8       B       1       78.6%
BITSFR0              0      0       0       1        0.0%
SFR0                 0      0       0       1        0.0%
BITSFR1              0      0       0       2        0.0%
SFR1                 0      0       0       2        0.0%
STACK                0      0       0       2        0.0%
ABS                  0      0      43       3        0.0%
BITBANK0            50      0       0       4        0.0%
BITSFR3              0      0       0       4        0.0%
SFR3                 0      0       0       4        0.0%
BANK0               50     1E      38       5       70.0%
BITSFR2              0      0       0       5        0.0%
SFR2                 0      0       0       5        0.0%
BITBANK1            50      0       0       6        0.0%
BANK1               50      0       0       7        0.0%
BITBANK3            60      0       0       8        0.0%
BANK3               60      0       0       9        0.0%
BITBANK2            60      0       0      10        0.0%
BANK2               60      0       0      11        0.0%
DATA                 0      0      43      12        0.0%


Microchip Technology PIC Macro Assembler V2.41 build 20230208172133 
Symbol Table                                                                                   Wed Aug 09 19:30:09 2023

          __end_of_BCD_to_Decimal 07E6                                 _a 007A                                 pc 0002  
                  ___bmul@product 0074                                l30 0607                                l31 060D  
                              l40 062A                                l32 060E                                l41 0630  
                              l33 0614                                l34 0615                                l43 0631  
                              l35 061B                                l27 05FD                                l36 061C  
                              l28 0600                                l37 0622                                l29 0606  
                              l61 0FE1                                l38 0623                                l46 07FF  
                              l39 0629                                l55 07C6                                l80 04C5  
                              l49 0FA4                                l81 04D4                                l58 05AD  
                              l82 04E1                                l67 07A4                                l83 04EE  
                              l85 04FC                                l78 04AC                                l79 04B9  
                    ___awdiv@sign 0021                                fsr 0004                               l120 0F97  
                             l114 06E2                               l123 0F77                               l132 0F8A  
                             l117 0F8B                               l126 0F6E                               l135 0775  
                             l136 0778                               l137 077F                               l129 0F80  
                             l251 07E5                               l405 0FCB                               l245 06A8  
                             l254 071B                               l415 04A0                               l248 03CF  
                             l532 0438                               l375 031D                               l545 0557  
                             l651 05F3                               l661 066D                               l832 0FB6  
                             _GIE 005F                               _RB0 0030                               _RB1 0031  
                             _RC0 0038                               _RC1 0039                               _RD0 0040  
                             _RD1 0041                               _RD2 0042                               _RD3 0043  
                             _RD4 0044                               _RD5 0045                               _RD6 0046  
                             _RD7 0047                               _isr 0FE2                               fsr0 0004  
                             indf 0000                      ___awmod@sign 0021                              l2120 0612  
                            l2112 05F5                              l2200 041C                              l2122 0619  
                            l2114 05F9                              l2130 07E7                              l2210 0434  
                            l2202 041D                              l2140 0F8B                              l2124 0620  
                            l2116 0604                              l2132 07EA                              l2204 0424  
                            l2220 0509                              l2300 071A                              l2310 0FC1  
                            l2142 0F91                              l2126 0627                              l2118 060B  
                            l2134 07F0                              l2206 042A                              l2230 051D  
                            l2222 050B                              l2214 04FD                              l2150 0457  
                            l2312 0FC3                              l2304 0FB8                              l2128 062E  
                            l2136 07F3                              l2208 042F                              l2240 053C  
                            l2232 0524                              l2224 050F                              l2216 0500  
                            l2160 0488                              l2152 045B                              l2144 0439  
                            l2400 0682                              l2320 05AE                              l2314 0FC5  
                            l2306 0FB9                              l2138 07FC                              l2170 03D0  
                            l2242 0543                              l2234 0528                              l2226 0514  
                            l2218 0504                              l2162 0489                              l2154 045F  
                            l2146 044B                              l2410 0689                              l2402 0683  
                            l2330 05C6                              l2322 05B2                              l2316 0FCA  
                            l2308 0FBD                              l2180 03E2                              l2172 03D3  
                            l2236 052C                              l2228 051A                              l2244 0549  
                            l2164 0492                              l2156 0468                              l2148 044E  
                            l2260 057E                              l2252 0558                              l2420 069E  
                            l2412 0696                              l2404 0686                              l2340 05E9  
                            l2332 05CA                              l2324 05B8                              l2500 0251  
                            l2350 07AD                              l2270 0FDE                              l2262 0FCD  
                            l2190 03F6                              l2182 03E7                              l2174 03D7  
                            l2246 054E                              l2238 0536                              l2158 047A  
                            l2166 0498                              l2254 055E                              l2430 06A5  
                            l2422 069F                              l2414 069B                              l2406 0687  
                            l2334 05DB                              l2326 05BB                              l2342 05EF  
                            l2510 0269                              l2502 0255                              l2352 07B0  
                            l2264 0FD0                              l2360 0783                              l2192 03FD  
                            l2184 03EB                              l2176 03DC                              l2248 0553  
                            l2440 034C                              l2280 06E0                              l2272 06A9  
                            l2256 0568                              l2432 06A6                              l2424 06A2  
                            l2416 069C                              l2408 0688                              l2336 05E1  
                            l2328 05C2                              l1720 0FA7                              l2520 0287  
                            l2504 025A                              l2600 0130                              l2370 0F6B  
                            l2346 0F98                              l2354 07B7                              l2266 0FD6  
                            l2362 0786                              l2194 0401                              l2186 03ED  
                            l2178 03DE                              l2290 0F7D                              l2450 03B5  
                            l2442 0361                              l2282 06E1                              l2274 06AD  
                            l2258 0578                              l2434 06A7                              l2426 06A3  
                            l2418 069D                              l2338 05E2                              l1722 0FAD  
                            l2530 02B6                              l2522 028B                              l2506 025F  
                            l2610 0175                              l2602 013A                              l2460 07E4  
                            l2380 076B                              l2372 0750                              l2356 07BD  
                            l2348 07A8                              l2268 0FD9                              l2364 0791  
                            l2196 0405                              l2188 03F3                              l2284 0F6F  
                            l2292 0F81                              l2452 03CA                              l2444 0376  
                            l2436 031F                              l2276 06B0                              l2428 06A4  
                            l1724 0FB3                              l2540 02FA                              l2532 02BA  
                            l2524 0291                              l2516 026B                              l2508 0265  
                            l2620 01C3                              l2612 0186                              l2604 0140  
                            l2454 07CA                              l2382 0771                              l2374 0755  
                            l2358 07C0                              l2366 0799                              l2198 0416  
                            l2286 0F74                              l2294 0F86                              l2446 038B  
                            l2438 0339                              l2278 06DF                              l1670 04A8  
                            l2390 0677                              l1726 0FB5                              l1718 0FA6  
                            l2534 02C2                              l2526 02A1                              l2470 01DC  
                            l2614 018C                              l2606 0148                              l2456 07D5  
                            l2384 0779                              l2376 075D                              l2368 0F66  
                            l2296 06E6                              l2288 0F78                              l2448 03A0  
                            l1680 04E8                              l1672 04B3                              l2392 067A  
                            l2536 02C7                              l2544 0300                              l2528 02A2  
                            l2480 01F4                              l2472 01E1                              l2464 01CE  
                            l2616 01B3                              l2608 016D                              l2458 07D8  
                            l2378 0766                              l2298 070E                              l1682 04F5  
                            l1674 04BF                              l2394 067B                              l2538 02CC  
                            l2482 0201                              l2474 01E2                              l2466 01D1  
                            l2546 0309                              l2618 01B9                              l2570 0052  
                            l2562 0021                              l1684 04F9                              l1676 04CE  
                            l1668 04A1                              l2396 067E                              l2388 066E  
                            l1780 0648                              l1772 0632                              l2548 0319  
                            l2652 0236                              l2492 0222                              l2484 020C  
                            l2476 01EE                              l2468 01D7                              l2580 0098  
                            l2572 0057                              l2564 0038                              l1678 04DB  
                            l2398 0680                              l1782 064C                              l1774 063A  
                            l1790 0669                              l2494 0241                              l2486 0210  
                            l2478 01F2                              l2590 00F3                              l2582 00AA  
                            l2574 0062                              l2566 003D                              l1784 0656  
                            l1776 063D                              l2496 0249                              l2488 0221  
                            l2592 00F8                              l2584 00BC                              l2576 0074  
                            l2568 0048                              l1786 065C                              l1778 0644  
                            l2498 024D                              l2594 0103                              l2586 00CE  
                            l2578 0086                              l1788 0663                              l2596 010F  
                            l2588 00E4                              l2598 0114                              ?_isr 0070  
                            STR_1 074C                              STR_2 072C                              STR_3 0738  
                            STR_4 073D                              u1200 04A8                              u1201 04A7  
                            u2010 0549                              u1210 04B3                              u2011 0548  
                            u1211 04B2                              u2020 054E                              u1220 04BF  
                            u1300 0FB3                              u2021 054D                              u2005 053D  
                            u1221 04BE                              u1301 0FB2                              u2030 06C0  
                            u1230 04CE                              u2110 05DB                              u1231 04CD  
                            u2111 05DA                              u1240 04DB                              u1400 063A  
                            u2200 01EE                              u1241 04DA                              u2105 05CB  
                            u1401 0639                              u2201 01ED                              u2050 0FBD  
                            u1250 04E8                              u2130 05EF                              u2210 0220  
                            u2051 0FBC                              u2035 06BB                              u1251 04E7  
                            u2131 05EE                              u2115 05D7                              u2211 021F  
                            u2060 0FCA                              u2140 07AD                              u1260 04F5  
                            u1420 064C                              u2300 0309                              u2220 0251  
                            u2061 0FC9                              u2141 07AC                              u2045 0711  
                            u1261 04F4                              u2125 05E3                              u1421 064B  
                            u2301 0308                              u2221 0250                              u2150 07BD  
                            u2070 05B8                              u1430 0656                              u2310 0319  
                            u2230 025F                              u2151 07BC                              u2071 05B7  
                            u1431 0655                              u1415 063E                              u2311 0318  
                            u2231 025E                              u2160 07A4                              u2240 0265  
                            u2161 07A3                              u2241 0264                              u2170 0771  
                            u2090 05CA                              u1450 0669                              u1290 0FAD  
                            u2250 0286                              u2171 0770                              u2091 05C9  
                            u1451 0668                              u1435 0652                              u1291 0FAC  
                            u2251 0285                              u1700 0612                              u2260 0291  
                            u1701 0611                              u2085 05BC                              u1445 065D  
                            u2261 0290                              u1710 0619                              u2270 02A1  
                            u2190 01D7                              u1711 0618                              u2271 02A0  
                            u2255 0282                              u2191 01D6                              u2327 00EC  
                            u1720 0620                              u2280 02B6                              u2185 07CD  
                            u1721 061F                              u2281 02B5                              u2337 011C  
                            u1730 0627                              u1810 047A                              u2290 02C2  
                            u1731 0626                              u1811 0479                              u2291 02C1  
                            u2275 029D                              u2347 01BF                              u1740 062E  
                            u1900 0416                              u1741 062D                              u1901 0415  
                            u1805 0461                              u2357 0564                              u2285 02B2  
                            u1750 0F91                              u1670 05F9                              u1830 0498  
                            u1751 0F90                              u1671 05F8                              u1831 0497  
                            u1815 0476                              u2367 0574                              u1760 0F97  
                            u1680 0604                              u1920 042A                              u1840 03D7  
                            u1761 0F96                              u1681 0603                              u1921 0429  
                            u1905 0412                              u1841 03D6                              u1825 048A  
                            u2377 0584                              u1690 060B                              u1930 042F  
                            u1850 03E2                              u1770 044B                              u1691 060A  
                            u2387 0FDB                              u1931 042E                              u1915 041E  
                            u1851 03E1                              u1771 044A                              u1860 03F3  
                            u1940 0504                              u2397 07F7                              u1861 03F2  
                            u1941 0503                              u1950 050F                              u1790 045F  
                            u1951 050E                              u1791 045E                              u1880 0405  
                            u1960 051A                              u1881 0404                              u1961 0519  
                            u1785 0450                              u1875 03F7                              _PEIE 005E  
                            u1980 052C                              u1981 052B                              u1990 0536  
                            u1895 0406                              u1991 0535                              u1975 051E  
                            _RBIF 0058                              u1995 0532                 ?_Lcd_Write_String 0070  
__end_of_I2C_Master_RepeatedStart 0F6F                              _main 0021                              btemp 007E  
                ??_Decimal_to_BCD 0024                              start 000E                ??_Lcd_Write_String 0076  
                 __end_of_Lcd_Cmd 0800                 ___bmul@multiplier 0075                 settingHourRTC@day 002E  
               settingHourRTC@min 002C                 settingHourRTC@sec 0077                 settingHourRTC@mon 002F  
                 ?_BCD_to_Decimal 0070                             ??_isr 0070                  ?_I2C_Master_Init 002D  
                ?_I2C_Master_Read 0073                  ?_I2C_Master_Wait 0070                  ?_I2C_Master_Stop 0070  
                   configOsc@frec 0073                             ?_main 0070                   __end_of___awdiv 0439  
                 __end_of___awmod 0558                             _ANSEL 0188                   __end_of___lldiv 04A1  
                 ___awdiv@divisor 0073                   __end_of___lwdiv 05F4                             i1l234 0FF7  
                 __end_of___lwmod 066E                   ___awdiv@counter 0020                             _PORTA 0005  
                           _PORTB 0006                             _PORTC 0007                             _PORTD 0008  
                           _TRISA 0085                             _TRISB 0086                             _TRISC 0087  
                           _TRISD 0088                             _SSPIE 0463                             _SSPIF 0063  
                           _s1ADC 0047                   __end_of_dpowers 072C                   __end_of_isdigit 0FB7  
                           _hours 0045                             _setup 066E                             pclath 000A  
                           status 0003                             wtemp0 007E                   __end_of_sprintf 031E  
                __end_of_Lcd_Init 05AE                  __end_of_Lcd_Port 0632                   __initialization 0011  
              settingHourRTC@hour 002D                settingHourRTC@year 0030                      __end_of_main 01CB  
                          ??_main 0038                 ?_I2C_Master_Start 0070                 ?_I2C_Master_Write 002A  
              ??_I2C_Master_Start 0073                ??_I2C_Master_Write 0077                  ??_settingHourRTC 0031  
                ___awdiv@dividend 0075                            ?_setup 0070                            _ANSELH 0189  
                          i1l2010 0FE2                            i1l2020 0FF6                            i1l2012 0FE6  
                          i1l2014 0FEC                            i1l2016 0FF0                            i1l2018 0FF4  
                          u164_20 0FE6                            u164_21 0FE5                            u165_20 0FEC  
                          u165_21 0FEB                            u166_20 0FF4                            u166_21 0FF3  
                       ??_Lcd_Cmd 0074                            _SSPADD 0093                            _TRISC3 043B  
                          _TRISC4 043C                            _SSPCON 0014                            _SSPBUF 0013  
        _I2C_Master_RepeatedStart 0F66                            ___bmul 0FB7                         ??___awdiv 0077  
                       ??___awmod 0077                         ??___lldiv 0073                         ??___lwdiv 0077  
                       ??___lwmod 0077                  ___awdiv@quotient 0022                   ___awmod@divisor 0073  
                 ___awmod@counter 0020                         ??_isdigit 0073                            saved_w 007E  
                       ??_sprintf 002E                   Lcd_Set_Cursor@a 0020                   Lcd_Set_Cursor@b 0077  
         __end_of__initialization 001D       BCD_to_Decimal@decimal_value 0022                 __end_of_Lcd_Clear 0FA5  
             ___bmul@multiplicand 0073                    __pcstackCOMMON 0070                     __end_of_setup 06A9  
                  _Lcd_Set_Cursor 07A5                    _OPTION_REGbits 0081       Decimal_to_BCD@decimal_value 0029  
                       ?_Lcd_Init 0070                         ?_Lcd_Port 0070                           ??_setup 0078  
                      __pbssBANK0 003E                  ??_BCD_to_Decimal 0076                        __pmaintext 0021  
                         ?___bmul 0073                        __pintentry 0004            __end_of_Lcd_Set_Cursor 07C7  
         BCD_to_Decimal@bcd_value 0023                        ??_Lcd_Init 0020                        ??_Lcd_Port 0073  
                         _SSPCON2 0091                           _SSPSTAT 0094                        __stringtab 071C  
                  _Lcd_Write_Char 0FCC                           _Lcd_Cmd 07E6                 __end_of_configOsc 04FD  
                         ___awdiv 03D0                           ___awmod 04FD                           ___lldiv 0439  
                         ___lwdiv 05AE                           ___lwmod 0632                           _dateRTC 003E  
                 ?_Lcd_Set_Cursor 0077                           __ptext1 01CB                           __ptext2 0FA5  
                         __ptext3 0632                           __ptext4 05AE                           __ptext5 066E  
                         __ptext6 04A1                           __ptext7 0558                           __ptext8 06A9  
                         __ptext9 0439                           _lineLCD 0048                           _counter 0046  
                         _dpowers 0722                           _isdigit 0FA5                  ___awmod@dividend 0075  
                         _minutes 0078                           _seconds 0079                           _timeRTC 0042  
        Decimal_to_BCD@ones_digit 0027                           _sprintf 01CB                           clrloop0 0F5F  
          __end_of_Lcd_Write_Char 0FE2              end_of_initialization 001D        ??_I2C_Master_RepeatedStart 0073  
        Decimal_to_BCD@tens_digit 0026                   ___lldiv@divisor 0020                   ___lldiv@counter 002C  
                I2C_Master_Init@c 002D                  I2C_Master_Read@a 0073                         Lcd_Port@a 0073  
                       _TRISCbits 0087                   ?_Lcd_Write_Char 0070                 Lcd_Write_String@a 0022  
               Lcd_Write_String@i 0020                         _Lcd_Clear 0F98                    __end_of___bmul 0FCC  
                _Lcd_Write_String 0780               start_initialization 0011                       __end_of_isr 1000  
               ??_I2C_Master_Init 0074                 ??_I2C_Master_Read 0075                 ??_I2C_Master_Wait 0073  
               ??_I2C_Master_Stop 0073                        ?_Lcd_Clear 0070                          ??___bmul 0074  
                 Lcd_Write_Char@a 0075                       __pbssCOMMON 0078                         ___latbits 0002  
                   __pcstackBANK0 0020           Decimal_to_BCD@bcd_value 0028                          ?_Lcd_Cmd 0070  
                     sprintf@flag 0032                       sprintf@prec 0036                  _I2C_Master_Start 0F6F  
                _I2C_Master_Write 0F81                  ___lwdiv@dividend 0075                  ??_Lcd_Set_Cursor 0078  
                        ?___awdiv 0073                          ?___awmod 0073                          ?___lldiv 0020  
                        ?___lwdiv 0073                          ?___lwmod 0023                    _Decimal_to_BCD 06E3  
                       _configOsc 04A1                         __pstrings 071C                          ?_isdigit 0070  
                ___lwdiv@quotient 0021                          ?_sprintf 0027                 interrupt_function 0004  
                        _IOCBbits 0096                         clear_ram0 0F5E                          Lcd_Cmd@a 0076  
                     ??_Lcd_Clear 0077            __end_of_Decimal_to_BCD 071C                        ?_configOsc 0073  
                     __stringbase 0721                          _WPUBbits 0095                  ??_Lcd_Write_Char 0074  
                        _Lcd_Init 0558                          _Lcd_Port 05F4               I2C_Master_Read@temp 0020  
        __end_of_Lcd_Write_String 07A5                    _settingHourRTC 031E                   ?_Decimal_to_BCD 0070  
       ?_I2C_Master_RepeatedStart 0070                __end_of__stringtab 0722                       _isdigit$875 0073  
                      sprintf@val 0033                   _I2C_Master_Init 06A9                   _I2C_Master_Read 0750  
                 _I2C_Master_Wait 0F8B                   _I2C_Master_Stop 0F78                   ___lwdiv@divisor 0073  
                 ___lwdiv@counter 0020                          __ptext10 031E                          __ptext11 0F81  
                        __ptext20 0F98                          __ptext12 0F78                          __ptext21 07E6  
                        __ptext13 0F6F                          __ptext22 05F4                          __ptext14 06E3  
                        __ptext23 0F66                          __ptext15 04FD                          __ptext24 0750  
                        __ptext16 03D0                          __ptext25 0F8B                          __ptext17 0780  
                        __ptext26 07C7                          __ptext18 0FCC                          __ptext27 0FB7  
                        __ptext19 07A5                          __ptext28 0FE2            __end_of_settingHourRTC 03D0  
        BCD_to_Decimal@ones_digit 0021                       ??_configOsc 0075          __end_of_I2C_Master_Start 0F78  
        __end_of_I2C_Master_Write 0F8B                        _INTCONbits 000B          BCD_to_Decimal@tens_digit 0020  
                        isdigit@c 0074                          intlevel1 0000                         sprintf@ap 0031  
                       sprintf@sp 0035                  ___lwmod@dividend 0025                  ___lldiv@dividend 0024  
                 ?_settingHourRTC 002C                         stringcode 071C                        _OSCCONbits 008F  
         __end_of_I2C_Master_Init 06E3           __end_of_I2C_Master_Read 0780           __end_of_I2C_Master_Wait 0F98  
                  _BCD_to_Decimal 07C7           __end_of_I2C_Master_Stop 0F81                Lcd_Set_Cursor@temp 0021  
                        sprintf@c 0037                          sprintf@f 0027                  ___lldiv@quotient 0028  
               I2C_Master_Write@d 002A                   ___lwmod@divisor 0023                   ___lwmod@counter 0077  
                        stringdir 071C                          stringtab 071C                       _SSPCON2bits 0091  
